
Allocating common symbols
Common symbol       size              file

netbufpool          0x4               binaries/net.o
readylist           0x2               binaries/ready.o
rfltab              0x5a0             binaries/rflinit.o
sleepq              0x2               binaries/clkinit.o
nnames              0x4               binaries/naminit.o
udptab              0x168             binaries/udp.o
minheap             0x4               binaries/meminit.o
marks               0x50              binaries/mark.o
currpid             0x4               binaries/initialize.o
Lf_data             0x20c             binaries/lfsinit.o
porttab             0x2d0             binaries/ptinit.o
girmask             0x2               binaries/evec.o
ttytab              0x10c             binaries/ttyinit.o
proctab             0x15e0            binaries/initialize.o
prcount             0x4               binaries/initialize.o
lfltab              0xf00             binaries/lflinit.o
rdstab              0x8c              binaries/rdsinit.o
ethertab            0x138             binaries/ethinit.o
NetData             0xa8              binaries/net.o
nmarks              0x4               binaries/mark.o
Defer               0x8               binaries/resched.o
semtab              0x4b0             binaries/initialize.o
maxheap             0x4               binaries/meminit.o
preempt             0x4               binaries/clkinit.o
buftab              0xf0              binaries/bufinit.o
Rf_data             0x18              binaries/rfsinit.o
mkmutex             0x4               binaries/mark.o
clktime             0x4               binaries/clkinit.o
arpcache            0x140             binaries/arp.o
icmptab             0x230             binaries/icmp.o
nbpools             0x4               binaries/bufinit.o
queuetab            0x980             binaries/queue.o
ptnextid            0x4               binaries/ptinit.o
Ram                 0x19000           binaries/raminit.o
ipoqueue            0x2c              binaries/ip.o
memlist             0x8               binaries/initialize.o
nametab             0x19a0            binaries/naminit.o
ptfree              0x4               binaries/ptinit.o

Memory Configuration

Name             Origin             Length             Attributes
*default*        0x0000000000000000 0xffffffffffffffff

Linker script and memory map

                0x0000000000100000                physbase = 0x100000
                0x0000000000100000                . = physbase
                0x0000000000100000                . = ALIGN (0x1000)

.text           0x0000000000100000    0x15000
                0x0000000000100000                text = ABSOLUTE (.)
 *(.text .text.*)
 .text          0x0000000000100000      0x1ac binaries/start.o
                0x0000000000100028                start
                0x00000000001000fa                inb
                0x0000000000100102                inw
                0x000000000010010b                inl
                0x0000000000100113                outb
                0x000000000010011d                outw
                0x0000000000100128                outl
                0x0000000000100132                _rtcin
                0x000000000010013d                ___udivsi3
                0x0000000000100148                ___divsi3
                0x0000000000100154                sbzero
                0x0000000000100164                bcopy
                0x0000000000100178                insw
                0x000000000010018e                outsw
                0x00000000001001a4                lidt
 .text          0x00000000001001ac       0x24 binaries/app1.o
                0x00000000001001ac                app1
 .text          0x00000000001001d0       0x5f binaries/app2.o
                0x00000000001001d0                app2
 .text          0x000000000010022f       0x7c binaries/app3.o
                0x000000000010022f                app3
 .text          0x00000000001002ab      0x2d8 binaries/ascdate.o
                0x00000000001002ab                ascdate
 .text          0x0000000000100583       0x10 binaries/bufinit.o
                0x0000000000100583                bufinit
 .text          0x0000000000100593       0x6c binaries/chprio.o
                0x0000000000100593                chprio
 .text          0x00000000001005ff       0x73 binaries/clkhandler.o
                0x00000000001005ff                clkhandler
 .text          0x0000000000100672       0x59 binaries/clkinit.o
                0x0000000000100672                clkinit
 .text          0x00000000001006cb       0x56 binaries/close.o
                0x00000000001006cb                close
 .text          0x0000000000100721        0x0 binaries/conf.o
 .text          0x0000000000100721       0x5f binaries/control.o
                0x0000000000100721                control
 .text          0x0000000000100780      0x269 binaries/create.o
                0x0000000000100780                create
 .text          0x00000000001009e9      0x205 binaries/early_imr.o
                0x00000000001009e9                intel_cln_early_sb_read_reg
                0x0000000000100a41                intel_cln_early_sb_write_reg
                0x0000000000100af0                remove_irm_protections
 .text          0x0000000000100bee      0x2e6 binaries/evec.o
                0x0000000000100bee                setirmask
                0x0000000000100c22                set_evec
                0x0000000000100c7e                initevec
                0x0000000000100d4d                trap
 .text          0x0000000000100ed4       0xf3 binaries/f1.o
                0x0000000000100ed4                f4
                0x0000000000100f0d                f3
                0x0000000000100f4b                f2
                0x0000000000100f89                f1
 .text          0x0000000000100fc7       0x78 binaries/freebuf.o
                0x0000000000100fc7                freebuf
 .text          0x000000000010103f      0x106 binaries/freemem.o
                0x000000000010103f                freemem
 .text          0x0000000000101145       0x65 binaries/getbuf.o
                0x0000000000101145                getbuf
 .text          0x00000000001011aa       0x56 binaries/getc.o
                0x00000000001011aa                getc
 .text          0x0000000000101200       0x63 binaries/getdev.o
                0x0000000000101200                getdev
 .text          0x0000000000101263       0x77 binaries/getitem.o
                0x0000000000101263                getitem
                0x000000000010128f                getfirst
                0x00000000001012b2                getlast
 .text          0x00000000001012da       0xc2 binaries/getmem.o
                0x00000000001012da                getmem
 .text          0x000000000010139c        0x6 binaries/getpid.o
                0x000000000010139c                getpid
 .text          0x00000000001013a2       0x18 binaries/getppid.o
                0x00000000001013a2                getppid
 .text          0x00000000001013ba       0x64 binaries/getprio.o
                0x00000000001013ba                getprio
 .text          0x000000000010141e       0xa6 binaries/getstk.o
                0x000000000010141e                getstk
 .text          0x00000000001014c4       0x34 binaries/gettime.o
                0x00000000001014c4                gettime
 .text          0x00000000001014f8      0x19d binaries/getutime.o
                0x00000000001014f8                getutime
 .text          0x0000000000101695        0xf binaries/host2netlb.o
                0x0000000000101695                host2netlb
 .text          0x00000000001016a4       0x56 binaries/init.o
                0x00000000001016a4                init
 .text          0x00000000001016fa      0x23c binaries/initialize.o
                0x00000000001016fa                nulluser
                0x00000000001018f1                stop
                0x0000000000101913                delay
 .text          0x0000000000101936       0xa0 binaries/insert.o
                0x0000000000101936                insert
 .text          0x00000000001019d6       0xe9 binaries/insertd.o
                0x00000000001019d6                insertd
 .text          0x0000000000101abf        0x6 binaries/ioerr.o
                0x0000000000101abf                ioerr
 .text          0x0000000000101ac5        0x6 binaries/ionull.o
                0x0000000000101ac5                ionull
 .text          0x0000000000101acb      0x194 binaries/kill.o
                0x0000000000101acb                kill
 .text          0x0000000000101c5f       0xa5 binaries/kprintf.o
                0x0000000000101c5f                kputc
                0x0000000000101c8e                console_init
                0x0000000000101cc0                kgetc
                0x0000000000101ce2                kprintf
 .text          0x0000000000101d04      0x21b binaries/main.o
                0x0000000000101d04                main
 .text          0x0000000000101f1f       0x93 binaries/mark.o
                0x0000000000101f1f                markinit
                0x0000000000101f3c                mark
 .text          0x0000000000101fb2      0x1f1 binaries/meminit.o
                0x0000000000101fb2                meminit
                0x0000000000102137                setsegs
 .text          0x00000000001021a3      0x12a binaries/mkbufpool.o
                0x00000000001021a3                mkbufpool
 .text          0x00000000001022cd       0xa9 binaries/myappA.o
                0x00000000001022cd                myappA
 .text          0x0000000000102376       0x74 binaries/myfuncA.o
                0x0000000000102376                myfuncA
 .text          0x00000000001023ea       0x66 binaries/myhacker.o
                0x00000000001023ea                myhackermalware
                0x0000000000102417                myhacker
 .text          0x0000000000102450       0x73 binaries/myvictim.o
                0x0000000000102450                myvictim2
                0x0000000000102476                myvictim1
                0x000000000010247e                myvictim
 .text          0x00000000001024c3       0x11 binaries/mywelcomemsg.o
                0x00000000001024c3                mywelcomemsg
 .text          0x00000000001024d4       0x5e binaries/newqueue.o
                0x00000000001024d4                newqueue
 .text          0x0000000000102532       0x5e binaries/open.o
                0x0000000000102532                open
 .text          0x0000000000102590       0x1e binaries/panic.o
                0x0000000000102590                panic
 .text          0x00000000001025ae      0x27c binaries/pci.o
                0x00000000001025ae                pci_init
                0x00000000001025b4                find_pci_device
                0x0000000000102672                pci_read_config_byte
                0x00000000001026af                pci_read_config_word
                0x00000000001026ee                pci_read_config_dword
                0x000000000010272b                pci_write_config_byte
                0x0000000000102766                pci_write_config_word
                0x00000000001027a2                pci_write_config_dword
                0x00000000001027dd                pci_get_dev_mmio_base_addr
 .text          0x000000000010282a       0x4f binaries/platinit.o
                0x000000000010282a                platinit
 .text          0x0000000000102879      0x110 binaries/printprstate.o
                0x0000000000102879                prtprstate
 .text          0x0000000000102989      0x11c binaries/prntsegaddr.o
                0x0000000000102989                prntsegaddr
 .text          0x0000000000102aa5       0xa3 binaries/ptclear.o
                0x0000000000102aa5                _ptclear
 .text          0x0000000000102b48       0x7c binaries/ptcount.o
                0x0000000000102b48                ptcount
 .text          0x0000000000102bc4      0x101 binaries/ptcreate.o
                0x0000000000102bc4                ptcreate
 .text          0x0000000000102cc5       0x64 binaries/ptdelete.o
                0x0000000000102cc5                ptdelete
 .text          0x0000000000102d29       0x8e binaries/ptinit.o
                0x0000000000102d29                ptinit
 .text          0x0000000000102db7       0xec binaries/ptrecv.o
                0x0000000000102db7                ptrecv
 .text          0x0000000000102ea3       0x67 binaries/ptreset.o
                0x0000000000102ea3                ptreset
 .text          0x0000000000102f0a      0x10d binaries/ptsend.o
                0x0000000000102f0a                ptsend
 .text          0x0000000000103017       0x5c binaries/putc.o
                0x0000000000103017                putc
 .text          0x0000000000103073       0xb6 binaries/quark_irq.o
                0x0000000000103073                quark_irq_routing
 .text          0x0000000000103129      0x19d binaries/quark_pdat.o
                0x0000000000103129                get_quark_pdat_entry_data_by_id
                0x00000000001031f6                get_quark_pdat_entry_data_by_desc
 .text          0x00000000001032c6       0xb7 binaries/queue.o
                0x00000000001032c6                enqueue
                0x0000000000103332                dequeue
 .text          0x000000000010337d       0x5e binaries/read.o
                0x000000000010337d                read
 .text          0x00000000001033db       0x6c binaries/ready.o
                0x00000000001033db                ready
 .text          0x0000000000103447       0x67 binaries/receive.o
                0x0000000000103447                receive
 .text          0x00000000001034ae       0x54 binaries/recvclr.o
                0x00000000001034ae                recvclr
 .text          0x0000000000103502       0xc2 binaries/recvtime.o
                0x0000000000103502                recvtime
 .text          0x00000000001035c4      0x150 binaries/resched.o
                0x00000000001035c4                resched
                0x00000000001036a1                resched_cntl
 .text          0x0000000000103714       0x87 binaries/resume.o
                0x0000000000103714                resume
 .text          0x000000000010379b       0x5a binaries/seek.o
                0x000000000010379b                seek
 .text          0x00000000001037f5       0x4f binaries/semcount.o
                0x00000000001037f5                semcount
 .text          0x0000000000103844       0x8a binaries/semcreate.o
                0x0000000000103844                semcreate
 .text          0x00000000001038ce       0xc8 binaries/semdelete.o
                0x00000000001038ce                semdelete
 .text          0x0000000000103996       0xa7 binaries/semreset.o
                0x0000000000103996                semreset
 .text          0x0000000000103a3d       0xd2 binaries/send.o
                0x0000000000103a3d                send
 .text          0x0000000000103b0f       0x95 binaries/signal.o
                0x0000000000103b0f                signal
 .text          0x0000000000103ba4       0xba binaries/signaln.o
                0x0000000000103ba4                signaln
 .text          0x0000000000103c5e       0xc9 binaries/sleep.o
                0x0000000000103c5e                sleepms
                0x0000000000103cf1                sleep
 .text          0x0000000000103d27       0x82 binaries/stackdepth.o
                0x0000000000103d27                stackdepth
 .text          0x0000000000103da9      0x1aa binaries/stacktrace.o
                0x0000000000103da9                stacktrace
 .text          0x0000000000103f53       0xd3 binaries/suspend.o
                0x0000000000103f53                suspend
 .text          0x0000000000104026       0x9a binaries/unsleep.o
                0x0000000000104026                unsleep
 .text          0x00000000001040c0       0x15 binaries/userret.o
                0x00000000001040c0                userret
 .text          0x00000000001040d5       0xb9 binaries/wait.o
                0x00000000001040d5                wait
 .text          0x000000000010418e       0x6d binaries/wakeup.o
                0x000000000010418e                wakeup
 .text          0x00000000001041fb       0x5e binaries/write.o
                0x00000000001041fb                write
 .text          0x0000000000104259       0x16 binaries/xdone.o
                0x0000000000104259                xdone
 .text          0x000000000010426f       0x23 binaries/yield.o
                0x000000000010426f                yield
 .text          0x0000000000104292        0xe binaries/abs.o
                0x0000000000104292                abs
 .text          0x00000000001042a0       0x81 binaries/atoi.o
                0x00000000001042a0                atoi
 .text          0x0000000000104321       0x81 binaries/atol.o
                0x0000000000104321                atol
 .text          0x00000000001043a2       0x18 binaries/bzero.o
                0x00000000001043a2                bzero
 .text          0x00000000001043ba        0x0 binaries/ctype_.o
 .text          0x00000000001043ba      0x6e4 binaries/doprnt.o
                0x000000000010450e                _doprnt
 .text          0x0000000000104a9e      0x69b binaries/doscan.o
                0x0000000000104a9e                _doscan
 .text          0x0000000000105139      0x723 binaries/fdoprnt.o
                0x00000000001051bd                _fdoprnt
 .text          0x000000000010585c       0x1c binaries/fgetc.o
                0x000000000010585c                fgetc
 .text          0x0000000000105878       0x62 binaries/fgets.o
                0x0000000000105878                fgets
 .text          0x00000000001058da       0x23 binaries/fprintf.o
                0x00000000001058da                fprintf
 .text          0x00000000001058fd       0x29 binaries/fputc.o
                0x00000000001058fd                fputc
 .text          0x0000000000105926       0x3b binaries/fputs.o
                0x0000000000105926                fputs
 .text          0x0000000000105961       0x6a binaries/fscanf.o
                0x000000000010599b                fscanf
 .text          0x00000000001059cb       0x25 binaries/getchar.o
                0x00000000001059cb                getchar
 .text          0x00000000001059f0        0xe binaries/labs.o
                0x00000000001059f0                labs
 .text          0x00000000001059fe       0x32 binaries/memchr.o
                0x00000000001059fe                memchr
 .text          0x0000000000105a30       0x49 binaries/memcmp.o
                0x0000000000105a30                memcmp
 .text          0x0000000000105a79       0x25 binaries/memcpy.o
                0x0000000000105a79                memcpy
 .text          0x0000000000105a9e       0x1e binaries/memset.o
                0x0000000000105a9e                memset
 .text          0x0000000000105abc       0x38 binaries/printf.o
                0x0000000000105abc                printf
 .text          0x0000000000105af4       0x29 binaries/putchar.o
                0x0000000000105af4                putchar
 .text          0x0000000000105b1d      0x1c8 binaries/qsort.o
                0x0000000000105cba                qsort
 .text          0x0000000000105ce5       0x45 binaries/rand.o
                0x0000000000105ce5                srand
                0x0000000000105cef                rand
 .text          0x0000000000105d2a       0x49 binaries/sprintf.o
                0x0000000000105d41                sprintf
 .text          0x0000000000105d73       0x57 binaries/sscanf.o
                0x0000000000105d9c                sscanf
 .text          0x0000000000105dca       0x2d binaries/strchr.o
                0x0000000000105dca                strchr
 .text          0x0000000000105df7       0x43 binaries/strcmp.o
                0x0000000000105df7                strcmp
 .text          0x0000000000105e3a       0x1a binaries/strcpy.o
                0x0000000000105e3a                strcpy
 .text          0x0000000000105e54       0x1c binaries/strlen.o
                0x0000000000105e54                strlen
 .text          0x0000000000105e70       0x3c binaries/strncat.o
                0x0000000000105e70                strncat
 .text          0x0000000000105eac       0x3a binaries/strncmp.o
                0x0000000000105eac                strncmp
 .text          0x0000000000105ee6       0x58 binaries/strncpy.o
                0x0000000000105ee6                strncpy
 .text          0x0000000000105f3e       0x36 binaries/strnlen.o
                0x0000000000105f3e                strnlen
 .text          0x0000000000105f74       0x30 binaries/strrchr.o
                0x0000000000105f74                strrchr
 .text          0x0000000000105fa4       0x66 binaries/strstr.o
                0x0000000000105fa4                strstr
 .text          0x000000000010600a      0x10a binaries/ttycontrol.o
                0x000000000010600a                ttycontrol
 .text          0x0000000000106114       0xaa binaries/ttygetc.o
                0x0000000000106114                ttygetc
 .text          0x00000000001061be      0x477 binaries/ttyhandle_in.o
                0x0000000000106274                ttyhandle_in
 .text          0x0000000000106635      0x16e binaries/ttyhandle_out.o
                0x0000000000106635                ttyhandle_out
 .text          0x00000000001067a3       0x84 binaries/ttyhandler.o
                0x00000000001067a3                ttyhandler
 .text          0x0000000000106827      0x157 binaries/ttyinit.o
                0x0000000000106827                ttyinit
 .text          0x000000000010697e        0xc binaries/ttykickout.o
                0x000000000010697e                ttykickout
 .text          0x000000000010698a       0xac binaries/ttyputc.o
                0x000000000010698a                ttyputc
 .text          0x0000000000106a36       0xf3 binaries/ttyread.o
                0x0000000000106a36                ttyread
 .text          0x0000000000106b29       0x46 binaries/ttywrite.o
                0x0000000000106b29                ttywrite
 .text          0x0000000000106b6f      0x125 binaries/mount.o
                0x0000000000106b6f                namlen
                0x0000000000106ba7                mount
 .text          0x0000000000106c94      0x196 binaries/naminit.o
                0x0000000000106c94                naminit
 .text          0x0000000000106e2a      0x1ff binaries/nammap.o
                0x0000000000106e2a                namrepl
                0x0000000000106f4b                namcpy
                0x0000000000106f98                nammap
 .text          0x0000000000107029       0x4e binaries/namopen.o
                0x0000000000107029                namopen
 .text          0x0000000000107077       0xce binaries/colon2mac.o
                0x0000000000107077                colon2mac
 .text          0x0000000000107145       0x81 binaries/ethcontrol.o
                0x0000000000107145                ethcontrol
 .text          0x00000000001071c6      0x172 binaries/ethhandler.o
                0x00000000001071c6                ethhandler
 .text          0x0000000000107338      0x52e binaries/ethinit.o
                0x0000000000107338                eth_phy_read
                0x0000000000107375                eth_phy_write
                0x00000000001073b5                eth_phy_reset
                0x000000000010748f                ethinit
 .text          0x0000000000107866       0xff binaries/ethmcast.o
                0x0000000000107866                ethmcast_add
                0x00000000001078b3                ethmcast_remove
 .text          0x0000000000107965      0x174 binaries/ethread.o
                0x0000000000107965                ethread
 .text          0x0000000000107ad9       0xbd binaries/ethwrite.o
                0x0000000000107ad9                ethwrite
 .text          0x0000000000107b96       0x66 binaries/rdsbufalloc.o
                0x0000000000107b96                rdsbufalloc
 .text          0x0000000000107bfc       0xcd binaries/rdsclose.o
                0x0000000000107bfc                rdsclose
 .text          0x0000000000107cc9      0x1e7 binaries/rdscomm.o
                0x0000000000107cc9                rdscomm
 .text          0x0000000000107eb0      0x1c2 binaries/rdscontrol.o
                0x0000000000107eb0                rdscontrol
 .text          0x0000000000108072      0x1e4 binaries/rdsinit.o
                0x0000000000108072                rdsinit
 .text          0x0000000000108256      0x1a1 binaries/rdsopen.o
                0x0000000000108256                rdsopen
 .text          0x00000000001083f7      0x2b9 binaries/rdsprocess.o
                0x00000000001083f7                rdsprocess
 .text          0x00000000001086b0      0x1e2 binaries/rdsread.o
                0x00000000001086b0                rdsread
 .text          0x0000000000108892      0x1ac binaries/rdswrite.o
                0x0000000000108892                rdswrite
 .text          0x0000000000108a3e        0x6 binaries/ramclose.o
                0x0000000000108a3e                ramclose
 .text          0x0000000000108a44       0x34 binaries/raminit.o
                0x0000000000108a44                raminit
 .text          0x0000000000108a78        0x7 binaries/ramopen.o
                0x0000000000108a78                ramopen
 .text          0x0000000000108a7f       0x27 binaries/ramread.o
                0x0000000000108a7f                ramread
 .text          0x0000000000108aa6       0x27 binaries/ramwrite.o
                0x0000000000108aa6                ramwrite
 .text          0x0000000000108acd       0x87 binaries/lfdballoc.o
                0x0000000000108acd                lfdballoc
 .text          0x0000000000108b54       0x4d binaries/lfdbfree.o
                0x0000000000108b54                lfdbfree
 .text          0x0000000000108ba1       0x9f binaries/lfflush.o
                0x0000000000108ba1                lfflush
 .text          0x0000000000108c40       0x7a binaries/lfgetmode.o
                0x0000000000108c40                lfgetmode
 .text          0x0000000000108cba       0x5f binaries/lfiballoc.o
                0x0000000000108cba                lfiballoc
 .text          0x0000000000108d19       0x25 binaries/lfibclear.o
                0x0000000000108d19                lfibclear
 .text          0x0000000000108d3e       0x74 binaries/lfibget.o
                0x0000000000108d3e                lfibget
 .text          0x0000000000108db2       0x91 binaries/lfibput.o
                0x0000000000108db2                lfibput
 .text          0x0000000000108e43       0xa1 binaries/lflclose.o
                0x0000000000108e43                lflclose
 .text          0x0000000000108ee4       0xbe binaries/lflcontrol.o
                0x0000000000108ee4                lflcontrol
 .text          0x0000000000108fa2       0xf7 binaries/lflgetc.o
                0x0000000000108fa2                lflgetc
 .text          0x0000000000109099       0xe4 binaries/lflinit.o
                0x0000000000109099                lflinit
 .text          0x000000000010917d      0x12d binaries/lflputc.o
                0x000000000010917d                lflputc
 .text          0x00000000001092aa       0x6a binaries/lflread.o
                0x00000000001092aa                lflread
 .text          0x0000000000109314       0xb8 binaries/lflseek.o
                0x0000000000109314                lflseek
 .text          0x00000000001093cc       0x4e binaries/lflwrite.o
                0x00000000001093cc                lflwrite
 .text          0x000000000010941a      0x11a binaries/lfsckfmt.o
                0x000000000010941a                lfsckfmt
 .text          0x0000000000109534      0x1bd binaries/lfscreate.o
                0x0000000000109534                lfscreate
 .text          0x00000000001096f1      0x1a4 binaries/lfsetup.o
                0x00000000001096f1                lfsetup
 .text          0x0000000000109895       0x44 binaries/lfsinit.o
                0x0000000000109895                lfsinit
 .text          0x00000000001098d9      0x303 binaries/lfsopen.o
                0x00000000001098d9                lfsopen
 .text          0x0000000000109bdc      0x11d binaries/lftruncate.o
                0x0000000000109bdc                lftruncate
 .text          0x0000000000109cf9       0x69 binaries/rflclose.o
                0x0000000000109cf9                rflclose
 .text          0x0000000000109d62       0x2b binaries/rflgetc.o
                0x0000000000109d62                rflgetc
 .text          0x0000000000109d8d       0x69 binaries/rflinit.o
                0x0000000000109d8d                rflinit
 .text          0x0000000000109df6       0x2c binaries/rflputc.o
                0x0000000000109df6                rflputc
 .text          0x0000000000109e22      0x2c8 binaries/rflread.o
                0x0000000000109e22                rflread
 .text          0x000000000010a0ea       0x69 binaries/rflseek.o
                0x000000000010a0ea                rflseek
 .text          0x000000000010a153      0x2ec binaries/rflwrite.o
                0x000000000010a153                rflwrite
 .text          0x000000000010a43f      0x17d binaries/rfscomm.o
                0x000000000010a43f                rfscomm
 .text          0x000000000010a5bc      0x246 binaries/rfscontrol.o
                0x000000000010a5bc                rfscontrol
 .text          0x000000000010a802       0x7a binaries/rfsgetmode.o
                0x000000000010a802                rfsgetmode
 .text          0x000000000010a87c       0x7d binaries/rfsinit.o
                0x000000000010a87c                rfsinit
 .text          0x000000000010a8f9       0xb7 binaries/rfsndmsg.o
                0x000000000010a8f9                rfsndmsg
 .text          0x000000000010a9b0      0x24f binaries/rfsopen.o
                0x000000000010a9b0                rfsopen
 .text          0x000000000010abff      0x619 binaries/arp.o
                0x000000000010abff                arp_init
                0x000000000010ac17                arp_alloc
                0x000000000010acbb                arp_ntoh
                0x000000000010ad25                arp_hton
                0x000000000010ad8f                arp_resolve
                0x000000000010afe1                arp_in
 .text          0x000000000010b218      0x5a3 binaries/dhcp.o
                0x000000000010b218                dhcp_get_opt_val
                0x000000000010b26b                dhcp_bld_bootp_msg
                0x000000000010b339                dhcp_bld_disc
                0x000000000010b389                dhcp_bld_req
                0x000000000010b423                getlocalip
 .text          0x000000000010b7bb       0xcc binaries/dot2ip.o
                0x000000000010b7bb                dot2ip
 .text          0x000000000010b887      0x378 binaries/hexdump.o
                0x000000000010b887                hexdump
                0x000000000010b9d6                hexadump
 .text          0x000000000010bbff      0x6e6 binaries/icmp.o
                0x000000000010bbff                icmp_init
                0x000000000010bc17                icmp_register
                0x000000000010bcd5                icmp_recv
                0x000000000010be78                icmp_mkpkt
                0x000000000010bf49                icmp_in
                0x000000000010c0dd                icmp_send
                0x000000000010c14c                icmp_release
                0x000000000010c264                icmp_cksum
                0x000000000010c2bd                icmp_hton
                0x000000000010c2d1                icmp_ntoh
 .text          0x000000000010c2e5      0x5d0 binaries/ip.o
                0x000000000010c2e5                ip_local
                0x000000000010c325                ipcksum
                0x000000000010c378                ip_ntoh
                0x000000000010c3e2                ip_in
                0x000000000010c505                ip_hton
                0x000000000010c56f                ip_out
                0x000000000010c622                ip_send
                0x000000000010c72d                ipout
                0x000000000010c81d                ip_enqueue
 .text          0x000000000010c8b5      0x1a8 binaries/net.o
                0x000000000010c8b5                net_init
                0x000000000010c9ab                eth_hton
                0x000000000010c9b5                eth_ntoh
                0x000000000010c9bf                netin
 .text          0x000000000010ca5d       0xb3 binaries/netstart.o
                0x000000000010ca5d                netstart
 .text          0x000000000010cb10      0xa2d binaries/pdump.o
                0x000000000010cb10                pdump
                0x000000000010d0f4                pdumph
 .text          0x000000000010d53d      0x5bc binaries/tftp.o
                0x000000000010d53d                tftp_send1
                0x000000000010d659                tftpget_mb
                0x000000000010dad2                tftpget
 .text          0x000000000010daf9      0xa03 binaries/udp.o
                0x000000000010daf9                udp_init
                0x000000000010db36                udp_in
                0x000000000010dc55                udp_register
                0x000000000010dd72                udp_recv
                0x000000000010defd                udp_recvaddr
                0x000000000010e09c                udp_send
                0x000000000010e257                udp_sendto
                0x000000000010e3ca                udp_release
                0x000000000010e4d4                udp_ntoh
                0x000000000010e4e8                udp_hton
 .text          0x000000000010e4fc      0x12c binaries/addargs.o
                0x000000000010e4fc                addargs
 .text          0x000000000010e628      0x1e2 binaries/lexan.o
                0x000000000010e628                lexan
 .text          0x000000000010e80a      0x5bf binaries/shell.o
                0x000000000010e80a                shell
 .text          0x000000000010edc9       0x57 binaries/xsh_argecho.o
                0x000000000010edc9                xsh_argecho
 .text          0x000000000010ee20      0x1ff binaries/xsh_arp.o
                0x000000000010ee20                xsh_arp
 .text          0x000000000010f01f      0x211 binaries/xsh_cat.o
                0x000000000010f01f                xsh_cat
 .text          0x000000000010f230       0x59 binaries/xsh_clear.o
                0x000000000010f230                xsh_clear
 .text          0x000000000010f289      0x2b5 binaries/xsh_date.o
                0x000000000010f289                xsh_date
 .text          0x000000000010f53e       0x89 binaries/xsh_devdump.o
                0x000000000010f53e                xsh_devdump
 .text          0x000000000010f5c7       0x5e binaries/xsh_echo.o
                0x000000000010f5c7                xsh_echo
 .text          0x000000000010f625        0x6 binaries/xsh_exit.o
                0x000000000010f625                xsh_exit
 .text          0x000000000010f62b      0x336 binaries/xsh_help.o
                0x000000000010f62b                xsh_help
 .text          0x000000000010f961      0x391 binaries/xsh_ipaddr.o
                0x000000000010f961                xsh_ipaddr
 .text          0x000000000010fcf2      0x1df binaries/xsh_kill.o
                0x000000000010fcf2                xsh_kill
 .text          0x000000000010fed1      0x3f2 binaries/xsh_memdump.o
                0x000000000010ff93                xsh_memdump
 .text          0x00000000001102c3      0x1d7 binaries/xsh_memstat.o
                0x00000000001102c3                xsh_memstat
 .text          0x000000000011049a      0x2cb binaries/xsh_ping.o
                0x000000000011049a                xsh_ping
 .text          0x0000000000110765      0x1ac binaries/xsh_ps.o
                0x0000000000110765                xsh_ps
 .text          0x0000000000110911      0x1cc binaries/xsh_sleep.o
                0x0000000000110911                xsh_sleep
 .text          0x0000000000110add      0x1d7 binaries/xsh_udpdump.o
                0x0000000000110add                xsh_udpdump
 .text          0x0000000000110cb4      0x406 binaries/xsh_udpecho.o
                0x0000000000110cb4                xsh_udpecho
 .text          0x00000000001110ba      0x243 binaries/xsh_udpeserver.o
                0x00000000001110ba                xsh_udpeserver
 .text          0x00000000001112fd      0x1c0 binaries/xsh_uptime.o
                0x00000000001112fd                xsh_uptime
 .text          0x00000000001114bd        0xe binaries/clkdisp.o
                0x00000000001114bd                clkdisp
 .text          0x00000000001114cb       0x19 binaries/ctxsw.o
                0x00000000001114cb                ctxsw
 .text          0x00000000001114e4        0xf binaries/host2netla.o
                0x00000000001114e4                host2netla
 .text          0x00000000001114f3       0x2f binaries/host2netlc.o
                0x00000000001114f3                host2netlc
 .text          0x0000000000111522      0x36b binaries/intr.o
                0x0000000000111522                disable
                0x000000000011152b                restore
                0x0000000000111539                enable
                0x000000000011153b                pause
                0x0000000000111542                halt
                0x0000000000111548                spurious_irq7
                0x000000000011154d                spurious_irq15
                0x000000000011155c                _Xint0
                0x0000000000111567                _Xint1
                0x0000000000111572                _Xint2
                0x000000000011157d                _Xint3
                0x0000000000111588                _Xint4
                0x0000000000111593                _Xint5
                0x000000000011159e                _Xint6
                0x00000000001115a9                _Xint7
                0x00000000001115b4                _Xint8
                0x00000000001115bf                _Xint9
                0x00000000001115ca                _Xint10
                0x00000000001115d5                _Xint11
                0x00000000001115e3                _Xint12
                0x00000000001115f1                _Xint13
                0x00000000001115ff                _Xint14
                0x000000000011160d                _Xint15
                0x000000000011161b                _Xint16
                0x0000000000111629                _Xint17
                0x0000000000111637                _Xint18
                0x0000000000111645                _Xint19
                0x0000000000111653                _Xint20
                0x0000000000111661                _Xint21
                0x000000000011166f                _Xint22
                0x000000000011167d                _Xint23
                0x000000000011168b                _Xint24
                0x0000000000111699                _Xint25
                0x00000000001116a7                _Xint26
                0x00000000001116b5                _Xint27
                0x00000000001116c3                _Xint28
                0x00000000001116d1                _Xint29
                0x00000000001116df                _Xint30
                0x00000000001116ed                _Xint31
                0x00000000001116fb                _Xint32
                0x0000000000111709                _Xint33
                0x0000000000111717                _Xint34
                0x0000000000111725                _Xint35
                0x0000000000111733                _Xint36
                0x0000000000111741                _Xint37
                0x000000000011174f                _Xint38
                0x000000000011175d                _Xint39
                0x000000000011176b                _Xint40
                0x0000000000111779                _Xint41
                0x0000000000111787                _Xint42
                0x0000000000111795                _Xint43
                0x00000000001117a3                _Xint44
                0x00000000001117b1                _Xint45
                0x00000000001117bf                _Xint46
                0x00000000001117cd                defevec
 .text          0x000000000011188d        0xf binaries/ttydispatch.o
                0x000000000011188d                ttydispatch
 .text          0x000000000011189c       0x13 binaries/ethdispatch.o
                0x000000000011189c                ethdispatch
 *(.rodata .rodata.*)
 .rodata.str1.1
                0x00000000001118af       0x2a binaries/app1.o
 .rodata.str1.1
                0x00000000001118d9       0x2e binaries/app2.o
 .rodata.str1.1
                0x0000000000111907       0x78 binaries/app3.o
 .rodata.str1.1
                0x000000000011197f       0x54 binaries/ascdate.o
 *fill*         0x00000000001119d3        0x1 
 .rodata.str1.4
                0x00000000001119d4       0x22 binaries/ascdate.o
 .rodata.str1.1
                0x00000000001119f6       0x5f binaries/conf.o
 *fill*         0x0000000000111a55        0x3 
 .rodata.str1.4
                0x0000000000111a58       0x4f binaries/early_imr.o
 *fill*         0x0000000000111aa7        0x1 
 .rodata        0x0000000000111aa8       0x33 binaries/early_imr.o
 .rodata.str1.1
                0x0000000000111adb      0x20c binaries/evec.o
 *fill*         0x0000000000111ce7        0x1 
 .rodata.str1.4
                0x0000000000111ce8       0x23 binaries/evec.o
 .rodata.str1.1
                0x0000000000111d0b       0x11 binaries/f1.o
 .rodata.str1.4
                0x0000000000111d1c       0x24 binaries/f1.o
 .rodata.str1.1
                0x0000000000111d40        0xb binaries/getutime.o
 *fill*         0x0000000000111d4b        0x1 
 .rodata.str1.4
                0x0000000000111d4c       0x54 binaries/getutime.o
 .rodata.str1.1
                0x0000000000111da0       0x63 binaries/initialize.o
                                         0x67 (size before relaxing)
 *fill*         0x0000000000111e03        0x1 
 .rodata.str1.4
                0x0000000000111e04       0xd4 binaries/initialize.o
 .rodata        0x0000000000111ed8       0x20 binaries/kill.o
 .rodata.str1.1
                0x0000000000111ef8       0x8c binaries/main.o
 .rodata.str1.4
                0x0000000000111f84      0x205 binaries/main.o
 *fill*         0x0000000000112189        0x3 
 .rodata.str1.4
                0x000000000011218c       0x23 binaries/meminit.o
 .rodata.str1.1
                0x00000000001121af       0x1b binaries/meminit.o
 .rodata.str1.1
                0x00000000001121ca       0x5e binaries/myappA.o
                                         0x6d (size before relaxing)
 .rodata.str1.4
                0x0000000000112228       0x31 binaries/myappA.o
 .rodata.str1.1
                0x0000000000112228        0xf binaries/myfuncA.o
 .rodata.str1.4
                0x0000000000112228       0x35 binaries/myfuncA.o
                                         0x69 (size before relaxing)
 *fill*         0x000000000011225d        0x3 
 .rodata.str1.4
                0x0000000000112260       0x50 binaries/myhacker.o
 .rodata.str1.1
                0x00000000001122b0       0x15 binaries/myhacker.o
 .rodata.str1.1
                0x00000000001122c5       0x15 binaries/myvictim.o
 *fill*         0x00000000001122da        0x2 
 .rodata.str1.4
                0x00000000001122dc       0x29 binaries/myvictim.o
                                         0x51 (size before relaxing)
 *fill*         0x0000000000112305        0x3 
 .rodata.str1.4
                0x0000000000112308       0x4a binaries/mywelcomemsg.o
 .rodata.str1.1
                0x0000000000112352        0xf binaries/panic.o
 .rodata.str1.1
                0x0000000000112361       0x2c binaries/printprstate.o
 *fill*         0x000000000011238d        0x3 
 .rodata.str1.4
                0x0000000000112390      0x130 binaries/printprstate.o
 .rodata        0x00000000001124c0       0x1c binaries/printprstate.o
 .rodata.str1.1
                0x00000000001124dc       0xa5 binaries/prntsegaddr.o
 *fill*         0x0000000000112581        0x3 
 .rodata.str1.4
                0x0000000000112584       0x81 binaries/prntsegaddr.o
 .rodata.str1.1
                0x0000000000112605       0x1c binaries/ptinit.o
 *fill*         0x0000000000112621        0x3 
 .rodata.str1.4
                0x0000000000112624       0x25 binaries/ptsend.o
 .rodata.str1.1
                0x0000000000112649       0x22 binaries/quark_pdat.o
 .rodata.str1.1
                0x000000000011266b       0x12 binaries/stackdepth.o
 *fill*         0x000000000011267d        0x3 
 .rodata.str1.4
                0x0000000000112680       0x31 binaries/stackdepth.o
 *fill*         0x00000000001126b1        0x3 
 .rodata.str1.4
                0x00000000001126b4       0x63 binaries/stacktrace.o
 .rodata.str1.1
                0x0000000000112717       0x52 binaries/stacktrace.o
 *fill*         0x0000000000112769        0x3 
 .rodata.str1.4
                0x000000000011276c       0x27 binaries/xdone.o
 *fill*         0x0000000000112793        0xd 
 .rodata        0x00000000001127a0       0x81 binaries/ctype_.o
                0x00000000001127a0                _ctype_
 .rodata.str1.1
                0x0000000000112821       0x29 binaries/doprnt.o
 *fill*         0x000000000011284a        0x2 
 .rodata        0x000000000011284c       0xc4 binaries/doprnt.o
 .rodata        0x0000000000112910       0x98 binaries/doscan.o
 .rodata.str1.1
                0x00000000001129a8       0x29 binaries/fdoprnt.o
 .rodata        0x00000000001129a8       0x84 binaries/fdoprnt.o
 .rodata        0x0000000000112a2c       0x20 binaries/ttycontrol.o
 .rodata.str1.4
                0x0000000000112a4c       0x4c binaries/naminit.o
 .rodata.str1.1
                0x0000000000112a98       0x32 binaries/naminit.o
                                         0x35 (size before relaxing)
 .rodata.str1.1
                0x0000000000112aca       0x15 binaries/ethinit.o
 *fill*         0x0000000000112adf        0x1 
 .rodata.str1.4
                0x0000000000112ae0       0x2e binaries/ethinit.o
 *fill*         0x0000000000112b0e        0x2 
 .rodata.str1.4
                0x0000000000112b10       0x2c binaries/rdsbufalloc.o
 .rodata.str1.4
                0x0000000000112b3c       0x76 binaries/rdscomm.o
 *fill*         0x0000000000112bb2        0x2 
 .rodata.str1.4
                0x0000000000112bb4       0x48 binaries/rdscontrol.o
 .rodata.str1.4
                0x0000000000112bfc       0x7e binaries/rdsinit.o
 .rodata.str1.1
                0x0000000000112c7a       0x18 binaries/rdsinit.o
 *fill*         0x0000000000112c92        0x2 
 .rodata.str1.4
                0x0000000000112c94       0x22 binaries/rdsopen.o
 *fill*         0x0000000000112cb6        0x2 
 .rodata.str1.4
                0x0000000000112cb8       0x4d binaries/rdsprocess.o
 .rodata.str1.1
                0x0000000000112d05        0x9 binaries/raminit.o
 .rodata.str1.1
                0x0000000000112d0e       0x13 binaries/lfdballoc.o
 *fill*         0x0000000000112d21        0x3 
 .rodata.str1.4
                0x0000000000112d24       0x23 binaries/lfdballoc.o
 .rodata.str1.1
                0x0000000000112d47       0x14 binaries/lfiballoc.o
 *fill*         0x0000000000112d5b        0x1 
 .rodata.str1.4
                0x0000000000112d5c       0x23 binaries/lflcontrol.o
 .rodata.str1.1
                0x0000000000112d7f       0x64 binaries/lfsckfmt.o
 *fill*         0x0000000000112de3        0x1 
 .rodata.str1.4
                0x0000000000112de4       0x51 binaries/lfsckfmt.o
 *fill*         0x0000000000112e35        0x3 
 .rodata.str1.4
                0x0000000000112e38       0x21 binaries/rflread.o
 .rodata.str1.4
                0x0000000000112e59       0x21 binaries/rflwrite.o
 *fill*         0x0000000000112e59        0x3 
 .rodata.str1.4
                0x0000000000112e5c       0x75 binaries/rfscomm.o
 *fill*         0x0000000000112ed1        0x3 
 .rodata.str1.4
                0x0000000000112ed4       0x23 binaries/rfscontrol.o
 *fill*         0x0000000000112ef7        0x1 
 .rodata        0x0000000000112ef8       0x18 binaries/rfscontrol.o
 .rodata.str1.1
                0x0000000000112f10       0x10 binaries/rfsinit.o
 .rodata.str1.4
                0x0000000000112f10       0x57 binaries/rfsinit.o
 *fill*         0x0000000000112f67        0x1 
 .rodata.str1.4
                0x0000000000112f68       0x2a binaries/rfsndmsg.o
 .rodata.str1.4
                0x0000000000112f92       0x22 binaries/rfsopen.o
 .rodata.str1.1
                0x0000000000112f92       0x19 binaries/arp.o
 *fill*         0x0000000000112fab        0x1 
 .rodata.str1.4
                0x0000000000112fac       0x21 binaries/arp.o
 *fill*         0x0000000000112fcd        0x3 
 .rodata.str1.4
                0x0000000000112fd0       0xa6 binaries/dhcp.o
 .rodata.str1.1
                0x0000000000113076       0x4a binaries/dhcp.o
 .rodata.str1.1
                0x00000000001130c0       0x5a binaries/hexdump.o
                                         0x61 (size before relaxing)
 *fill*         0x000000000011311a        0x2 
 .rodata.str1.4
                0x000000000011311c       0x67 binaries/hexdump.o
 *fill*         0x0000000000113183        0x1 
 .rodata.str1.4
                0x0000000000113184       0x29 binaries/icmp.o
 .rodata.str1.1
                0x00000000001131ad       0x4e binaries/ip.o
 *fill*         0x00000000001131fb        0x1 
 .rodata.str1.4
                0x00000000001131fc       0x20 binaries/ip.o
 .rodata.str1.4
                0x000000000011321c       0x28 binaries/net.o
 .rodata.str1.1
                0x0000000000113244       0x27 binaries/net.o
 *fill*         0x000000000011326b        0x1 
 .rodata.str1.4
                0x000000000011326c       0xcf binaries/netstart.o
 .rodata.str1.1
                0x000000000011333b      0x13e binaries/pdump.o
                                        0x14b (size before relaxing)
 *fill*         0x0000000000113479        0x3 
 .rodata.str1.4
                0x000000000011347c      0x126 binaries/pdump.o
 *fill*         0x00000000001135a2        0x2 
 .rodata.str1.4
                0x00000000001135a4      0x148 binaries/tftp.o
 .rodata.str1.1
                0x00000000001136ec        0x6 binaries/tftp.o
                                          0xa (size before relaxing)
 .rodata.str1.1
                0x00000000001136f2       0xd1 binaries/shell.o
                                         0xed (size before relaxing)
 *fill*         0x00000000001137c3        0x1 
 .rodata.str1.4
                0x00000000001137c4      0x1c4 binaries/shell.o
                                        0x210 (size before relaxing)
 *fill*         0x0000000000113988       0x18 
 .rodata        0x00000000001139a0       0xfc binaries/shell.o
                0x00000000001139a0                cmdtab
 .rodata.str1.1
                0x0000000000113a9c       0x26 binaries/xsh_argecho.o
                                         0x28 (size before relaxing)
 .rodata.str1.1
                0x0000000000113ac2       0x70 binaries/xsh_arp.o
                                         0x72 (size before relaxing)
 *fill*         0x0000000000113b32        0x2 
 .rodata.str1.4
                0x0000000000113b34       0xb4 binaries/xsh_arp.o
 .rodata.str1.1
                0x0000000000113be8       0x2d binaries/xsh_cat.o
                                         0x4f (size before relaxing)
 *fill*         0x0000000000113c15        0x3 
 .rodata.str1.4
                0x0000000000113c18       0x52 binaries/xsh_cat.o
                                         0x79 (size before relaxing)
 .rodata.str1.1
                0x0000000000113c6a       0x15 binaries/xsh_clear.o
 .rodata.str1.1
                0x0000000000113c7f       0x46 binaries/xsh_date.o
                                         0x5f (size before relaxing)
 *fill*         0x0000000000113cc5        0x3 
 .rodata.str1.4
                0x0000000000113cc8      0x163 binaries/xsh_date.o
 .rodata.str1.1
                0x0000000000113e2b       0x5d binaries/xsh_devdump.o
 .rodata.str1.1
                0x0000000000113e88       0x5d binaries/xsh_echo.o
                                          0x9 (size before relaxing)
 .rodata.str1.1
                0x0000000000113e88       0x65 binaries/xsh_help.o
                                         0xa3 (size before relaxing)
 *fill*         0x0000000000113eed        0x3 
 .rodata.str1.4
                0x0000000000113ef0       0x7c binaries/xsh_help.o
                                         0xc6 (size before relaxing)
 .rodata.str1.1
                0x0000000000113f6c       0x9c binaries/xsh_ipaddr.o
                                         0xf8 (size before relaxing)
 .rodata.str1.4
                0x0000000000114008       0x4d binaries/xsh_ipaddr.o
                                         0x99 (size before relaxing)
 .rodata.str1.1
                0x0000000000114055       0x78 binaries/xsh_kill.o
                                         0x97 (size before relaxing)
 *fill*         0x00000000001140cd        0x3 
 .rodata.str1.4
                0x00000000001140d0       0x4a binaries/xsh_kill.o
                                         0x96 (size before relaxing)
 .rodata.str1.1
                0x000000000011411a       0x84 binaries/xsh_memdump.o
                                         0xa8 (size before relaxing)
 *fill*         0x000000000011419e        0x2 
 .rodata.str1.4
                0x00000000001141a0      0x15a binaries/xsh_memdump.o
                                        0x1aa (size before relaxing)
 .rodata.str1.1
                0x00000000001142fa       0x40 binaries/xsh_memstat.o
                                         0x79 (size before relaxing)
 *fill*         0x000000000011433a        0x2 
 .rodata.str1.4
                0x000000000011433c      0x187 binaries/xsh_memstat.o
                                        0x1af (size before relaxing)
 .rodata.str1.1
                0x00000000001144c3       0x90 binaries/xsh_ping.o
                                         0xaf (size before relaxing)
 *fill*         0x0000000000114553        0x1 
 .rodata.str1.4
                0x0000000000114554       0x77 binaries/xsh_ping.o
                                         0xc6 (size before relaxing)
 .rodata.str1.1
                0x00000000001145cb       0x74 binaries/xsh_ps.o
                                         0xd5 (size before relaxing)
 *fill*         0x000000000011463f        0x1 
 .rodata.str1.4
                0x0000000000114640       0x80 binaries/xsh_ps.o
                                         0xd0 (size before relaxing)
 .rodata        0x00000000001146c0       0x20 binaries/xsh_ps.o
 .rodata.str1.1
                0x00000000001146e0       0x31 binaries/xsh_sleep.o
                                         0x72 (size before relaxing)
 *fill*         0x0000000000114711        0x3 
 .rodata.str1.4
                0x0000000000114714       0x2a binaries/xsh_sleep.o
                                         0x7a (size before relaxing)
 .rodata.str1.1
                0x000000000011473e       0x6b binaries/xsh_udpdump.o
                                         0xd2 (size before relaxing)
 *fill*         0x00000000001147a9        0x3 
 .rodata.str1.4
                0x00000000001147ac       0x94 binaries/xsh_udpdump.o
                                         0xe4 (size before relaxing)
 .rodata.str1.1
                0x0000000000114840       0xdb binaries/xsh_udpecho.o
                                         0xfa (size before relaxing)
 *fill*         0x000000000011491b        0x1 
 .rodata.str1.4
                0x000000000011491c       0xc7 binaries/xsh_udpecho.o
                                        0x116 (size before relaxing)
 .rodata.str1.1
                0x00000000001149e3       0x66 binaries/xsh_udpeserver.o
                                         0x8f (size before relaxing)
 *fill*         0x0000000000114a49        0x3 
 .rodata.str1.4
                0x0000000000114a4c       0x29 binaries/xsh_udpeserver.o
                                         0x9f (size before relaxing)
 .rodata.str1.1
                0x0000000000114a75       0x49 binaries/xsh_uptime.o
                                         0x8c (size before relaxing)
 *fill*         0x0000000000114abe        0x2 
 .rodata.str1.4
                0x0000000000114ac0       0x28 binaries/xsh_uptime.o
                                         0x76 (size before relaxing)
                0x0000000000114ae8                etext = ABSOLUTE (.)
                0x0000000000115000                . = ALIGN (0x1000)
 *fill*         0x0000000000114ae8      0x518 

.eh_frame       0x0000000000115000     0x6b3c
 .eh_frame      0x0000000000115000       0x3c binaries/app1.o
 .eh_frame      0x000000000011503c       0x44 binaries/app2.o
                                         0x5c (size before relaxing)
 .eh_frame      0x0000000000115080       0x38 binaries/app3.o
                                         0x50 (size before relaxing)
 .eh_frame      0x00000000001150b8       0x60 binaries/ascdate.o
                                         0x78 (size before relaxing)
 .eh_frame      0x0000000000115118       0x14 binaries/bufinit.o
                                         0x2c (size before relaxing)
 .eh_frame      0x000000000011512c       0x40 binaries/chprio.o
                                         0x58 (size before relaxing)
 .eh_frame      0x000000000011516c       0x18 binaries/clkhandler.o
                                         0x30 (size before relaxing)
 .eh_frame      0x0000000000115184       0x3c binaries/clkinit.o
                                         0x54 (size before relaxing)
 .eh_frame      0x00000000001151c0       0x3c binaries/close.o
                                         0x54 (size before relaxing)
 .eh_frame      0x00000000001151fc       0x44 binaries/control.o
                                         0x5c (size before relaxing)
 .eh_frame      0x0000000000115240       0x5c binaries/create.o
                                         0x74 (size before relaxing)
 .eh_frame      0x000000000011529c      0x148 binaries/early_imr.o
                                        0x160 (size before relaxing)
 .eh_frame      0x00000000001153e4      0x1a8 binaries/evec.o
                                        0x1c0 (size before relaxing)
 .eh_frame      0x000000000011558c       0xb0 binaries/f1.o
                                         0xc8 (size before relaxing)
 .eh_frame      0x000000000011563c       0x50 binaries/freebuf.o
                                         0x68 (size before relaxing)
 .eh_frame      0x000000000011568c       0x58 binaries/freemem.o
                                         0x70 (size before relaxing)
 .eh_frame      0x00000000001156e4       0x40 binaries/getbuf.o
                                         0x58 (size before relaxing)
 .eh_frame      0x0000000000115724       0x3c binaries/getc.o
                                         0x54 (size before relaxing)
 .eh_frame      0x0000000000115760       0x5c binaries/getdev.o
                                         0x74 (size before relaxing)
 .eh_frame      0x00000000001157bc       0x4c binaries/getitem.o
                                         0x64 (size before relaxing)
 .eh_frame      0x0000000000115808       0x50 binaries/getmem.o
                                         0x68 (size before relaxing)
 .eh_frame      0x0000000000115858       0x14 binaries/getpid.o
                                         0x2c (size before relaxing)
 .eh_frame      0x000000000011586c       0x14 binaries/getppid.o
                                         0x2c (size before relaxing)
 .eh_frame      0x0000000000115880       0x34 binaries/getprio.o
                                         0x4c (size before relaxing)
 .eh_frame      0x00000000001158b4       0x58 binaries/getstk.o
                                         0x70 (size before relaxing)
 .eh_frame      0x000000000011590c       0x20 binaries/gettime.o
                                         0x38 (size before relaxing)
 .eh_frame      0x000000000011592c       0x8c binaries/getutime.o
                                         0xa4 (size before relaxing)
 .eh_frame      0x00000000001159b8       0x14 binaries/host2netlb.o
                                         0x2c (size before relaxing)
 .eh_frame      0x00000000001159cc       0x3c binaries/init.o
                                         0x54 (size before relaxing)
 .eh_frame      0x0000000000115a08       0xdc binaries/initialize.o
                                         0xf4 (size before relaxing)
 .eh_frame      0x0000000000115ae4       0x24 binaries/insert.o
                                         0x3c (size before relaxing)
 .eh_frame      0x0000000000115b08       0x38 binaries/insertd.o
                                         0x50 (size before relaxing)
 .eh_frame      0x0000000000115b40       0x14 binaries/ioerr.o
                                         0x2c (size before relaxing)
 .eh_frame      0x0000000000115b54       0x14 binaries/ionull.o
                                         0x2c (size before relaxing)
 .eh_frame      0x0000000000115b68       0x78 binaries/kill.o
                                         0x90 (size before relaxing)
 .eh_frame      0x0000000000115be0       0x80 binaries/kprintf.o
                                         0x98 (size before relaxing)
 .eh_frame      0x0000000000115c60       0x3c binaries/main.o
                                         0x54 (size before relaxing)
 .eh_frame      0x0000000000115c9c       0x4c binaries/mark.o
                                         0x64 (size before relaxing)
 .eh_frame      0x0000000000115ce8       0x74 binaries/meminit.o
                                         0x8c (size before relaxing)
 .eh_frame      0x0000000000115d5c       0x74 binaries/mkbufpool.o
                                         0x8c (size before relaxing)
 .eh_frame      0x0000000000115dd0       0x60 binaries/myappA.o
                                         0x78 (size before relaxing)
 .eh_frame      0x0000000000115e30       0x40 binaries/myfuncA.o
                                         0x58 (size before relaxing)
 .eh_frame      0x0000000000115e70       0x50 binaries/myhacker.o
                                         0x68 (size before relaxing)
 .eh_frame      0x0000000000115ec0       0x68 binaries/myvictim.o
                                         0x80 (size before relaxing)
 .eh_frame      0x0000000000115f28       0x1c binaries/mywelcomemsg.o
                                         0x34 (size before relaxing)
 .eh_frame      0x0000000000115f44       0x14 binaries/newqueue.o
                                         0x2c (size before relaxing)
 .eh_frame      0x0000000000115f58       0x44 binaries/open.o
                                         0x5c (size before relaxing)
 .eh_frame      0x0000000000115f9c       0x20 binaries/panic.o
                                         0x38 (size before relaxing)
 .eh_frame      0x0000000000115fbc       0xec binaries/pci.o
                                        0x104 (size before relaxing)
 .eh_frame      0x00000000001160a8       0x38 binaries/platinit.o
                                         0x50 (size before relaxing)
 .eh_frame      0x00000000001160e0       0x80 binaries/printprstate.o
                                         0x98 (size before relaxing)
 .eh_frame      0x0000000000116160       0x8c binaries/prntsegaddr.o
                                         0xa4 (size before relaxing)
 .eh_frame      0x00000000001161ec       0x68 binaries/ptclear.o
                                         0x80 (size before relaxing)
 .eh_frame      0x0000000000116254       0x50 binaries/ptcount.o
                                         0x68 (size before relaxing)
 .eh_frame      0x00000000001162a4       0x60 binaries/ptcreate.o
                                         0x78 (size before relaxing)
 .eh_frame      0x0000000000116304       0x44 binaries/ptdelete.o
                                         0x5c (size before relaxing)
 .eh_frame      0x0000000000116348       0x3c binaries/ptinit.o
                                         0x54 (size before relaxing)
 .eh_frame      0x0000000000116384       0x54 binaries/ptrecv.o
                                         0x6c (size before relaxing)
 .eh_frame      0x00000000001163d8       0x44 binaries/ptreset.o
                                         0x5c (size before relaxing)
 .eh_frame      0x000000000011641c       0x5c binaries/ptsend.o
                                         0x74 (size before relaxing)
 .eh_frame      0x0000000000116478       0x44 binaries/putc.o
                                         0x5c (size before relaxing)
 .eh_frame      0x00000000001164bc       0x60 binaries/quark_irq.o
                                         0x78 (size before relaxing)
 .eh_frame      0x000000000011651c       0xd0 binaries/quark_pdat.o
                                         0xe8 (size before relaxing)
 .eh_frame      0x00000000001165ec       0x3c binaries/queue.o
                                         0x54 (size before relaxing)
 .eh_frame      0x0000000000116628       0x44 binaries/read.o
                                         0x5c (size before relaxing)
 .eh_frame      0x000000000011666c       0x28 binaries/ready.o
                                         0x40 (size before relaxing)
 .eh_frame      0x0000000000116694       0x38 binaries/receive.o
                                         0x50 (size before relaxing)
 .eh_frame      0x00000000001166cc       0x28 binaries/recvclr.o
                                         0x40 (size before relaxing)
 .eh_frame      0x00000000001166f4       0x50 binaries/recvtime.o
                                         0x68 (size before relaxing)
 .eh_frame      0x0000000000116744       0x64 binaries/resched.o
                                         0x7c (size before relaxing)
 .eh_frame      0x00000000001167a8       0x48 binaries/resume.o
                                         0x60 (size before relaxing)
 .eh_frame      0x00000000001167f0       0x40 binaries/seek.o
                                         0x58 (size before relaxing)
 .eh_frame      0x0000000000116830       0x34 binaries/semcount.o
                                         0x4c (size before relaxing)
 .eh_frame      0x0000000000116864       0x40 binaries/semcreate.o
                                         0x58 (size before relaxing)
 .eh_frame      0x00000000001168a4       0x5c binaries/semdelete.o
                                         0x74 (size before relaxing)
 .eh_frame      0x0000000000116900       0x68 binaries/semreset.o
                                         0x80 (size before relaxing)
 .eh_frame      0x0000000000116968       0x58 binaries/send.o
                                         0x70 (size before relaxing)
 .eh_frame      0x00000000001169c0       0x50 binaries/signal.o
                                         0x68 (size before relaxing)
 .eh_frame      0x0000000000116a10       0x5c binaries/signaln.o
                                         0x74 (size before relaxing)
 .eh_frame      0x0000000000116a6c       0x74 binaries/sleep.o
                                         0x8c (size before relaxing)
 .eh_frame      0x0000000000116ae0       0x4c binaries/stackdepth.o
                                         0x64 (size before relaxing)
 .eh_frame      0x0000000000116b2c       0x9c binaries/stacktrace.o
                                         0xb4 (size before relaxing)
 .eh_frame      0x0000000000116bc8       0x50 binaries/suspend.o
                                         0x68 (size before relaxing)
 .eh_frame      0x0000000000116c18       0x44 binaries/unsleep.o
                                         0x5c (size before relaxing)
 .eh_frame      0x0000000000116c5c       0x20 binaries/userret.o
                                         0x38 (size before relaxing)
 .eh_frame      0x0000000000116c7c       0x54 binaries/wait.o
                                         0x6c (size before relaxing)
 .eh_frame      0x0000000000116cd0       0x2c binaries/wakeup.o
                                         0x44 (size before relaxing)
 .eh_frame      0x0000000000116cfc       0x44 binaries/write.o
                                         0x5c (size before relaxing)
 .eh_frame      0x0000000000116d40       0x1c binaries/xdone.o
                                         0x34 (size before relaxing)
 .eh_frame      0x0000000000116d5c       0x28 binaries/yield.o
                                         0x40 (size before relaxing)
 .eh_frame      0x0000000000116d84       0x14 binaries/abs.o
                                         0x2c (size before relaxing)
 .eh_frame      0x0000000000116d98       0x24 binaries/atoi.o
                                         0x3c (size before relaxing)
 .eh_frame      0x0000000000116dbc       0x24 binaries/atol.o
                                         0x3c (size before relaxing)
 .eh_frame      0x0000000000116de0       0x14 binaries/bzero.o
                                         0x2c (size before relaxing)
 .eh_frame      0x0000000000116df4      0x130 binaries/doprnt.o
                                        0x148 (size before relaxing)
 .eh_frame      0x0000000000116f24      0x104 binaries/doscan.o
                                        0x11c (size before relaxing)
 .eh_frame      0x0000000000117028      0x110 binaries/fdoprnt.o
                                        0x128 (size before relaxing)
 .eh_frame      0x0000000000117138       0x20 binaries/fgetc.o
                                         0x38 (size before relaxing)
 .eh_frame      0x0000000000117158       0x44 binaries/fgets.o
                                         0x5c (size before relaxing)
 .eh_frame      0x000000000011719c       0x24 binaries/fprintf.o
                                         0x3c (size before relaxing)
 .eh_frame      0x00000000001171c0       0x20 binaries/fputc.o
                                         0x38 (size before relaxing)
 .eh_frame      0x00000000001171e0       0x38 binaries/fputs.o
                                         0x50 (size before relaxing)
 .eh_frame      0x0000000000117218       0x6c binaries/fscanf.o
                                         0x84 (size before relaxing)
 .eh_frame      0x0000000000117284       0x1c binaries/getchar.o
                                         0x34 (size before relaxing)
 .eh_frame      0x00000000001172a0       0x14 binaries/labs.o
                                         0x2c (size before relaxing)
 .eh_frame      0x00000000001172b4       0x14 binaries/memchr.o
                                         0x2c (size before relaxing)
 .eh_frame      0x00000000001172c8       0x24 binaries/memcmp.o
                                         0x3c (size before relaxing)
 .eh_frame      0x00000000001172ec       0x24 binaries/memcpy.o
                                         0x3c (size before relaxing)
 .eh_frame      0x0000000000117310       0x1c binaries/memset.o
                                         0x34 (size before relaxing)
 .eh_frame      0x000000000011732c       0x24 binaries/printf.o
                                         0x3c (size before relaxing)
 .eh_frame      0x0000000000117350       0x20 binaries/putchar.o
                                         0x38 (size before relaxing)
 .eh_frame      0x0000000000117370       0xc0 binaries/qsort.o
                                         0xd8 (size before relaxing)
 .eh_frame      0x0000000000117430       0x28 binaries/rand.o
                                         0x40 (size before relaxing)
 .eh_frame      0x0000000000117458       0x48 binaries/sprintf.o
                                         0x60 (size before relaxing)
 .eh_frame      0x00000000001174a0       0x54 binaries/sscanf.o
                                         0x6c (size before relaxing)
 .eh_frame      0x00000000001174f4       0x1c binaries/strchr.o
                                         0x34 (size before relaxing)
 .eh_frame      0x0000000000117510       0x1c binaries/strcmp.o
                                         0x34 (size before relaxing)
 .eh_frame      0x000000000011752c       0x14 binaries/strcpy.o
                                         0x2c (size before relaxing)
 .eh_frame      0x0000000000117540       0x14 binaries/strlen.o
                                         0x2c (size before relaxing)
 .eh_frame      0x0000000000117554       0x2c binaries/strncat.o
                                         0x44 (size before relaxing)
 .eh_frame      0x0000000000117580       0x1c binaries/strncmp.o
                                         0x34 (size before relaxing)
 .eh_frame      0x000000000011759c       0x30 binaries/strncpy.o
                                         0x48 (size before relaxing)
 .eh_frame      0x00000000001175cc       0x1c binaries/strnlen.o
                                         0x34 (size before relaxing)
 .eh_frame      0x00000000001175e8       0x1c binaries/strrchr.o
                                         0x34 (size before relaxing)
 .eh_frame      0x0000000000117604       0x38 binaries/strstr.o
                                         0x50 (size before relaxing)
 .eh_frame      0x000000000011763c       0x48 binaries/ttycontrol.o
                                         0x60 (size before relaxing)
 .eh_frame      0x0000000000117684       0x38 binaries/ttygetc.o
                                         0x50 (size before relaxing)
 .eh_frame      0x00000000001176bc       0xd8 binaries/ttyhandle_in.o
                                         0xf0 (size before relaxing)
 .eh_frame      0x0000000000117794       0x64 binaries/ttyhandle_out.o
                                         0x7c (size before relaxing)
 .eh_frame      0x00000000001177f8       0x54 binaries/ttyhandler.o
                                         0x6c (size before relaxing)
 .eh_frame      0x000000000011784c       0x48 binaries/ttyinit.o
                                         0x60 (size before relaxing)
 .eh_frame      0x0000000000117894       0x14 binaries/ttykickout.o
                                         0x2c (size before relaxing)
 .eh_frame      0x00000000001178a8       0x58 binaries/ttyputc.o
                                         0x70 (size before relaxing)
 .eh_frame      0x0000000000117900       0x60 binaries/ttyread.o
                                         0x78 (size before relaxing)
 .eh_frame      0x0000000000117960       0x38 binaries/ttywrite.o
                                         0x50 (size before relaxing)
 .eh_frame      0x0000000000117998       0x78 binaries/mount.o
                                         0x90 (size before relaxing)
 .eh_frame      0x0000000000117a10       0xe4 binaries/naminit.o
                                         0xfc (size before relaxing)
 .eh_frame      0x0000000000117af4       0xe8 binaries/nammap.o
                                        0x100 (size before relaxing)
 .eh_frame      0x0000000000117bdc       0x3c binaries/namopen.o
                                         0x54 (size before relaxing)
 .eh_frame      0x0000000000117c18       0x3c binaries/colon2mac.o
                                         0x54 (size before relaxing)
 .eh_frame      0x0000000000117c54       0x40 binaries/ethcontrol.o
                                         0x58 (size before relaxing)
 .eh_frame      0x0000000000117c94       0x58 binaries/ethhandler.o
                                         0x70 (size before relaxing)
 .eh_frame      0x0000000000117cec      0x14c binaries/ethinit.o
                                        0x164 (size before relaxing)
 .eh_frame      0x0000000000117e38       0xa0 binaries/ethmcast.o
                                         0xb8 (size before relaxing)
 .eh_frame      0x0000000000117ed8       0x80 binaries/ethread.o
                                         0x98 (size before relaxing)
 .eh_frame      0x0000000000117f58       0x44 binaries/ethwrite.o
                                         0x5c (size before relaxing)
 .eh_frame      0x0000000000117f9c       0x30 binaries/rdsbufalloc.o
                                         0x48 (size before relaxing)
 .eh_frame      0x0000000000117fcc       0x3c binaries/rdsclose.o
                                         0x54 (size before relaxing)
 .eh_frame      0x0000000000118008       0x8c binaries/rdscomm.o
                                         0xa4 (size before relaxing)
 .eh_frame      0x0000000000118094       0xb0 binaries/rdscontrol.o
                                         0xc8 (size before relaxing)
 .eh_frame      0x0000000000118144       0x90 binaries/rdsinit.o
                                         0xa8 (size before relaxing)
 .eh_frame      0x00000000001181d4       0x74 binaries/rdsopen.o
                                         0x8c (size before relaxing)
 .eh_frame      0x0000000000118248       0xf8 binaries/rdsprocess.o
                                        0x110 (size before relaxing)
 .eh_frame      0x0000000000118340       0x7c binaries/rdsread.o
                                         0x94 (size before relaxing)
 .eh_frame      0x00000000001183bc       0x80 binaries/rdswrite.o
                                         0x98 (size before relaxing)
 .eh_frame      0x000000000011843c       0x14 binaries/ramclose.o
                                         0x2c (size before relaxing)
 .eh_frame      0x0000000000118450       0x2c binaries/raminit.o
                                         0x44 (size before relaxing)
 .eh_frame      0x000000000011847c       0x14 binaries/ramopen.o
                                         0x2c (size before relaxing)
 .eh_frame      0x0000000000118490       0x20 binaries/ramread.o
                                         0x38 (size before relaxing)
 .eh_frame      0x00000000001184b0       0x20 binaries/ramwrite.o
                                         0x38 (size before relaxing)
 .eh_frame      0x00000000001184d0       0x64 binaries/lfdballoc.o
                                         0x7c (size before relaxing)
 .eh_frame      0x0000000000118534       0x40 binaries/lfdbfree.o
                                         0x58 (size before relaxing)
 .eh_frame      0x0000000000118574       0x50 binaries/lfflush.o
                                         0x68 (size before relaxing)
 .eh_frame      0x00000000001185c4       0x14 binaries/lfgetmode.o
                                         0x2c (size before relaxing)
 .eh_frame      0x00000000001185d8       0x44 binaries/lfiballoc.o
                                         0x5c (size before relaxing)
 .eh_frame      0x000000000011861c       0x14 binaries/lfibclear.o
                                         0x2c (size before relaxing)
 .eh_frame      0x0000000000118630       0x4c binaries/lfibget.o
                                         0x64 (size before relaxing)
 .eh_frame      0x000000000011867c       0x68 binaries/lfibput.o
                                         0x80 (size before relaxing)
 .eh_frame      0x00000000001186e4       0x4c binaries/lflclose.o
                                         0x64 (size before relaxing)
 .eh_frame      0x0000000000118730       0x68 binaries/lflcontrol.o
                                         0x80 (size before relaxing)
 .eh_frame      0x0000000000118798       0x5c binaries/lflgetc.o
                                         0x74 (size before relaxing)
 .eh_frame      0x00000000001187f4       0x50 binaries/lflinit.o
                                         0x68 (size before relaxing)
 .eh_frame      0x0000000000118844       0x68 binaries/lflputc.o
                                         0x80 (size before relaxing)
 .eh_frame      0x00000000001188ac       0x44 binaries/lflread.o
                                         0x5c (size before relaxing)
 .eh_frame      0x00000000001188f0       0x50 binaries/lflseek.o
                                         0x68 (size before relaxing)
 .eh_frame      0x0000000000118940       0x48 binaries/lflwrite.o
                                         0x60 (size before relaxing)
 .eh_frame      0x0000000000118988       0xc8 binaries/lfsckfmt.o
                                         0xe0 (size before relaxing)
 .eh_frame      0x0000000000118a50       0xd4 binaries/lfscreate.o
                                         0xec (size before relaxing)
 .eh_frame      0x0000000000118b24       0xbc binaries/lfsetup.o
                                         0xd4 (size before relaxing)
 .eh_frame      0x0000000000118be0       0x28 binaries/lfsinit.o
                                         0x40 (size before relaxing)
 .eh_frame      0x0000000000118c08       0x90 binaries/lfsopen.o
                                         0xa8 (size before relaxing)
 .eh_frame      0x0000000000118c98       0x84 binaries/lftruncate.o
                                         0x9c (size before relaxing)
 .eh_frame      0x0000000000118d1c       0x30 binaries/rflclose.o
                                         0x48 (size before relaxing)
 .eh_frame      0x0000000000118d4c       0x24 binaries/rflgetc.o
                                         0x3c (size before relaxing)
 .eh_frame      0x0000000000118d70       0x1c binaries/rflinit.o
                                         0x34 (size before relaxing)
 .eh_frame      0x0000000000118d8c       0x24 binaries/rflputc.o
                                         0x3c (size before relaxing)
 .eh_frame      0x0000000000118db0       0xd8 binaries/rflread.o
                                         0xf0 (size before relaxing)
 .eh_frame      0x0000000000118e88       0x30 binaries/rflseek.o
                                         0x48 (size before relaxing)
 .eh_frame      0x0000000000118eb8       0xcc binaries/rflwrite.o
                                         0xe4 (size before relaxing)
 .eh_frame      0x0000000000118f84       0x88 binaries/rfscomm.o
                                         0xa0 (size before relaxing)
 .eh_frame      0x000000000011900c      0x110 binaries/rfscontrol.o
                                        0x128 (size before relaxing)
 .eh_frame      0x000000000011911c       0x14 binaries/rfsgetmode.o
                                         0x2c (size before relaxing)
 .eh_frame      0x0000000000119130       0x3c binaries/rfsinit.o
                                         0x54 (size before relaxing)
 .eh_frame      0x000000000011916c       0x3c binaries/rfsndmsg.o
                                         0x54 (size before relaxing)
 .eh_frame      0x00000000001191a8       0xd0 binaries/rfsopen.o
                                         0xe8 (size before relaxing)
 .eh_frame      0x0000000000119278      0x244 binaries/arp.o
                                        0x25c (size before relaxing)
 .eh_frame      0x00000000001194bc      0x264 binaries/dhcp.o
                                        0x27c (size before relaxing)
 .eh_frame      0x0000000000119720       0x38 binaries/dot2ip.o
                                         0x50 (size before relaxing)
 .eh_frame      0x0000000000119758      0x1b0 binaries/hexdump.o
                                        0x1c8 (size before relaxing)
 .eh_frame      0x0000000000119908      0x2e0 binaries/icmp.o
                                        0x2f8 (size before relaxing)
 .eh_frame      0x0000000000119be8      0x2a4 binaries/ip.o
                                        0x2bc (size before relaxing)
 .eh_frame      0x0000000000119e8c      0x114 binaries/net.o
                                        0x12c (size before relaxing)
 .eh_frame      0x0000000000119fa0       0x64 binaries/netstart.o
                                         0x7c (size before relaxing)
 .eh_frame      0x000000000011a004      0x380 binaries/pdump.o
                                        0x398 (size before relaxing)
 .eh_frame      0x000000000011a384      0x25c binaries/tftp.o
                                        0x274 (size before relaxing)
 .eh_frame      0x000000000011a5e0      0x34c binaries/udp.o
                                        0x364 (size before relaxing)
 .eh_frame      0x000000000011a92c       0x68 binaries/addargs.o
                                         0x80 (size before relaxing)
 .eh_frame      0x000000000011a994       0x38 binaries/lexan.o
                                         0x50 (size before relaxing)
 .eh_frame      0x000000000011a9cc      0x24c binaries/shell.o
                                        0x264 (size before relaxing)
 .eh_frame      0x000000000011ac18       0x50 binaries/xsh_argecho.o
                                         0x68 (size before relaxing)
 .eh_frame      0x000000000011ac68       0xe0 binaries/xsh_arp.o
                                         0xf8 (size before relaxing)
 .eh_frame      0x000000000011ad48       0xac binaries/xsh_cat.o
                                         0xc4 (size before relaxing)
 .eh_frame      0x000000000011adf4       0x30 binaries/xsh_clear.o
                                         0x48 (size before relaxing)
 .eh_frame      0x000000000011ae24       0xdc binaries/xsh_date.o
                                         0xf4 (size before relaxing)
 .eh_frame      0x000000000011af00       0x50 binaries/xsh_devdump.o
                                         0x68 (size before relaxing)
 .eh_frame      0x000000000011af50       0x50 binaries/xsh_echo.o
                                         0x68 (size before relaxing)
 .eh_frame      0x000000000011afa0       0x14 binaries/xsh_exit.o
                                         0x2c (size before relaxing)
 .eh_frame      0x000000000011afb4       0xd4 binaries/xsh_help.o
                                         0xec (size before relaxing)
 .eh_frame      0x000000000011b088      0x174 binaries/xsh_ipaddr.o
                                        0x18c (size before relaxing)
 .eh_frame      0x000000000011b1fc       0x98 binaries/xsh_kill.o
                                         0xb0 (size before relaxing)
 .eh_frame      0x000000000011b294      0x128 binaries/xsh_memdump.o
                                        0x140 (size before relaxing)
 .eh_frame      0x000000000011b3bc       0xac binaries/xsh_memstat.o
                                         0xc4 (size before relaxing)
 .eh_frame      0x000000000011b468      0x100 binaries/xsh_ping.o
                                        0x118 (size before relaxing)
 .eh_frame      0x000000000011b568       0xc8 binaries/xsh_ps.o
                                         0xe0 (size before relaxing)
 .eh_frame      0x000000000011b630       0x98 binaries/xsh_sleep.o
                                         0xb0 (size before relaxing)
 .eh_frame      0x000000000011b6c8       0xd0 binaries/xsh_udpdump.o
                                         0xe8 (size before relaxing)
 .eh_frame      0x000000000011b798      0x1ac binaries/xsh_udpecho.o
                                        0x1c4 (size before relaxing)
 .eh_frame      0x000000000011b944      0x124 binaries/xsh_udpeserver.o
                                        0x13c (size before relaxing)
 .eh_frame      0x000000000011ba68       0xb4 binaries/xsh_uptime.o
                                         0xcc (size before relaxing)
 .eh_frame      0x000000000011bb1c       0x20 binaries/host2netlc.o
                                         0x38 (size before relaxing)

.iplt           0x000000000011bb40        0x0
 .iplt          0x000000000011bb40        0x0 binaries/start.o

.rel.dyn        0x000000000011bb3c        0x0
 .rel.iplt      0x000000000011bb3c        0x0 binaries/start.o
 .rel.text      0x000000000011bb3c        0x0 binaries/start.o
 .rel.data      0x000000000011bb3c        0x0 binaries/start.o
 .rel.rodata    0x000000000011bb3c        0x0 binaries/start.o

.data           0x000000000011bb40     0x14c0
                0x000000000011bb40                data = ABSOLUTE (.)
 *(.data .data.*)
 .data          0x000000000011bb40      0x85a binaries/start.o
                0x000000000011bb40                gdt
                0x000000000011bb90                idt
                0x000000000011c396                cpudelay
 .data          0x000000000011c39a        0x0 binaries/app1.o
 .data          0x000000000011c39a        0x0 binaries/app2.o
 .data          0x000000000011c39a        0x0 binaries/app3.o
 *fill*         0x000000000011c39a        0x6 
 .data          0x000000000011c3a0       0x88 binaries/ascdate.o
                0x000000000011c3a0                Date
 .data          0x000000000011c428        0x0 binaries/bufinit.o
 .data          0x000000000011c428        0x0 binaries/chprio.o
 .data          0x000000000011c428        0x4 binaries/clkhandler.o
 .data          0x000000000011c42c        0x0 binaries/clkinit.o
 .data          0x000000000011c42c        0x0 binaries/close.o
 *fill*         0x000000000011c42c       0x14 
 .data          0x000000000011c440      0x30c binaries/conf.o
                0x000000000011c440                devtab
 .data          0x000000000011c74c        0x0 binaries/control.o
 .data          0x000000000011c74c        0x4 binaries/create.o
 .data          0x000000000011c750        0x0 binaries/early_imr.o
 *fill*         0x000000000011c750       0x10 
 .data          0x000000000011c760       0x40 binaries/evec.o
                0x000000000011c760                inames
 .data          0x000000000011c7a0        0x0 binaries/f1.o
 .data          0x000000000011c7a0        0x0 binaries/freebuf.o
 .data          0x000000000011c7a0        0x0 binaries/freemem.o
 .data          0x000000000011c7a0        0x0 binaries/getbuf.o
 .data          0x000000000011c7a0        0x0 binaries/getc.o
 .data          0x000000000011c7a0        0x0 binaries/getdev.o
 .data          0x000000000011c7a0        0x0 binaries/getitem.o
 .data          0x000000000011c7a0        0x0 binaries/getmem.o
 .data          0x000000000011c7a0        0x0 binaries/getpid.o
 .data          0x000000000011c7a0        0x0 binaries/getppid.o
 .data          0x000000000011c7a0        0x0 binaries/getprio.o
 .data          0x000000000011c7a0        0x0 binaries/getstk.o
 .data          0x000000000011c7a0        0x0 binaries/gettime.o
 .data          0x000000000011c7a0        0x0 binaries/getutime.o
 .data          0x000000000011c7a0        0x0 binaries/host2netlb.o
 .data          0x000000000011c7a0        0x0 binaries/init.o
 .data          0x000000000011c7a0        0x0 binaries/initialize.o
 .data          0x000000000011c7a0        0x0 binaries/insert.o
 .data          0x000000000011c7a0        0x0 binaries/insertd.o
 .data          0x000000000011c7a0        0x0 binaries/ioerr.o
 .data          0x000000000011c7a0        0x0 binaries/ionull.o
 .data          0x000000000011c7a0        0x0 binaries/kill.o
 .data          0x000000000011c7a0        0x0 binaries/kprintf.o
 .data          0x000000000011c7a0        0x0 binaries/main.o
 .data          0x000000000011c7a0        0x0 binaries/mark.o
 .data          0x000000000011c7a0       0x48 binaries/meminit.o
                0x000000000011c7a0                gdt_copy
                0x000000000011c7e0                bootinfo
                0x000000000011c7e4                bootsign
 .data          0x000000000011c7e8        0x0 binaries/mkbufpool.o
 .data          0x000000000011c7e8        0x0 binaries/myappA.o
 .data          0x000000000011c7e8        0x0 binaries/myfuncA.o
 .data          0x000000000011c7e8        0x0 binaries/myhacker.o
 .data          0x000000000011c7e8        0x0 binaries/myvictim.o
 .data          0x000000000011c7e8        0x0 binaries/mywelcomemsg.o
 .data          0x000000000011c7e8        0x2 binaries/newqueue.o
 .data          0x000000000011c7ea        0x0 binaries/open.o
 .data          0x000000000011c7ea        0x0 binaries/panic.o
 .data          0x000000000011c7ea        0x0 binaries/pci.o
 .data          0x000000000011c7ea        0x0 binaries/platinit.o
 .data          0x000000000011c7ea        0x0 binaries/printprstate.o
 .data          0x000000000011c7ea        0x0 binaries/prntsegaddr.o
 .data          0x000000000011c7ea        0x0 binaries/ptclear.o
 .data          0x000000000011c7ea        0x0 binaries/ptcount.o
 .data          0x000000000011c7ea        0x0 binaries/ptcreate.o
 .data          0x000000000011c7ea        0x0 binaries/ptdelete.o
 .data          0x000000000011c7ea        0x0 binaries/ptinit.o
 .data          0x000000000011c7ea        0x0 binaries/ptrecv.o
 .data          0x000000000011c7ea        0x0 binaries/ptreset.o
 .data          0x000000000011c7ea        0x0 binaries/ptsend.o
 .data          0x000000000011c7ea        0x0 binaries/putc.o
 .data          0x000000000011c7ea        0x0 binaries/quark_irq.o
 .data          0x000000000011c7ea        0x0 binaries/quark_pdat.o
 .data          0x000000000011c7ea        0x0 binaries/queue.o
 .data          0x000000000011c7ea        0x0 binaries/read.o
 .data          0x000000000011c7ea        0x0 binaries/ready.o
 .data          0x000000000011c7ea        0x0 binaries/receive.o
 .data          0x000000000011c7ea        0x0 binaries/recvclr.o
 .data          0x000000000011c7ea        0x0 binaries/recvtime.o
 .data          0x000000000011c7ea        0x0 binaries/resched.o
 .data          0x000000000011c7ea        0x0 binaries/resume.o
 .data          0x000000000011c7ea        0x0 binaries/seek.o
 .data          0x000000000011c7ea        0x0 binaries/semcount.o
 .data          0x000000000011c7ea        0x0 binaries/semcreate.o
 .data          0x000000000011c7ea        0x0 binaries/semdelete.o
 .data          0x000000000011c7ea        0x0 binaries/semreset.o
 .data          0x000000000011c7ea        0x0 binaries/send.o
 .data          0x000000000011c7ea        0x0 binaries/signal.o
 .data          0x000000000011c7ea        0x0 binaries/signaln.o
 .data          0x000000000011c7ea        0x0 binaries/sleep.o
 .data          0x000000000011c7ea        0x0 binaries/stackdepth.o
 .data          0x000000000011c7ea        0x0 binaries/stacktrace.o
 .data          0x000000000011c7ea        0x0 binaries/suspend.o
 .data          0x000000000011c7ea        0x0 binaries/unsleep.o
 .data          0x000000000011c7ea        0x0 binaries/userret.o
 .data          0x000000000011c7ea        0x0 binaries/wait.o
 .data          0x000000000011c7ea        0x0 binaries/wakeup.o
 .data          0x000000000011c7ea        0x0 binaries/write.o
 .data          0x000000000011c7ea        0x0 binaries/xdone.o
 .data          0x000000000011c7ea        0x0 binaries/yield.o
 .data          0x000000000011c7ea        0x0 binaries/abs.o
 .data          0x000000000011c7ea        0x0 binaries/atoi.o
 .data          0x000000000011c7ea        0x0 binaries/atol.o
 .data          0x000000000011c7ea        0x0 binaries/bzero.o
 .data          0x000000000011c7ea        0x0 binaries/ctype_.o
 .data          0x000000000011c7ea        0x0 binaries/doprnt.o
 *fill*         0x000000000011c7ea       0x16 
 .data          0x000000000011c800       0x80 binaries/doscan.o
                0x000000000011c800                _sctab
 .data          0x000000000011c880        0x0 binaries/fdoprnt.o
 .data          0x000000000011c880        0x0 binaries/fgetc.o
 .data          0x000000000011c880        0x0 binaries/fgets.o
 .data          0x000000000011c880        0x0 binaries/fprintf.o
 .data          0x000000000011c880        0x0 binaries/fputc.o
 .data          0x000000000011c880        0x0 binaries/fputs.o
 .data          0x000000000011c880        0x0 binaries/fscanf.o
 .data          0x000000000011c880        0x0 binaries/getchar.o
 .data          0x000000000011c880        0x0 binaries/labs.o
 .data          0x000000000011c880        0x0 binaries/memchr.o
 .data          0x000000000011c880        0x0 binaries/memcmp.o
 .data          0x000000000011c880        0x0 binaries/memcpy.o
 .data          0x000000000011c880        0x0 binaries/memset.o
 .data          0x000000000011c880        0x0 binaries/printf.o
 .data          0x000000000011c880        0x0 binaries/putchar.o
 .data          0x000000000011c880        0x0 binaries/qsort.o
 .data          0x000000000011c880        0x4 binaries/rand.o
 .data          0x000000000011c884        0x0 binaries/sprintf.o
 .data          0x000000000011c884        0x0 binaries/sscanf.o
 .data          0x000000000011c884        0x0 binaries/strchr.o
 .data          0x000000000011c884        0x0 binaries/strcmp.o
 .data          0x000000000011c884        0x0 binaries/strcpy.o
 .data          0x000000000011c884        0x0 binaries/strlen.o
 .data          0x000000000011c884        0x0 binaries/strncat.o
 .data          0x000000000011c884        0x0 binaries/strncmp.o
 .data          0x000000000011c884        0x0 binaries/strncpy.o
 .data          0x000000000011c884        0x0 binaries/strnlen.o
 .data          0x000000000011c884        0x0 binaries/strrchr.o
 .data          0x000000000011c884        0x0 binaries/strstr.o
 .data          0x000000000011c884        0x0 binaries/ttycontrol.o
 .data          0x000000000011c884        0x0 binaries/ttygetc.o
 .data          0x000000000011c884        0x0 binaries/ttyhandle_in.o
 .data          0x000000000011c884        0x0 binaries/ttyhandle_out.o
 .data          0x000000000011c884        0x0 binaries/ttyhandler.o
 .data          0x000000000011c884        0x0 binaries/ttyinit.o
 .data          0x000000000011c884        0x0 binaries/ttykickout.o
 .data          0x000000000011c884        0x0 binaries/ttyputc.o
 .data          0x000000000011c884        0x0 binaries/ttyread.o
 .data          0x000000000011c884        0x0 binaries/ttywrite.o
 .data          0x000000000011c884        0x0 binaries/mount.o
 .data          0x000000000011c884        0x0 binaries/naminit.o
 .data          0x000000000011c884        0x0 binaries/nammap.o
 .data          0x000000000011c884        0x0 binaries/namopen.o
 .data          0x000000000011c884        0x0 binaries/colon2mac.o
 .data          0x000000000011c884        0x0 binaries/ethcontrol.o
 .data          0x000000000011c884        0x0 binaries/ethhandler.o
 .data          0x000000000011c884        0x0 binaries/ethinit.o
 .data          0x000000000011c884        0x0 binaries/ethmcast.o
 .data          0x000000000011c884        0x0 binaries/ethread.o
 .data          0x000000000011c884        0x0 binaries/ethwrite.o
 .data          0x000000000011c884        0x0 binaries/rdsbufalloc.o
 .data          0x000000000011c884        0x0 binaries/rdsclose.o
 .data          0x000000000011c884        0x0 binaries/rdscomm.o
 .data          0x000000000011c884        0x0 binaries/rdscontrol.o
 .data          0x000000000011c884        0x0 binaries/rdsinit.o
 .data          0x000000000011c884        0x0 binaries/rdsopen.o
 .data          0x000000000011c884        0x0 binaries/rdsprocess.o
 .data          0x000000000011c884        0x0 binaries/rdsread.o
 .data          0x000000000011c884        0x0 binaries/rdswrite.o
 .data          0x000000000011c884        0x0 binaries/ramclose.o
 .data          0x000000000011c884        0x0 binaries/raminit.o
 .data          0x000000000011c884        0x0 binaries/ramopen.o
 .data          0x000000000011c884        0x0 binaries/ramread.o
 .data          0x000000000011c884        0x0 binaries/ramwrite.o
 .data          0x000000000011c884        0x0 binaries/lfdballoc.o
 .data          0x000000000011c884        0x0 binaries/lfdbfree.o
 .data          0x000000000011c884        0x0 binaries/lfflush.o
 .data          0x000000000011c884        0x0 binaries/lfgetmode.o
 .data          0x000000000011c884        0x0 binaries/lfiballoc.o
 .data          0x000000000011c884        0x0 binaries/lfibclear.o
 .data          0x000000000011c884        0x0 binaries/lfibget.o
 .data          0x000000000011c884        0x0 binaries/lfibput.o
 .data          0x000000000011c884        0x0 binaries/lflclose.o
 .data          0x000000000011c884        0x0 binaries/lflcontrol.o
 .data          0x000000000011c884        0x0 binaries/lflgetc.o
 .data          0x000000000011c884        0x0 binaries/lflinit.o
 .data          0x000000000011c884        0x0 binaries/lflputc.o
 .data          0x000000000011c884        0x0 binaries/lflread.o
 .data          0x000000000011c884        0x0 binaries/lflseek.o
 .data          0x000000000011c884        0x0 binaries/lflwrite.o
 .data          0x000000000011c884        0x0 binaries/lfsckfmt.o
 .data          0x000000000011c884        0x0 binaries/lfscreate.o
 .data          0x000000000011c884        0x0 binaries/lfsetup.o
 .data          0x000000000011c884        0x0 binaries/lfsinit.o
 .data          0x000000000011c884        0x0 binaries/lfsopen.o
 .data          0x000000000011c884        0x0 binaries/lftruncate.o
 .data          0x000000000011c884        0x0 binaries/rflclose.o
 .data          0x000000000011c884        0x0 binaries/rflgetc.o
 .data          0x000000000011c884        0x0 binaries/rflinit.o
 .data          0x000000000011c884        0x0 binaries/rflputc.o
 .data          0x000000000011c884        0x0 binaries/rflread.o
 .data          0x000000000011c884        0x0 binaries/rflseek.o
 .data          0x000000000011c884        0x0 binaries/rflwrite.o
 .data          0x000000000011c884        0x0 binaries/rfscomm.o
 .data          0x000000000011c884        0x0 binaries/rfscontrol.o
 .data          0x000000000011c884        0x0 binaries/rfsgetmode.o
 .data          0x000000000011c884        0x0 binaries/rfsinit.o
 .data          0x000000000011c884        0x0 binaries/rfsndmsg.o
 .data          0x000000000011c884        0x0 binaries/rfsopen.o
 .data          0x000000000011c884        0x0 binaries/arp.o
 .data          0x000000000011c884        0x0 binaries/dhcp.o
 .data          0x000000000011c884        0x0 binaries/dot2ip.o
 .data          0x000000000011c884        0x0 binaries/hexdump.o
 .data          0x000000000011c884        0x4 binaries/icmp.o
 .data          0x000000000011c888        0x0 binaries/ip.o
 .data          0x000000000011c888        0x0 binaries/net.o
 .data          0x000000000011c888        0x0 binaries/netstart.o
 .data          0x000000000011c888        0x0 binaries/pdump.o
 .data          0x000000000011c888        0x0 binaries/tftp.o
 .data          0x000000000011c888        0x4 binaries/udp.o
 .data          0x000000000011c88c        0x0 binaries/addargs.o
 .data          0x000000000011c88c        0x0 binaries/lexan.o
 .data          0x000000000011c88c        0x4 binaries/shell.o
                0x000000000011c88c                ncmd
 .data          0x000000000011c890        0x0 binaries/xsh_argecho.o
 .data          0x000000000011c890        0x0 binaries/xsh_arp.o
 .data          0x000000000011c890        0x0 binaries/xsh_cat.o
 .data          0x000000000011c890        0x0 binaries/xsh_clear.o
 .data          0x000000000011c890        0x0 binaries/xsh_date.o
 .data          0x000000000011c890        0x0 binaries/xsh_devdump.o
 .data          0x000000000011c890        0x0 binaries/xsh_echo.o
 .data          0x000000000011c890        0x0 binaries/xsh_exit.o
 .data          0x000000000011c890        0x0 binaries/xsh_help.o
 .data          0x000000000011c890        0x0 binaries/xsh_ipaddr.o
 .data          0x000000000011c890        0x0 binaries/xsh_kill.o
 .data          0x000000000011c890        0x0 binaries/xsh_memdump.o
 .data          0x000000000011c890        0x0 binaries/xsh_memstat.o
 .data          0x000000000011c890        0x0 binaries/xsh_ping.o
 .data          0x000000000011c890        0x0 binaries/xsh_ps.o
 .data          0x000000000011c890        0x0 binaries/xsh_sleep.o
 .data          0x000000000011c890        0x0 binaries/xsh_udpdump.o
 .data          0x000000000011c890        0x0 binaries/xsh_udpecho.o
 .data          0x000000000011c890        0x0 binaries/xsh_udpeserver.o
 .data          0x000000000011c890        0x0 binaries/xsh_uptime.o
 .data          0x000000000011c890        0x0 binaries/clkdisp.o
 .data          0x000000000011c890        0x0 binaries/ctxsw.o
 .data          0x000000000011c890        0x0 binaries/host2netla.o
 .data          0x000000000011c890        0x0 binaries/host2netlc.o
 .data          0x000000000011c890        0x0 binaries/intr.o
 .data          0x000000000011c890        0x0 binaries/ttydispatch.o
 .data          0x000000000011c890        0x0 binaries/ethdispatch.o
                0x000000000011c890                edata = ABSOLUTE (.)
                0x000000000011d000                . = ALIGN (0x1000)
 *fill*         0x000000000011c890      0x770 

.igot.plt       0x000000000011d000        0x0
 .igot.plt      0x000000000011d000        0x0 binaries/start.o

.bss            0x000000000011d000    0x20000
                0x000000000011d000                bss = ABSOLUTE (.)
 *(.bss .bss.*)
 .bss           0x000000000011d000        0x0 binaries/start.o
 .bss           0x000000000011d000        0x0 binaries/app1.o
 .bss           0x000000000011d000        0x0 binaries/app2.o
 .bss           0x000000000011d000        0x0 binaries/app3.o
 .bss           0x000000000011d000        0x0 binaries/ascdate.o
 .bss           0x000000000011d000        0x0 binaries/bufinit.o
 .bss           0x000000000011d000        0x0 binaries/chprio.o
 .bss           0x000000000011d000        0x0 binaries/clkhandler.o
 .bss           0x000000000011d000        0x4 binaries/clkinit.o
                0x000000000011d000                ctr1000
 .bss           0x000000000011d004        0x0 binaries/close.o
 .bss           0x000000000011d004        0x0 binaries/conf.o
 .bss           0x000000000011d004        0x0 binaries/control.o
 .bss           0x000000000011d004        0x0 binaries/create.o
 .bss           0x000000000011d004        0x0 binaries/early_imr.o
 .bss           0x000000000011d004        0x0 binaries/evec.o
 .bss           0x000000000011d004        0x0 binaries/f1.o
 .bss           0x000000000011d004        0x0 binaries/freebuf.o
 .bss           0x000000000011d004        0x0 binaries/freemem.o
 .bss           0x000000000011d004        0x0 binaries/getbuf.o
 .bss           0x000000000011d004        0x0 binaries/getc.o
 .bss           0x000000000011d004        0x0 binaries/getdev.o
 .bss           0x000000000011d004        0x0 binaries/getitem.o
 .bss           0x000000000011d004        0x0 binaries/getmem.o
 .bss           0x000000000011d004        0x0 binaries/getpid.o
 .bss           0x000000000011d004        0x0 binaries/getppid.o
 .bss           0x000000000011d004        0x0 binaries/getprio.o
 .bss           0x000000000011d004        0x0 binaries/getstk.o
 .bss           0x000000000011d004        0x0 binaries/gettime.o
 .bss           0x000000000011d004        0x0 binaries/getutime.o
 .bss           0x000000000011d004        0x0 binaries/host2netlb.o
 .bss           0x000000000011d004        0x0 binaries/init.o
 .bss           0x000000000011d004        0x0 binaries/initialize.o
 .bss           0x000000000011d004        0x0 binaries/insert.o
 .bss           0x000000000011d004        0x0 binaries/insertd.o
 .bss           0x000000000011d004        0x0 binaries/ioerr.o
 .bss           0x000000000011d004        0x0 binaries/ionull.o
 .bss           0x000000000011d004        0x0 binaries/kill.o
 .bss           0x000000000011d004        0x0 binaries/kprintf.o
 .bss           0x000000000011d004        0x8 binaries/main.o
                0x000000000011d004                victimglobal
 .bss           0x000000000011d00c        0x0 binaries/mark.o
 .bss           0x000000000011d00c        0x0 binaries/meminit.o
 .bss           0x000000000011d00c        0x0 binaries/mkbufpool.o
 .bss           0x000000000011d00c        0x4 binaries/myappA.o
 .bss           0x000000000011d010        0x4 binaries/myfuncA.o
 .bss           0x000000000011d014        0x0 binaries/myhacker.o
 .bss           0x000000000011d014        0x0 binaries/myvictim.o
 .bss           0x000000000011d014        0x0 binaries/mywelcomemsg.o
 .bss           0x000000000011d014        0x0 binaries/newqueue.o
 .bss           0x000000000011d014        0x0 binaries/open.o
 .bss           0x000000000011d014        0x0 binaries/panic.o
 .bss           0x000000000011d014        0x0 binaries/pci.o
 .bss           0x000000000011d014        0x0 binaries/platinit.o
 .bss           0x000000000011d014        0x0 binaries/printprstate.o
 .bss           0x000000000011d014        0x0 binaries/prntsegaddr.o
 .bss           0x000000000011d014        0x0 binaries/ptclear.o
 .bss           0x000000000011d014        0x0 binaries/ptcount.o
 .bss           0x000000000011d014        0x0 binaries/ptcreate.o
 .bss           0x000000000011d014        0x0 binaries/ptdelete.o
 .bss           0x000000000011d014        0x0 binaries/ptinit.o
 .bss           0x000000000011d014        0x0 binaries/ptrecv.o
 .bss           0x000000000011d014        0x0 binaries/ptreset.o
 .bss           0x000000000011d014        0x0 binaries/ptsend.o
 .bss           0x000000000011d014        0x0 binaries/putc.o
 .bss           0x000000000011d014        0x0 binaries/quark_irq.o
 .bss           0x000000000011d014        0x0 binaries/quark_pdat.o
 .bss           0x000000000011d014        0x0 binaries/queue.o
 .bss           0x000000000011d014        0x0 binaries/read.o
 .bss           0x000000000011d014        0x0 binaries/ready.o
 .bss           0x000000000011d014        0x0 binaries/receive.o
 .bss           0x000000000011d014        0x0 binaries/recvclr.o
 .bss           0x000000000011d014        0x0 binaries/recvtime.o
 .bss           0x000000000011d014        0x0 binaries/resched.o
 .bss           0x000000000011d014        0x0 binaries/resume.o
 .bss           0x000000000011d014        0x0 binaries/seek.o
 .bss           0x000000000011d014        0x0 binaries/semcount.o
 .bss           0x000000000011d014        0x4 binaries/semcreate.o
 .bss           0x000000000011d018        0x0 binaries/semdelete.o
 .bss           0x000000000011d018        0x0 binaries/semreset.o
 .bss           0x000000000011d018        0x0 binaries/send.o
 .bss           0x000000000011d018        0x0 binaries/signal.o
 .bss           0x000000000011d018        0x0 binaries/signaln.o
 .bss           0x000000000011d018        0x0 binaries/sleep.o
 .bss           0x000000000011d018        0x8 binaries/stackdepth.o
 .bss           0x000000000011d020        0x8 binaries/stacktrace.o
 .bss           0x000000000011d028        0x0 binaries/suspend.o
 .bss           0x000000000011d028        0x0 binaries/unsleep.o
 .bss           0x000000000011d028        0x0 binaries/userret.o
 .bss           0x000000000011d028        0x0 binaries/wait.o
 .bss           0x000000000011d028        0x0 binaries/wakeup.o
 .bss           0x000000000011d028        0x0 binaries/write.o
 .bss           0x000000000011d028        0x0 binaries/xdone.o
 .bss           0x000000000011d028        0x0 binaries/yield.o
 .bss           0x000000000011d028        0x0 binaries/abs.o
 .bss           0x000000000011d028        0x0 binaries/atoi.o
 .bss           0x000000000011d028        0x0 binaries/atol.o
 .bss           0x000000000011d028        0x0 binaries/bzero.o
 .bss           0x000000000011d028        0x0 binaries/ctype_.o
 .bss           0x000000000011d028        0x0 binaries/doprnt.o
 .bss           0x000000000011d028        0x0 binaries/doscan.o
 .bss           0x000000000011d028        0x0 binaries/fdoprnt.o
 .bss           0x000000000011d028        0x0 binaries/fgetc.o
 .bss           0x000000000011d028        0x0 binaries/fgets.o
 .bss           0x000000000011d028        0x0 binaries/fprintf.o
 .bss           0x000000000011d028        0x0 binaries/fputc.o
 .bss           0x000000000011d028        0x0 binaries/fputs.o
 .bss           0x000000000011d028        0x0 binaries/fscanf.o
 .bss           0x000000000011d028        0x0 binaries/getchar.o
 .bss           0x000000000011d028        0x0 binaries/labs.o
 .bss           0x000000000011d028        0x0 binaries/memchr.o
 .bss           0x000000000011d028        0x0 binaries/memcmp.o
 .bss           0x000000000011d028        0x0 binaries/memcpy.o
 .bss           0x000000000011d028        0x0 binaries/memset.o
 .bss           0x000000000011d028        0x0 binaries/printf.o
 .bss           0x000000000011d028        0x0 binaries/putchar.o
 .bss           0x000000000011d028        0x8 binaries/qsort.o
 .bss           0x000000000011d030        0x0 binaries/rand.o
 .bss           0x000000000011d030        0x0 binaries/sprintf.o
 .bss           0x000000000011d030        0x0 binaries/sscanf.o
 .bss           0x000000000011d030        0x0 binaries/strchr.o
 .bss           0x000000000011d030        0x0 binaries/strcmp.o
 .bss           0x000000000011d030        0x0 binaries/strcpy.o
 .bss           0x000000000011d030        0x0 binaries/strlen.o
 .bss           0x000000000011d030        0x0 binaries/strncat.o
 .bss           0x000000000011d030        0x0 binaries/strncmp.o
 .bss           0x000000000011d030        0x0 binaries/strncpy.o
 .bss           0x000000000011d030        0x0 binaries/strnlen.o
 .bss           0x000000000011d030        0x0 binaries/strrchr.o
 .bss           0x000000000011d030        0x0 binaries/strstr.o
 .bss           0x000000000011d030        0x0 binaries/ttycontrol.o
 .bss           0x000000000011d030        0x0 binaries/ttygetc.o
 .bss           0x000000000011d030        0x0 binaries/ttyhandle_in.o
 .bss           0x000000000011d030        0x0 binaries/ttyhandle_out.o
 .bss           0x000000000011d030        0x0 binaries/ttyhandler.o
 .bss           0x000000000011d030        0x0 binaries/ttyinit.o
 .bss           0x000000000011d030        0x0 binaries/ttykickout.o
 .bss           0x000000000011d030        0x0 binaries/ttyputc.o
 .bss           0x000000000011d030        0x0 binaries/ttyread.o
 .bss           0x000000000011d030        0x0 binaries/ttywrite.o
 .bss           0x000000000011d030        0x0 binaries/mount.o
 .bss           0x000000000011d030        0x0 binaries/naminit.o
 .bss           0x000000000011d030        0x0 binaries/nammap.o
 .bss           0x000000000011d030        0x0 binaries/namopen.o
 .bss           0x000000000011d030        0x0 binaries/colon2mac.o
 .bss           0x000000000011d030        0x0 binaries/ethcontrol.o
 .bss           0x000000000011d030        0x0 binaries/ethhandler.o
 .bss           0x000000000011d030        0x0 binaries/ethinit.o
 .bss           0x000000000011d030        0x0 binaries/ethmcast.o
 .bss           0x000000000011d030        0x0 binaries/ethread.o
 .bss           0x000000000011d030        0x0 binaries/ethwrite.o
 .bss           0x000000000011d030        0x0 binaries/rdsbufalloc.o
 .bss           0x000000000011d030        0x0 binaries/rdsclose.o
 .bss           0x000000000011d030        0x0 binaries/rdscomm.o
 .bss           0x000000000011d030        0x0 binaries/rdscontrol.o
 .bss           0x000000000011d030        0x0 binaries/rdsinit.o
 .bss           0x000000000011d030        0x0 binaries/rdsopen.o
 .bss           0x000000000011d030        0x0 binaries/rdsprocess.o
 .bss           0x000000000011d030        0x0 binaries/rdsread.o
 .bss           0x000000000011d030        0x0 binaries/rdswrite.o
 .bss           0x000000000011d030        0x0 binaries/ramclose.o
 .bss           0x000000000011d030        0x0 binaries/raminit.o
 .bss           0x000000000011d030        0x0 binaries/ramopen.o
 .bss           0x000000000011d030        0x0 binaries/ramread.o
 .bss           0x000000000011d030        0x0 binaries/ramwrite.o
 .bss           0x000000000011d030        0x0 binaries/lfdballoc.o
 .bss           0x000000000011d030        0x0 binaries/lfdbfree.o
 .bss           0x000000000011d030        0x0 binaries/lfflush.o
 .bss           0x000000000011d030        0x0 binaries/lfgetmode.o
 .bss           0x000000000011d030        0x0 binaries/lfiballoc.o
 .bss           0x000000000011d030        0x0 binaries/lfibclear.o
 .bss           0x000000000011d030        0x0 binaries/lfibget.o
 .bss           0x000000000011d030        0x0 binaries/lfibput.o
 .bss           0x000000000011d030        0x0 binaries/lflclose.o
 .bss           0x000000000011d030        0x0 binaries/lflcontrol.o
 .bss           0x000000000011d030        0x0 binaries/lflgetc.o
 .bss           0x000000000011d030        0x0 binaries/lflinit.o
 .bss           0x000000000011d030        0x0 binaries/lflputc.o
 .bss           0x000000000011d030        0x0 binaries/lflread.o
 .bss           0x000000000011d030        0x0 binaries/lflseek.o
 .bss           0x000000000011d030        0x0 binaries/lflwrite.o
 .bss           0x000000000011d030        0x0 binaries/lfsckfmt.o
 .bss           0x000000000011d030        0x0 binaries/lfscreate.o
 .bss           0x000000000011d030        0x0 binaries/lfsetup.o
 .bss           0x000000000011d030        0x0 binaries/lfsinit.o
 .bss           0x000000000011d030        0x0 binaries/lfsopen.o
 .bss           0x000000000011d030        0x0 binaries/lftruncate.o
 .bss           0x000000000011d030        0x0 binaries/rflclose.o
 .bss           0x000000000011d030        0x0 binaries/rflgetc.o
 .bss           0x000000000011d030        0x0 binaries/rflinit.o
 .bss           0x000000000011d030        0x0 binaries/rflputc.o
 .bss           0x000000000011d030        0x0 binaries/rflread.o
 .bss           0x000000000011d030        0x0 binaries/rflseek.o
 .bss           0x000000000011d030        0x0 binaries/rflwrite.o
 .bss           0x000000000011d030        0x0 binaries/rfscomm.o
 .bss           0x000000000011d030        0x0 binaries/rfscontrol.o
 .bss           0x000000000011d030        0x0 binaries/rfsgetmode.o
 .bss           0x000000000011d030        0x0 binaries/rfsinit.o
 .bss           0x000000000011d030        0x0 binaries/rfsndmsg.o
 .bss           0x000000000011d030        0x0 binaries/rfsopen.o
 .bss           0x000000000011d030        0x0 binaries/arp.o
 .bss           0x000000000011d030        0x0 binaries/dhcp.o
 .bss           0x000000000011d030        0x0 binaries/dot2ip.o
 .bss           0x000000000011d030        0x0 binaries/hexdump.o
 .bss           0x000000000011d030        0x0 binaries/icmp.o
 .bss           0x000000000011d030        0x0 binaries/ip.o
 .bss           0x000000000011d030        0x0 binaries/net.o
 .bss           0x000000000011d030        0x0 binaries/netstart.o
 .bss           0x000000000011d030        0x0 binaries/pdump.o
 .bss           0x000000000011d030        0x0 binaries/tftp.o
 .bss           0x000000000011d030        0x0 binaries/udp.o
 .bss           0x000000000011d030        0x0 binaries/addargs.o
 .bss           0x000000000011d030        0x0 binaries/lexan.o
 .bss           0x000000000011d030        0x0 binaries/shell.o
 .bss           0x000000000011d030        0x0 binaries/xsh_argecho.o
 .bss           0x000000000011d030        0x0 binaries/xsh_arp.o
 .bss           0x000000000011d030        0x0 binaries/xsh_cat.o
 .bss           0x000000000011d030        0x0 binaries/xsh_clear.o
 .bss           0x000000000011d030        0x0 binaries/xsh_date.o
 .bss           0x000000000011d030        0x0 binaries/xsh_devdump.o
 .bss           0x000000000011d030        0x0 binaries/xsh_echo.o
 .bss           0x000000000011d030        0x0 binaries/xsh_exit.o
 .bss           0x000000000011d030        0x0 binaries/xsh_help.o
 .bss           0x000000000011d030        0x0 binaries/xsh_ipaddr.o
 .bss           0x000000000011d030        0x0 binaries/xsh_kill.o
 .bss           0x000000000011d030        0x0 binaries/xsh_memdump.o
 .bss           0x000000000011d030        0x0 binaries/xsh_memstat.o
 .bss           0x000000000011d030        0x4 binaries/xsh_ping.o
 .bss           0x000000000011d034        0x0 binaries/xsh_ps.o
 .bss           0x000000000011d034        0x0 binaries/xsh_sleep.o
 .bss           0x000000000011d034        0x0 binaries/xsh_udpdump.o
 .bss           0x000000000011d034        0x0 binaries/xsh_udpecho.o
 .bss           0x000000000011d034        0x0 binaries/xsh_udpeserver.o
 .bss           0x000000000011d034        0x0 binaries/xsh_uptime.o
 .bss           0x000000000011d034        0x0 binaries/clkdisp.o
 .bss           0x000000000011d034        0x0 binaries/ctxsw.o
 .bss           0x000000000011d034        0x0 binaries/host2netla.o
 .bss           0x000000000011d034        0x0 binaries/host2netlc.o
 .bss           0x000000000011d034        0x0 binaries/intr.o
 .bss           0x000000000011d034        0x0 binaries/ttydispatch.o
 .bss           0x000000000011d034        0x0 binaries/ethdispatch.o
 *(COMMON)
 *fill*         0x000000000011d034        0xc 
 COMMON         0x000000000011d040       0xf4 binaries/bufinit.o
                0x000000000011d040                buftab
                0x000000000011d130                nbpools
 COMMON         0x000000000011d134        0xc binaries/clkinit.o
                0x000000000011d134                sleepq
                0x000000000011d138                preempt
                0x000000000011d13c                clktime
 COMMON         0x000000000011d140        0x2 binaries/evec.o
                0x000000000011d140                girmask
 *fill*         0x000000000011d142       0x1e 
 COMMON         0x000000000011d160     0x1ad8 binaries/initialize.o
                0x000000000011d160                currpid
                0x000000000011d180                proctab
                0x000000000011e760                prcount
                0x000000000011e780                semtab
                0x000000000011ec30                memlist
 *fill*         0x000000000011ec38        0x8 
 COMMON         0x000000000011ec40       0x58 binaries/mark.o
                0x000000000011ec40                marks
                0x000000000011ec90                nmarks
                0x000000000011ec94                mkmutex
 COMMON         0x000000000011ec98        0x8 binaries/meminit.o
                0x000000000011ec98                minheap
                0x000000000011ec9c                maxheap
 COMMON         0x000000000011eca0      0x2d8 binaries/ptinit.o
                0x000000000011eca0                porttab
                0x000000000011ef70                ptnextid
                0x000000000011ef74                ptfree
 *fill*         0x000000000011ef78        0x8 
 COMMON         0x000000000011ef80      0x980 binaries/queue.o
                0x000000000011ef80                queuetab
 COMMON         0x000000000011f900        0x2 binaries/ready.o
                0x000000000011f900                readylist
 *fill*         0x000000000011f902        0x2 
 COMMON         0x000000000011f904        0x8 binaries/resched.o
                0x000000000011f904                Defer
 *fill*         0x000000000011f90c       0x14 
 COMMON         0x000000000011f920      0x10c binaries/ttyinit.o
                0x000000000011f920                ttytab
 *fill*         0x000000000011fa2c       0x14 
 COMMON         0x000000000011fa40     0x19c0 binaries/naminit.o
                0x000000000011fa40                nnames
                0x000000000011fa60                nametab
 COMMON         0x0000000000121400      0x138 binaries/ethinit.o
                0x0000000000121400                ethertab
 *fill*         0x0000000000121538        0x8 
 COMMON         0x0000000000121540       0x8c binaries/rdsinit.o
                0x0000000000121540                rdstab
 *fill*         0x00000000001215cc       0x14 
 COMMON         0x00000000001215e0    0x19000 binaries/raminit.o
                0x00000000001215e0                Ram
 COMMON         0x000000000013a5e0      0xf00 binaries/lflinit.o
                0x000000000013a5e0                lfltab
 COMMON         0x000000000013b4e0      0x20c binaries/lfsinit.o
                0x000000000013b4e0                Lf_data
 *fill*         0x000000000013b6ec       0x14 
 COMMON         0x000000000013b700      0x5a0 binaries/rflinit.o
                0x000000000013b700                rfltab
 COMMON         0x000000000013bca0       0x18 binaries/rfsinit.o
                0x000000000013bca0                Rf_data
 *fill*         0x000000000013bcb8        0x8 
 COMMON         0x000000000013bcc0      0x140 binaries/arp.o
                0x000000000013bcc0                arpcache
 COMMON         0x000000000013be00      0x230 binaries/icmp.o
                0x000000000013be00                icmptab
 *fill*         0x000000000013c030       0x10 
 COMMON         0x000000000013c040       0x2c binaries/ip.o
                0x000000000013c040                ipoqueue
 *fill*         0x000000000013c06c       0x14 
 COMMON         0x000000000013c080       0xc8 binaries/net.o
                0x000000000013c080                netbufpool
                0x000000000013c0a0                NetData
 *fill*         0x000000000013c148       0x18 
 COMMON         0x000000000013c160      0x168 binaries/udp.o
                0x000000000013c160                udptab
                0x000000000013c2c8                ebss = ABSOLUTE (.)
                0x000000000013d000                . = ALIGN (0x1000)
 *fill*         0x000000000013c2c8      0xd38 
 */()
                0x000000000013d000                end = ABSOLUTE (.)
                0x000000000013d000                _end = ABSOLUTE (.)
                0x000000000013d000                . = ALIGN (0x1000)
LOAD binaries/start.o
LOAD binaries/app1.o
LOAD binaries/app2.o
LOAD binaries/app3.o
LOAD binaries/ascdate.o
LOAD binaries/bufinit.o
LOAD binaries/chprio.o
LOAD binaries/clkhandler.o
LOAD binaries/clkinit.o
LOAD binaries/close.o
LOAD binaries/conf.o
LOAD binaries/control.o
LOAD binaries/create.o
LOAD binaries/early_imr.o
LOAD binaries/evec.o
LOAD binaries/f1.o
LOAD binaries/freebuf.o
LOAD binaries/freemem.o
LOAD binaries/getbuf.o
LOAD binaries/getc.o
LOAD binaries/getdev.o
LOAD binaries/getitem.o
LOAD binaries/getmem.o
LOAD binaries/getpid.o
LOAD binaries/getppid.o
LOAD binaries/getprio.o
LOAD binaries/getstk.o
LOAD binaries/gettime.o
LOAD binaries/getutime.o
LOAD binaries/host2netlb.o
LOAD binaries/init.o
LOAD binaries/initialize.o
LOAD binaries/insert.o
LOAD binaries/insertd.o
LOAD binaries/ioerr.o
LOAD binaries/ionull.o
LOAD binaries/kill.o
LOAD binaries/kprintf.o
LOAD binaries/main.o
LOAD binaries/mark.o
LOAD binaries/meminit.o
LOAD binaries/mkbufpool.o
LOAD binaries/myappA.o
LOAD binaries/myfuncA.o
LOAD binaries/myhacker.o
LOAD binaries/myvictim.o
LOAD binaries/mywelcomemsg.o
LOAD binaries/newqueue.o
LOAD binaries/open.o
LOAD binaries/panic.o
LOAD binaries/pci.o
LOAD binaries/platinit.o
LOAD binaries/printprstate.o
LOAD binaries/prntsegaddr.o
LOAD binaries/ptclear.o
LOAD binaries/ptcount.o
LOAD binaries/ptcreate.o
LOAD binaries/ptdelete.o
LOAD binaries/ptinit.o
LOAD binaries/ptrecv.o
LOAD binaries/ptreset.o
LOAD binaries/ptsend.o
LOAD binaries/putc.o
LOAD binaries/quark_irq.o
LOAD binaries/quark_pdat.o
LOAD binaries/queue.o
LOAD binaries/read.o
LOAD binaries/ready.o
LOAD binaries/receive.o
LOAD binaries/recvclr.o
LOAD binaries/recvtime.o
LOAD binaries/resched.o
LOAD binaries/resume.o
LOAD binaries/seek.o
LOAD binaries/semcount.o
LOAD binaries/semcreate.o
LOAD binaries/semdelete.o
LOAD binaries/semreset.o
LOAD binaries/send.o
LOAD binaries/signal.o
LOAD binaries/signaln.o
LOAD binaries/sleep.o
LOAD binaries/stackdepth.o
LOAD binaries/stacktrace.o
LOAD binaries/suspend.o
LOAD binaries/unsleep.o
LOAD binaries/userret.o
LOAD binaries/wait.o
LOAD binaries/wakeup.o
LOAD binaries/write.o
LOAD binaries/xdone.o
LOAD binaries/yield.o
LOAD binaries/abs.o
LOAD binaries/atoi.o
LOAD binaries/atol.o
LOAD binaries/bzero.o
LOAD binaries/ctype_.o
LOAD binaries/doprnt.o
LOAD binaries/doscan.o
LOAD binaries/fdoprnt.o
LOAD binaries/fgetc.o
LOAD binaries/fgets.o
LOAD binaries/fprintf.o
LOAD binaries/fputc.o
LOAD binaries/fputs.o
LOAD binaries/fscanf.o
LOAD binaries/getchar.o
LOAD binaries/labs.o
LOAD binaries/memchr.o
LOAD binaries/memcmp.o
LOAD binaries/memcpy.o
LOAD binaries/memset.o
LOAD binaries/printf.o
LOAD binaries/putchar.o
LOAD binaries/qsort.o
LOAD binaries/rand.o
LOAD binaries/sprintf.o
LOAD binaries/sscanf.o
LOAD binaries/strchr.o
LOAD binaries/strcmp.o
LOAD binaries/strcpy.o
LOAD binaries/strlen.o
LOAD binaries/strncat.o
LOAD binaries/strncmp.o
LOAD binaries/strncpy.o
LOAD binaries/strnlen.o
LOAD binaries/strrchr.o
LOAD binaries/strstr.o
LOAD binaries/ttycontrol.o
LOAD binaries/ttygetc.o
LOAD binaries/ttyhandle_in.o
LOAD binaries/ttyhandle_out.o
LOAD binaries/ttyhandler.o
LOAD binaries/ttyinit.o
LOAD binaries/ttykickout.o
LOAD binaries/ttyputc.o
LOAD binaries/ttyread.o
LOAD binaries/ttywrite.o
LOAD binaries/mount.o
LOAD binaries/naminit.o
LOAD binaries/nammap.o
LOAD binaries/namopen.o
LOAD binaries/colon2mac.o
LOAD binaries/ethcontrol.o
LOAD binaries/ethhandler.o
LOAD binaries/ethinit.o
LOAD binaries/ethmcast.o
LOAD binaries/ethread.o
LOAD binaries/ethwrite.o
LOAD binaries/rdsbufalloc.o
LOAD binaries/rdsclose.o
LOAD binaries/rdscomm.o
LOAD binaries/rdscontrol.o
LOAD binaries/rdsinit.o
LOAD binaries/rdsopen.o
LOAD binaries/rdsprocess.o
LOAD binaries/rdsread.o
LOAD binaries/rdswrite.o
LOAD binaries/ramclose.o
LOAD binaries/raminit.o
LOAD binaries/ramopen.o
LOAD binaries/ramread.o
LOAD binaries/ramwrite.o
LOAD binaries/lfdballoc.o
LOAD binaries/lfdbfree.o
LOAD binaries/lfflush.o
LOAD binaries/lfgetmode.o
LOAD binaries/lfiballoc.o
LOAD binaries/lfibclear.o
LOAD binaries/lfibget.o
LOAD binaries/lfibput.o
LOAD binaries/lflclose.o
LOAD binaries/lflcontrol.o
LOAD binaries/lflgetc.o
LOAD binaries/lflinit.o
LOAD binaries/lflputc.o
LOAD binaries/lflread.o
LOAD binaries/lflseek.o
LOAD binaries/lflwrite.o
LOAD binaries/lfsckfmt.o
LOAD binaries/lfscreate.o
LOAD binaries/lfsetup.o
LOAD binaries/lfsinit.o
LOAD binaries/lfsopen.o
LOAD binaries/lftruncate.o
LOAD binaries/rflclose.o
LOAD binaries/rflgetc.o
LOAD binaries/rflinit.o
LOAD binaries/rflputc.o
LOAD binaries/rflread.o
LOAD binaries/rflseek.o
LOAD binaries/rflwrite.o
LOAD binaries/rfscomm.o
LOAD binaries/rfscontrol.o
LOAD binaries/rfsgetmode.o
LOAD binaries/rfsinit.o
LOAD binaries/rfsndmsg.o
LOAD binaries/rfsopen.o
LOAD binaries/arp.o
LOAD binaries/dhcp.o
LOAD binaries/dot2ip.o
LOAD binaries/hexdump.o
LOAD binaries/icmp.o
LOAD binaries/ip.o
LOAD binaries/net.o
LOAD binaries/netstart.o
LOAD binaries/pdump.o
LOAD binaries/tftp.o
LOAD binaries/udp.o
LOAD binaries/addargs.o
LOAD binaries/lexan.o
LOAD binaries/shell.o
LOAD binaries/xsh_argecho.o
LOAD binaries/xsh_arp.o
LOAD binaries/xsh_cat.o
LOAD binaries/xsh_clear.o
LOAD binaries/xsh_date.o
LOAD binaries/xsh_devdump.o
LOAD binaries/xsh_echo.o
LOAD binaries/xsh_exit.o
LOAD binaries/xsh_help.o
LOAD binaries/xsh_ipaddr.o
LOAD binaries/xsh_kill.o
LOAD binaries/xsh_memdump.o
LOAD binaries/xsh_memstat.o
LOAD binaries/xsh_ping.o
LOAD binaries/xsh_ps.o
LOAD binaries/xsh_sleep.o
LOAD binaries/xsh_udpdump.o
LOAD binaries/xsh_udpecho.o
LOAD binaries/xsh_udpeserver.o
LOAD binaries/xsh_uptime.o
LOAD binaries/clkdisp.o
LOAD binaries/ctxsw.o
LOAD binaries/host2netla.o
LOAD binaries/host2netlc.o
LOAD binaries/intr.o
LOAD binaries/ttydispatch.o
LOAD binaries/ethdispatch.o
OUTPUT(../compile/xinu elf32-i386)

.comment        0x0000000000000000       0x2a
 .comment       0x0000000000000000       0x2a binaries/app1.o
                                         0x2b (size before relaxing)
 .comment       0x000000000000002a       0x2b binaries/app2.o
 .comment       0x000000000000002a       0x2b binaries/app3.o
 .comment       0x000000000000002a       0x2b binaries/ascdate.o
 .comment       0x000000000000002a       0x2b binaries/bufinit.o
 .comment       0x000000000000002a       0x2b binaries/chprio.o
 .comment       0x000000000000002a       0x2b binaries/clkhandler.o
 .comment       0x000000000000002a       0x2b binaries/clkinit.o
 .comment       0x000000000000002a       0x2b binaries/close.o
 .comment       0x000000000000002a       0x2b binaries/conf.o
 .comment       0x000000000000002a       0x2b binaries/control.o
 .comment       0x000000000000002a       0x2b binaries/create.o
 .comment       0x000000000000002a       0x2b binaries/early_imr.o
 .comment       0x000000000000002a       0x2b binaries/evec.o
 .comment       0x000000000000002a       0x2b binaries/f1.o
 .comment       0x000000000000002a       0x2b binaries/freebuf.o
 .comment       0x000000000000002a       0x2b binaries/freemem.o
 .comment       0x000000000000002a       0x2b binaries/getbuf.o
 .comment       0x000000000000002a       0x2b binaries/getc.o
 .comment       0x000000000000002a       0x2b binaries/getdev.o
 .comment       0x000000000000002a       0x2b binaries/getitem.o
 .comment       0x000000000000002a       0x2b binaries/getmem.o
 .comment       0x000000000000002a       0x2b binaries/getpid.o
 .comment       0x000000000000002a       0x2b binaries/getppid.o
 .comment       0x000000000000002a       0x2b binaries/getprio.o
 .comment       0x000000000000002a       0x2b binaries/getstk.o
 .comment       0x000000000000002a       0x2b binaries/gettime.o
 .comment       0x000000000000002a       0x2b binaries/getutime.o
 .comment       0x000000000000002a       0x2b binaries/host2netlb.o
 .comment       0x000000000000002a       0x2b binaries/init.o
 .comment       0x000000000000002a       0x2b binaries/initialize.o
 .comment       0x000000000000002a       0x2b binaries/insert.o
 .comment       0x000000000000002a       0x2b binaries/insertd.o
 .comment       0x000000000000002a       0x2b binaries/ioerr.o
 .comment       0x000000000000002a       0x2b binaries/ionull.o
 .comment       0x000000000000002a       0x2b binaries/kill.o
 .comment       0x000000000000002a       0x2b binaries/kprintf.o
 .comment       0x000000000000002a       0x2b binaries/main.o
 .comment       0x000000000000002a       0x2b binaries/mark.o
 .comment       0x000000000000002a       0x2b binaries/meminit.o
 .comment       0x000000000000002a       0x2b binaries/mkbufpool.o
 .comment       0x000000000000002a       0x2b binaries/myappA.o
 .comment       0x000000000000002a       0x2b binaries/myfuncA.o
 .comment       0x000000000000002a       0x2b binaries/myhacker.o
 .comment       0x000000000000002a       0x2b binaries/myvictim.o
 .comment       0x000000000000002a       0x2b binaries/mywelcomemsg.o
 .comment       0x000000000000002a       0x2b binaries/newqueue.o
 .comment       0x000000000000002a       0x2b binaries/open.o
 .comment       0x000000000000002a       0x2b binaries/panic.o
 .comment       0x000000000000002a       0x2b binaries/pci.o
 .comment       0x000000000000002a       0x2b binaries/platinit.o
 .comment       0x000000000000002a       0x2b binaries/printprstate.o
 .comment       0x000000000000002a       0x2b binaries/prntsegaddr.o
 .comment       0x000000000000002a       0x2b binaries/ptclear.o
 .comment       0x000000000000002a       0x2b binaries/ptcount.o
 .comment       0x000000000000002a       0x2b binaries/ptcreate.o
 .comment       0x000000000000002a       0x2b binaries/ptdelete.o
 .comment       0x000000000000002a       0x2b binaries/ptinit.o
 .comment       0x000000000000002a       0x2b binaries/ptrecv.o
 .comment       0x000000000000002a       0x2b binaries/ptreset.o
 .comment       0x000000000000002a       0x2b binaries/ptsend.o
 .comment       0x000000000000002a       0x2b binaries/putc.o
 .comment       0x000000000000002a       0x2b binaries/quark_irq.o
 .comment       0x000000000000002a       0x2b binaries/quark_pdat.o
 .comment       0x000000000000002a       0x2b binaries/queue.o
 .comment       0x000000000000002a       0x2b binaries/read.o
 .comment       0x000000000000002a       0x2b binaries/ready.o
 .comment       0x000000000000002a       0x2b binaries/receive.o
 .comment       0x000000000000002a       0x2b binaries/recvclr.o
 .comment       0x000000000000002a       0x2b binaries/recvtime.o
 .comment       0x000000000000002a       0x2b binaries/resched.o
 .comment       0x000000000000002a       0x2b binaries/resume.o
 .comment       0x000000000000002a       0x2b binaries/seek.o
 .comment       0x000000000000002a       0x2b binaries/semcount.o
 .comment       0x000000000000002a       0x2b binaries/semcreate.o
 .comment       0x000000000000002a       0x2b binaries/semdelete.o
 .comment       0x000000000000002a       0x2b binaries/semreset.o
 .comment       0x000000000000002a       0x2b binaries/send.o
 .comment       0x000000000000002a       0x2b binaries/signal.o
 .comment       0x000000000000002a       0x2b binaries/signaln.o
 .comment       0x000000000000002a       0x2b binaries/sleep.o
 .comment       0x000000000000002a       0x2b binaries/stackdepth.o
 .comment       0x000000000000002a       0x2b binaries/stacktrace.o
 .comment       0x000000000000002a       0x2b binaries/suspend.o
 .comment       0x000000000000002a       0x2b binaries/unsleep.o
 .comment       0x000000000000002a       0x2b binaries/userret.o
 .comment       0x000000000000002a       0x2b binaries/wait.o
 .comment       0x000000000000002a       0x2b binaries/wakeup.o
 .comment       0x000000000000002a       0x2b binaries/write.o
 .comment       0x000000000000002a       0x2b binaries/xdone.o
 .comment       0x000000000000002a       0x2b binaries/yield.o
 .comment       0x000000000000002a       0x2b binaries/abs.o
 .comment       0x000000000000002a       0x2b binaries/atoi.o
 .comment       0x000000000000002a       0x2b binaries/atol.o
 .comment       0x000000000000002a       0x2b binaries/bzero.o
 .comment       0x000000000000002a       0x2b binaries/ctype_.o
 .comment       0x000000000000002a       0x2b binaries/doprnt.o
 .comment       0x000000000000002a       0x2b binaries/doscan.o
 .comment       0x000000000000002a       0x2b binaries/fdoprnt.o
 .comment       0x000000000000002a       0x2b binaries/fgetc.o
 .comment       0x000000000000002a       0x2b binaries/fgets.o
 .comment       0x000000000000002a       0x2b binaries/fprintf.o
 .comment       0x000000000000002a       0x2b binaries/fputc.o
 .comment       0x000000000000002a       0x2b binaries/fputs.o
 .comment       0x000000000000002a       0x2b binaries/fscanf.o
 .comment       0x000000000000002a       0x2b binaries/getchar.o
 .comment       0x000000000000002a       0x2b binaries/labs.o
 .comment       0x000000000000002a       0x2b binaries/memchr.o
 .comment       0x000000000000002a       0x2b binaries/memcmp.o
 .comment       0x000000000000002a       0x2b binaries/memcpy.o
 .comment       0x000000000000002a       0x2b binaries/memset.o
 .comment       0x000000000000002a       0x2b binaries/printf.o
 .comment       0x000000000000002a       0x2b binaries/putchar.o
 .comment       0x000000000000002a       0x2b binaries/qsort.o
 .comment       0x000000000000002a       0x2b binaries/rand.o
 .comment       0x000000000000002a       0x2b binaries/sprintf.o
 .comment       0x000000000000002a       0x2b binaries/sscanf.o
 .comment       0x000000000000002a       0x2b binaries/strchr.o
 .comment       0x000000000000002a       0x2b binaries/strcmp.o
 .comment       0x000000000000002a       0x2b binaries/strcpy.o
 .comment       0x000000000000002a       0x2b binaries/strlen.o
 .comment       0x000000000000002a       0x2b binaries/strncat.o
 .comment       0x000000000000002a       0x2b binaries/strncmp.o
 .comment       0x000000000000002a       0x2b binaries/strncpy.o
 .comment       0x000000000000002a       0x2b binaries/strnlen.o
 .comment       0x000000000000002a       0x2b binaries/strrchr.o
 .comment       0x000000000000002a       0x2b binaries/strstr.o
 .comment       0x000000000000002a       0x2b binaries/ttycontrol.o
 .comment       0x000000000000002a       0x2b binaries/ttygetc.o
 .comment       0x000000000000002a       0x2b binaries/ttyhandle_in.o
 .comment       0x000000000000002a       0x2b binaries/ttyhandle_out.o
 .comment       0x000000000000002a       0x2b binaries/ttyhandler.o
 .comment       0x000000000000002a       0x2b binaries/ttyinit.o
 .comment       0x000000000000002a       0x2b binaries/ttykickout.o
 .comment       0x000000000000002a       0x2b binaries/ttyputc.o
 .comment       0x000000000000002a       0x2b binaries/ttyread.o
 .comment       0x000000000000002a       0x2b binaries/ttywrite.o
 .comment       0x000000000000002a       0x2b binaries/mount.o
 .comment       0x000000000000002a       0x2b binaries/naminit.o
 .comment       0x000000000000002a       0x2b binaries/nammap.o
 .comment       0x000000000000002a       0x2b binaries/namopen.o
 .comment       0x000000000000002a       0x2b binaries/colon2mac.o
 .comment       0x000000000000002a       0x2b binaries/ethcontrol.o
 .comment       0x000000000000002a       0x2b binaries/ethhandler.o
 .comment       0x000000000000002a       0x2b binaries/ethinit.o
 .comment       0x000000000000002a       0x2b binaries/ethmcast.o
 .comment       0x000000000000002a       0x2b binaries/ethread.o
 .comment       0x000000000000002a       0x2b binaries/ethwrite.o
 .comment       0x000000000000002a       0x2b binaries/rdsbufalloc.o
 .comment       0x000000000000002a       0x2b binaries/rdsclose.o
 .comment       0x000000000000002a       0x2b binaries/rdscomm.o
 .comment       0x000000000000002a       0x2b binaries/rdscontrol.o
 .comment       0x000000000000002a       0x2b binaries/rdsinit.o
 .comment       0x000000000000002a       0x2b binaries/rdsopen.o
 .comment       0x000000000000002a       0x2b binaries/rdsprocess.o
 .comment       0x000000000000002a       0x2b binaries/rdsread.o
 .comment       0x000000000000002a       0x2b binaries/rdswrite.o
 .comment       0x000000000000002a       0x2b binaries/ramclose.o
 .comment       0x000000000000002a       0x2b binaries/raminit.o
 .comment       0x000000000000002a       0x2b binaries/ramopen.o
 .comment       0x000000000000002a       0x2b binaries/ramread.o
 .comment       0x000000000000002a       0x2b binaries/ramwrite.o
 .comment       0x000000000000002a       0x2b binaries/lfdballoc.o
 .comment       0x000000000000002a       0x2b binaries/lfdbfree.o
 .comment       0x000000000000002a       0x2b binaries/lfflush.o
 .comment       0x000000000000002a       0x2b binaries/lfgetmode.o
 .comment       0x000000000000002a       0x2b binaries/lfiballoc.o
 .comment       0x000000000000002a       0x2b binaries/lfibclear.o
 .comment       0x000000000000002a       0x2b binaries/lfibget.o
 .comment       0x000000000000002a       0x2b binaries/lfibput.o
 .comment       0x000000000000002a       0x2b binaries/lflclose.o
 .comment       0x000000000000002a       0x2b binaries/lflcontrol.o
 .comment       0x000000000000002a       0x2b binaries/lflgetc.o
 .comment       0x000000000000002a       0x2b binaries/lflinit.o
 .comment       0x000000000000002a       0x2b binaries/lflputc.o
 .comment       0x000000000000002a       0x2b binaries/lflread.o
 .comment       0x000000000000002a       0x2b binaries/lflseek.o
 .comment       0x000000000000002a       0x2b binaries/lflwrite.o
 .comment       0x000000000000002a       0x2b binaries/lfsckfmt.o
 .comment       0x000000000000002a       0x2b binaries/lfscreate.o
 .comment       0x000000000000002a       0x2b binaries/lfsetup.o
 .comment       0x000000000000002a       0x2b binaries/lfsinit.o
 .comment       0x000000000000002a       0x2b binaries/lfsopen.o
 .comment       0x000000000000002a       0x2b binaries/lftruncate.o
 .comment       0x000000000000002a       0x2b binaries/rflclose.o
 .comment       0x000000000000002a       0x2b binaries/rflgetc.o
 .comment       0x000000000000002a       0x2b binaries/rflinit.o
 .comment       0x000000000000002a       0x2b binaries/rflputc.o
 .comment       0x000000000000002a       0x2b binaries/rflread.o
 .comment       0x000000000000002a       0x2b binaries/rflseek.o
 .comment       0x000000000000002a       0x2b binaries/rflwrite.o
 .comment       0x000000000000002a       0x2b binaries/rfscomm.o
 .comment       0x000000000000002a       0x2b binaries/rfscontrol.o
 .comment       0x000000000000002a       0x2b binaries/rfsgetmode.o
 .comment       0x000000000000002a       0x2b binaries/rfsinit.o
 .comment       0x000000000000002a       0x2b binaries/rfsndmsg.o
 .comment       0x000000000000002a       0x2b binaries/rfsopen.o
 .comment       0x000000000000002a       0x2b binaries/arp.o
 .comment       0x000000000000002a       0x2b binaries/dhcp.o
 .comment       0x000000000000002a       0x2b binaries/dot2ip.o
 .comment       0x000000000000002a       0x2b binaries/hexdump.o
 .comment       0x000000000000002a       0x2b binaries/icmp.o
 .comment       0x000000000000002a       0x2b binaries/ip.o
 .comment       0x000000000000002a       0x2b binaries/net.o
 .comment       0x000000000000002a       0x2b binaries/netstart.o
 .comment       0x000000000000002a       0x2b binaries/pdump.o
 .comment       0x000000000000002a       0x2b binaries/tftp.o
 .comment       0x000000000000002a       0x2b binaries/udp.o
 .comment       0x000000000000002a       0x2b binaries/addargs.o
 .comment       0x000000000000002a       0x2b binaries/lexan.o
 .comment       0x000000000000002a       0x2b binaries/shell.o
 .comment       0x000000000000002a       0x2b binaries/xsh_argecho.o
 .comment       0x000000000000002a       0x2b binaries/xsh_arp.o
 .comment       0x000000000000002a       0x2b binaries/xsh_cat.o
 .comment       0x000000000000002a       0x2b binaries/xsh_clear.o
 .comment       0x000000000000002a       0x2b binaries/xsh_date.o
 .comment       0x000000000000002a       0x2b binaries/xsh_devdump.o
 .comment       0x000000000000002a       0x2b binaries/xsh_echo.o
 .comment       0x000000000000002a       0x2b binaries/xsh_exit.o
 .comment       0x000000000000002a       0x2b binaries/xsh_help.o
 .comment       0x000000000000002a       0x2b binaries/xsh_ipaddr.o
 .comment       0x000000000000002a       0x2b binaries/xsh_kill.o
 .comment       0x000000000000002a       0x2b binaries/xsh_memdump.o
 .comment       0x000000000000002a       0x2b binaries/xsh_memstat.o
 .comment       0x000000000000002a       0x2b binaries/xsh_ping.o
 .comment       0x000000000000002a       0x2b binaries/xsh_ps.o
 .comment       0x000000000000002a       0x2b binaries/xsh_sleep.o
 .comment       0x000000000000002a       0x2b binaries/xsh_udpdump.o
 .comment       0x000000000000002a       0x2b binaries/xsh_udpecho.o
 .comment       0x000000000000002a       0x2b binaries/xsh_udpeserver.o
 .comment       0x000000000000002a       0x2b binaries/xsh_uptime.o
 .comment       0x000000000000002a       0x2b binaries/host2netlc.o

.note.GNU-stack
                0x0000000000000000        0x0
 .note.GNU-stack
                0x0000000000000000        0x0 binaries/app1.o
 .note.GNU-stack
                0x0000000000000000        0x0 binaries/app2.o
 .note.GNU-stack
                0x0000000000000000        0x0 binaries/app3.o
 .note.GNU-stack
                0x0000000000000000        0x0 binaries/ascdate.o
 .note.GNU-stack
                0x0000000000000000        0x0 binaries/bufinit.o
 .note.GNU-stack
                0x0000000000000000        0x0 binaries/chprio.o
 .note.GNU-stack
                0x0000000000000000        0x0 binaries/clkhandler.o
 .note.GNU-stack
                0x0000000000000000        0x0 binaries/clkinit.o
 .note.GNU-stack
                0x0000000000000000        0x0 binaries/close.o
 .note.GNU-stack
                0x0000000000000000        0x0 binaries/conf.o
 .note.GNU-stack
                0x0000000000000000        0x0 binaries/control.o
 .note.GNU-stack
                0x0000000000000000        0x0 binaries/create.o
 .note.GNU-stack
                0x0000000000000000        0x0 binaries/early_imr.o
 .note.GNU-stack
                0x0000000000000000        0x0 binaries/evec.o
 .note.GNU-stack
                0x0000000000000000        0x0 binaries/f1.o
 .note.GNU-stack
                0x0000000000000000        0x0 binaries/freebuf.o
 .note.GNU-stack
                0x0000000000000000        0x0 binaries/freemem.o
 .note.GNU-stack
                0x0000000000000000        0x0 binaries/getbuf.o
 .note.GNU-stack
                0x0000000000000000        0x0 binaries/getc.o
 .note.GNU-stack
                0x0000000000000000        0x0 binaries/getdev.o
 .note.GNU-stack
                0x0000000000000000        0x0 binaries/getitem.o
 .note.GNU-stack
                0x0000000000000000        0x0 binaries/getmem.o
 .note.GNU-stack
                0x0000000000000000        0x0 binaries/getpid.o
 .note.GNU-stack
                0x0000000000000000        0x0 binaries/getppid.o
 .note.GNU-stack
                0x0000000000000000        0x0 binaries/getprio.o
 .note.GNU-stack
                0x0000000000000000        0x0 binaries/getstk.o
 .note.GNU-stack
                0x0000000000000000        0x0 binaries/gettime.o
 .note.GNU-stack
                0x0000000000000000        0x0 binaries/getutime.o
 .note.GNU-stack
                0x0000000000000000        0x0 binaries/host2netlb.o
 .note.GNU-stack
                0x0000000000000000        0x0 binaries/init.o
 .note.GNU-stack
                0x0000000000000000        0x0 binaries/initialize.o
 .note.GNU-stack
                0x0000000000000000        0x0 binaries/insert.o
 .note.GNU-stack
                0x0000000000000000        0x0 binaries/insertd.o
 .note.GNU-stack
                0x0000000000000000        0x0 binaries/ioerr.o
 .note.GNU-stack
                0x0000000000000000        0x0 binaries/ionull.o
 .note.GNU-stack
                0x0000000000000000        0x0 binaries/kill.o
 .note.GNU-stack
                0x0000000000000000        0x0 binaries/kprintf.o
 .note.GNU-stack
                0x0000000000000000        0x0 binaries/main.o
 .note.GNU-stack
                0x0000000000000000        0x0 binaries/mark.o
 .note.GNU-stack
                0x0000000000000000        0x0 binaries/meminit.o
 .note.GNU-stack
                0x0000000000000000        0x0 binaries/mkbufpool.o
 .note.GNU-stack
                0x0000000000000000        0x0 binaries/myappA.o
 .note.GNU-stack
                0x0000000000000000        0x0 binaries/myfuncA.o
 .note.GNU-stack
                0x0000000000000000        0x0 binaries/myhacker.o
 .note.GNU-stack
                0x0000000000000000        0x0 binaries/myvictim.o
 .note.GNU-stack
                0x0000000000000000        0x0 binaries/mywelcomemsg.o
 .note.GNU-stack
                0x0000000000000000        0x0 binaries/newqueue.o
 .note.GNU-stack
                0x0000000000000000        0x0 binaries/open.o
 .note.GNU-stack
                0x0000000000000000        0x0 binaries/panic.o
 .note.GNU-stack
                0x0000000000000000        0x0 binaries/pci.o
 .note.GNU-stack
                0x0000000000000000        0x0 binaries/platinit.o
 .note.GNU-stack
                0x0000000000000000        0x0 binaries/printprstate.o
 .note.GNU-stack
                0x0000000000000000        0x0 binaries/prntsegaddr.o
 .note.GNU-stack
                0x0000000000000000        0x0 binaries/ptclear.o
 .note.GNU-stack
                0x0000000000000000        0x0 binaries/ptcount.o
 .note.GNU-stack
                0x0000000000000000        0x0 binaries/ptcreate.o
 .note.GNU-stack
                0x0000000000000000        0x0 binaries/ptdelete.o
 .note.GNU-stack
                0x0000000000000000        0x0 binaries/ptinit.o
 .note.GNU-stack
                0x0000000000000000        0x0 binaries/ptrecv.o
 .note.GNU-stack
                0x0000000000000000        0x0 binaries/ptreset.o
 .note.GNU-stack
                0x0000000000000000        0x0 binaries/ptsend.o
 .note.GNU-stack
                0x0000000000000000        0x0 binaries/putc.o
 .note.GNU-stack
                0x0000000000000000        0x0 binaries/quark_irq.o
 .note.GNU-stack
                0x0000000000000000        0x0 binaries/quark_pdat.o
 .note.GNU-stack
                0x0000000000000000        0x0 binaries/queue.o
 .note.GNU-stack
                0x0000000000000000        0x0 binaries/read.o
 .note.GNU-stack
                0x0000000000000000        0x0 binaries/ready.o
 .note.GNU-stack
                0x0000000000000000        0x0 binaries/receive.o
 .note.GNU-stack
                0x0000000000000000        0x0 binaries/recvclr.o
 .note.GNU-stack
                0x0000000000000000        0x0 binaries/recvtime.o
 .note.GNU-stack
                0x0000000000000000        0x0 binaries/resched.o
 .note.GNU-stack
                0x0000000000000000        0x0 binaries/resume.o
 .note.GNU-stack
                0x0000000000000000        0x0 binaries/seek.o
 .note.GNU-stack
                0x0000000000000000        0x0 binaries/semcount.o
 .note.GNU-stack
                0x0000000000000000        0x0 binaries/semcreate.o
 .note.GNU-stack
                0x0000000000000000        0x0 binaries/semdelete.o
 .note.GNU-stack
                0x0000000000000000        0x0 binaries/semreset.o
 .note.GNU-stack
                0x0000000000000000        0x0 binaries/send.o
 .note.GNU-stack
                0x0000000000000000        0x0 binaries/signal.o
 .note.GNU-stack
                0x0000000000000000        0x0 binaries/signaln.o
 .note.GNU-stack
                0x0000000000000000        0x0 binaries/sleep.o
 .note.GNU-stack
                0x0000000000000000        0x0 binaries/stackdepth.o
 .note.GNU-stack
                0x0000000000000000        0x0 binaries/stacktrace.o
 .note.GNU-stack
                0x0000000000000000        0x0 binaries/suspend.o
 .note.GNU-stack
                0x0000000000000000        0x0 binaries/unsleep.o
 .note.GNU-stack
                0x0000000000000000        0x0 binaries/userret.o
 .note.GNU-stack
                0x0000000000000000        0x0 binaries/wait.o
 .note.GNU-stack
                0x0000000000000000        0x0 binaries/wakeup.o
 .note.GNU-stack
                0x0000000000000000        0x0 binaries/write.o
 .note.GNU-stack
                0x0000000000000000        0x0 binaries/xdone.o
 .note.GNU-stack
                0x0000000000000000        0x0 binaries/yield.o
 .note.GNU-stack
                0x0000000000000000        0x0 binaries/abs.o
 .note.GNU-stack
                0x0000000000000000        0x0 binaries/atoi.o
 .note.GNU-stack
                0x0000000000000000        0x0 binaries/atol.o
 .note.GNU-stack
                0x0000000000000000        0x0 binaries/bzero.o
 .note.GNU-stack
                0x0000000000000000        0x0 binaries/ctype_.o
 .note.GNU-stack
                0x0000000000000000        0x0 binaries/doprnt.o
 .note.GNU-stack
                0x0000000000000000        0x0 binaries/doscan.o
 .note.GNU-stack
                0x0000000000000000        0x0 binaries/fdoprnt.o
 .note.GNU-stack
                0x0000000000000000        0x0 binaries/fgetc.o
 .note.GNU-stack
                0x0000000000000000        0x0 binaries/fgets.o
 .note.GNU-stack
                0x0000000000000000        0x0 binaries/fprintf.o
 .note.GNU-stack
                0x0000000000000000        0x0 binaries/fputc.o
 .note.GNU-stack
                0x0000000000000000        0x0 binaries/fputs.o
 .note.GNU-stack
                0x0000000000000000        0x0 binaries/fscanf.o
 .note.GNU-stack
                0x0000000000000000        0x0 binaries/getchar.o
 .note.GNU-stack
                0x0000000000000000        0x0 binaries/labs.o
 .note.GNU-stack
                0x0000000000000000        0x0 binaries/memchr.o
 .note.GNU-stack
                0x0000000000000000        0x0 binaries/memcmp.o
 .note.GNU-stack
                0x0000000000000000        0x0 binaries/memcpy.o
 .note.GNU-stack
                0x0000000000000000        0x0 binaries/memset.o
 .note.GNU-stack
                0x0000000000000000        0x0 binaries/printf.o
 .note.GNU-stack
                0x0000000000000000        0x0 binaries/putchar.o
 .note.GNU-stack
                0x0000000000000000        0x0 binaries/qsort.o
 .note.GNU-stack
                0x0000000000000000        0x0 binaries/rand.o
 .note.GNU-stack
                0x0000000000000000        0x0 binaries/sprintf.o
 .note.GNU-stack
                0x0000000000000000        0x0 binaries/sscanf.o
 .note.GNU-stack
                0x0000000000000000        0x0 binaries/strchr.o
 .note.GNU-stack
                0x0000000000000000        0x0 binaries/strcmp.o
 .note.GNU-stack
                0x0000000000000000        0x0 binaries/strcpy.o
 .note.GNU-stack
                0x0000000000000000        0x0 binaries/strlen.o
 .note.GNU-stack
                0x0000000000000000        0x0 binaries/strncat.o
 .note.GNU-stack
                0x0000000000000000        0x0 binaries/strncmp.o
 .note.GNU-stack
                0x0000000000000000        0x0 binaries/strncpy.o
 .note.GNU-stack
                0x0000000000000000        0x0 binaries/strnlen.o
 .note.GNU-stack
                0x0000000000000000        0x0 binaries/strrchr.o
 .note.GNU-stack
                0x0000000000000000        0x0 binaries/strstr.o
 .note.GNU-stack
                0x0000000000000000        0x0 binaries/ttycontrol.o
 .note.GNU-stack
                0x0000000000000000        0x0 binaries/ttygetc.o
 .note.GNU-stack
                0x0000000000000000        0x0 binaries/ttyhandle_in.o
 .note.GNU-stack
                0x0000000000000000        0x0 binaries/ttyhandle_out.o
 .note.GNU-stack
                0x0000000000000000        0x0 binaries/ttyhandler.o
 .note.GNU-stack
                0x0000000000000000        0x0 binaries/ttyinit.o
 .note.GNU-stack
                0x0000000000000000        0x0 binaries/ttykickout.o
 .note.GNU-stack
                0x0000000000000000        0x0 binaries/ttyputc.o
 .note.GNU-stack
                0x0000000000000000        0x0 binaries/ttyread.o
 .note.GNU-stack
                0x0000000000000000        0x0 binaries/ttywrite.o
 .note.GNU-stack
                0x0000000000000000        0x0 binaries/mount.o
 .note.GNU-stack
                0x0000000000000000        0x0 binaries/naminit.o
 .note.GNU-stack
                0x0000000000000000        0x0 binaries/nammap.o
 .note.GNU-stack
                0x0000000000000000        0x0 binaries/namopen.o
 .note.GNU-stack
                0x0000000000000000        0x0 binaries/colon2mac.o
 .note.GNU-stack
                0x0000000000000000        0x0 binaries/ethcontrol.o
 .note.GNU-stack
                0x0000000000000000        0x0 binaries/ethhandler.o
 .note.GNU-stack
                0x0000000000000000        0x0 binaries/ethinit.o
 .note.GNU-stack
                0x0000000000000000        0x0 binaries/ethmcast.o
 .note.GNU-stack
                0x0000000000000000        0x0 binaries/ethread.o
 .note.GNU-stack
                0x0000000000000000        0x0 binaries/ethwrite.o
 .note.GNU-stack
                0x0000000000000000        0x0 binaries/rdsbufalloc.o
 .note.GNU-stack
                0x0000000000000000        0x0 binaries/rdsclose.o
 .note.GNU-stack
                0x0000000000000000        0x0 binaries/rdscomm.o
 .note.GNU-stack
                0x0000000000000000        0x0 binaries/rdscontrol.o
 .note.GNU-stack
                0x0000000000000000        0x0 binaries/rdsinit.o
 .note.GNU-stack
                0x0000000000000000        0x0 binaries/rdsopen.o
 .note.GNU-stack
                0x0000000000000000        0x0 binaries/rdsprocess.o
 .note.GNU-stack
                0x0000000000000000        0x0 binaries/rdsread.o
 .note.GNU-stack
                0x0000000000000000        0x0 binaries/rdswrite.o
 .note.GNU-stack
                0x0000000000000000        0x0 binaries/ramclose.o
 .note.GNU-stack
                0x0000000000000000        0x0 binaries/raminit.o
 .note.GNU-stack
                0x0000000000000000        0x0 binaries/ramopen.o
 .note.GNU-stack
                0x0000000000000000        0x0 binaries/ramread.o
 .note.GNU-stack
                0x0000000000000000        0x0 binaries/ramwrite.o
 .note.GNU-stack
                0x0000000000000000        0x0 binaries/lfdballoc.o
 .note.GNU-stack
                0x0000000000000000        0x0 binaries/lfdbfree.o
 .note.GNU-stack
                0x0000000000000000        0x0 binaries/lfflush.o
 .note.GNU-stack
                0x0000000000000000        0x0 binaries/lfgetmode.o
 .note.GNU-stack
                0x0000000000000000        0x0 binaries/lfiballoc.o
 .note.GNU-stack
                0x0000000000000000        0x0 binaries/lfibclear.o
 .note.GNU-stack
                0x0000000000000000        0x0 binaries/lfibget.o
 .note.GNU-stack
                0x0000000000000000        0x0 binaries/lfibput.o
 .note.GNU-stack
                0x0000000000000000        0x0 binaries/lflclose.o
 .note.GNU-stack
                0x0000000000000000        0x0 binaries/lflcontrol.o
 .note.GNU-stack
                0x0000000000000000        0x0 binaries/lflgetc.o
 .note.GNU-stack
                0x0000000000000000        0x0 binaries/lflinit.o
 .note.GNU-stack
                0x0000000000000000        0x0 binaries/lflputc.o
 .note.GNU-stack
                0x0000000000000000        0x0 binaries/lflread.o
 .note.GNU-stack
                0x0000000000000000        0x0 binaries/lflseek.o
 .note.GNU-stack
                0x0000000000000000        0x0 binaries/lflwrite.o
 .note.GNU-stack
                0x0000000000000000        0x0 binaries/lfsckfmt.o
 .note.GNU-stack
                0x0000000000000000        0x0 binaries/lfscreate.o
 .note.GNU-stack
                0x0000000000000000        0x0 binaries/lfsetup.o
 .note.GNU-stack
                0x0000000000000000        0x0 binaries/lfsinit.o
 .note.GNU-stack
                0x0000000000000000        0x0 binaries/lfsopen.o
 .note.GNU-stack
                0x0000000000000000        0x0 binaries/lftruncate.o
 .note.GNU-stack
                0x0000000000000000        0x0 binaries/rflclose.o
 .note.GNU-stack
                0x0000000000000000        0x0 binaries/rflgetc.o
 .note.GNU-stack
                0x0000000000000000        0x0 binaries/rflinit.o
 .note.GNU-stack
                0x0000000000000000        0x0 binaries/rflputc.o
 .note.GNU-stack
                0x0000000000000000        0x0 binaries/rflread.o
 .note.GNU-stack
                0x0000000000000000        0x0 binaries/rflseek.o
 .note.GNU-stack
                0x0000000000000000        0x0 binaries/rflwrite.o
 .note.GNU-stack
                0x0000000000000000        0x0 binaries/rfscomm.o
 .note.GNU-stack
                0x0000000000000000        0x0 binaries/rfscontrol.o
 .note.GNU-stack
                0x0000000000000000        0x0 binaries/rfsgetmode.o
 .note.GNU-stack
                0x0000000000000000        0x0 binaries/rfsinit.o
 .note.GNU-stack
                0x0000000000000000        0x0 binaries/rfsndmsg.o
 .note.GNU-stack
                0x0000000000000000        0x0 binaries/rfsopen.o
 .note.GNU-stack
                0x0000000000000000        0x0 binaries/arp.o
 .note.GNU-stack
                0x0000000000000000        0x0 binaries/dhcp.o
 .note.GNU-stack
                0x0000000000000000        0x0 binaries/dot2ip.o
 .note.GNU-stack
                0x0000000000000000        0x0 binaries/hexdump.o
 .note.GNU-stack
                0x0000000000000000        0x0 binaries/icmp.o
 .note.GNU-stack
                0x0000000000000000        0x0 binaries/ip.o
 .note.GNU-stack
                0x0000000000000000        0x0 binaries/net.o
 .note.GNU-stack
                0x0000000000000000        0x0 binaries/netstart.o
 .note.GNU-stack
                0x0000000000000000        0x0 binaries/pdump.o
 .note.GNU-stack
                0x0000000000000000        0x0 binaries/tftp.o
 .note.GNU-stack
                0x0000000000000000        0x0 binaries/udp.o
 .note.GNU-stack
                0x0000000000000000        0x0 binaries/addargs.o
 .note.GNU-stack
                0x0000000000000000        0x0 binaries/lexan.o
 .note.GNU-stack
                0x0000000000000000        0x0 binaries/shell.o
 .note.GNU-stack
                0x0000000000000000        0x0 binaries/xsh_argecho.o
 .note.GNU-stack
                0x0000000000000000        0x0 binaries/xsh_arp.o
 .note.GNU-stack
                0x0000000000000000        0x0 binaries/xsh_cat.o
 .note.GNU-stack
                0x0000000000000000        0x0 binaries/xsh_clear.o
 .note.GNU-stack
                0x0000000000000000        0x0 binaries/xsh_date.o
 .note.GNU-stack
                0x0000000000000000        0x0 binaries/xsh_devdump.o
 .note.GNU-stack
                0x0000000000000000        0x0 binaries/xsh_echo.o
 .note.GNU-stack
                0x0000000000000000        0x0 binaries/xsh_exit.o
 .note.GNU-stack
                0x0000000000000000        0x0 binaries/xsh_help.o
 .note.GNU-stack
                0x0000000000000000        0x0 binaries/xsh_ipaddr.o
 .note.GNU-stack
                0x0000000000000000        0x0 binaries/xsh_kill.o
 .note.GNU-stack
                0x0000000000000000        0x0 binaries/xsh_memdump.o
 .note.GNU-stack
                0x0000000000000000        0x0 binaries/xsh_memstat.o
 .note.GNU-stack
                0x0000000000000000        0x0 binaries/xsh_ping.o
 .note.GNU-stack
                0x0000000000000000        0x0 binaries/xsh_ps.o
 .note.GNU-stack
                0x0000000000000000        0x0 binaries/xsh_sleep.o
 .note.GNU-stack
                0x0000000000000000        0x0 binaries/xsh_udpdump.o
 .note.GNU-stack
                0x0000000000000000        0x0 binaries/xsh_udpecho.o
 .note.GNU-stack
                0x0000000000000000        0x0 binaries/xsh_udpeserver.o
 .note.GNU-stack
                0x0000000000000000        0x0 binaries/xsh_uptime.o
 .note.GNU-stack
                0x0000000000000000        0x0 binaries/host2netlc.o
