
Allocating common symbols
Common symbol       size              file

netbufpool          0x4               binaries/net.o
readylist           0x2               binaries/ready.o
rfltab              0x5a0             binaries/rflinit.o
sleepq              0x2               binaries/clkinit.o
nnames              0x4               binaries/naminit.o
udptab              0x168             binaries/udp.o
minheap             0x4               binaries/meminit.o
marks               0x50              binaries/mark.o
currpid             0x4               binaries/initialize.o
Lf_data             0x20c             binaries/lfsinit.o
porttab             0x2d0             binaries/ptinit.o
girmask             0x2               binaries/evec.o
ttytab              0x10c             binaries/ttyinit.o
proctab             0x1900            binaries/initialize.o
prcount             0x4               binaries/initialize.o
lfltab              0xf00             binaries/lflinit.o
rdstab              0x8c              binaries/rdsinit.o
ethertab            0x138             binaries/ethinit.o
NetData             0xa8              binaries/net.o
nmarks              0x4               binaries/mark.o
Defer               0x8               binaries/resched.o
semtab              0x4b0             binaries/initialize.o
maxheap             0x4               binaries/meminit.o
preempt             0x4               binaries/clkinit.o
buftab              0xf0              binaries/bufinit.o
Rf_data             0x18              binaries/rfsinit.o
mkmutex             0x4               binaries/mark.o
clktimemsec         0x4               binaries/clkinit.o
clktime             0x4               binaries/clkinit.o
arpcache            0x140             binaries/arp.o
icmptab             0x230             binaries/icmp.o
nbpools             0x4               binaries/bufinit.o
queuetab            0x980             binaries/queue.o
ptnextid            0x4               binaries/ptinit.o
Ram                 0x19000           binaries/raminit.o
ipoqueue            0x2c              binaries/ip.o
memlist             0x8               binaries/initialize.o
nametab             0x19a0            binaries/naminit.o
ptfree              0x4               binaries/ptinit.o

Memory Configuration

Name             Origin             Length             Attributes
*default*        0x0000000000000000 0xffffffffffffffff

Linker script and memory map

                0x0000000000100000                physbase = 0x100000
                0x0000000000100000                . = physbase
                0x0000000000100000                . = ALIGN (0x1000)

.text           0x0000000000100000    0x15000
                0x0000000000100000                text = ABSOLUTE (.)
 *(.text .text.*)
 .text          0x0000000000100000      0x1ac binaries/start.o
                0x0000000000100028                start
                0x00000000001000fa                inb
                0x0000000000100102                inw
                0x000000000010010b                inl
                0x0000000000100113                outb
                0x000000000010011d                outw
                0x0000000000100128                outl
                0x0000000000100132                _rtcin
                0x000000000010013d                ___udivsi3
                0x0000000000100148                ___divsi3
                0x0000000000100154                sbzero
                0x0000000000100164                bcopy
                0x0000000000100178                insw
                0x000000000010018e                outsw
                0x00000000001001a4                lidt
 .text          0x00000000001001ac       0x28 binaries/app1.o
                0x00000000001001ac                app1
 .text          0x00000000001001d4       0x63 binaries/app2.o
                0x00000000001001d4                app2
 .text          0x0000000000100237       0x80 binaries/app3.o
                0x0000000000100237                app3
 .text          0x00000000001002b7       0x36 binaries/app_lim.o
                0x00000000001002b7                app_lim
                0x00000000001002cc                app_sleep
 .text          0x00000000001002ed       0x1b binaries/app_unlim.o
                0x00000000001002ed                app_unlim
 .text          0x0000000000100308      0x2b9 binaries/ascdate.o
                0x0000000000100308                ascdate
 .text          0x00000000001005c1       0x14 binaries/bufinit.o
                0x00000000001005c1                bufinit
 .text          0x00000000001005d5       0x62 binaries/chprio.o
                0x00000000001005d5                chprio
 .text          0x0000000000100637       0x7a binaries/clkhandler.o
                0x0000000000100637                clkhandler
 .text          0x00000000001006b1       0x67 binaries/clkinit.o
                0x00000000001006b1                clkinit
 .text          0x0000000000100718       0x56 binaries/close.o
                0x0000000000100718                close
 .text          0x000000000010076e        0x0 binaries/conf.o
 .text          0x000000000010076e       0x5c binaries/control.o
                0x000000000010076e                control
 .text          0x00000000001007ca       0x8c binaries/cpubound.o
                0x00000000001007ca                cpubound
 .text          0x0000000000100856      0x27c binaries/create.o
                0x0000000000100856                create
 .text          0x0000000000100ad2      0x20e binaries/early_imr.o
                0x0000000000100ad2                intel_cln_early_sb_read_reg
                0x0000000000100b29                intel_cln_early_sb_write_reg
                0x0000000000100be3                remove_irm_protections
 .text          0x0000000000100ce0      0x2e2 binaries/evec.o
                0x0000000000100ce0                setirmask
                0x0000000000100d18                set_evec
                0x0000000000100d73                initevec
                0x0000000000100e45                trap
 .text          0x0000000000100fc2       0xf7 binaries/f1.o
                0x0000000000100fc2                f4
                0x0000000000100ffc                f3
                0x000000000010103b                f2
                0x000000000010107a                f1
 .text          0x00000000001010b9       0x7f binaries/freebuf.o
                0x00000000001010b9                freebuf
 .text          0x0000000000101138      0x108 binaries/freemem.o
                0x0000000000101138                freemem
 .text          0x0000000000101240       0x6e binaries/getbuf.o
                0x0000000000101240                getbuf
 .text          0x00000000001012ae       0x56 binaries/getc.o
                0x00000000001012ae                getc
 .text          0x0000000000101304       0x69 binaries/getdev.o
                0x0000000000101304                getdev
 .text          0x000000000010136d       0x82 binaries/getitem.o
                0x000000000010136d                getitem
                0x000000000010139c                getfirst
                0x00000000001013c3                getlast
 .text          0x00000000001013ef       0xc2 binaries/getmem.o
                0x00000000001013ef                getmem
 .text          0x00000000001014b1        0xa binaries/getpid.o
                0x00000000001014b1                getpid
 .text          0x00000000001014bb       0x13 binaries/getppid.o
                0x00000000001014bb                getppid
 .text          0x00000000001014ce       0x54 binaries/getprio.o
                0x00000000001014ce                getprio
 .text          0x0000000000101522       0xac binaries/getstk.o
                0x0000000000101522                getstk
 .text          0x00000000001015ce       0x32 binaries/gettime.o
                0x00000000001015ce                gettime
 .text          0x0000000000101600      0x186 binaries/getutime.o
                0x0000000000101600                getutime
 .text          0x0000000000101786       0x13 binaries/host2netlb.o
                0x0000000000101786                host2netlb
 .text          0x0000000000101799       0x56 binaries/init.o
                0x0000000000101799                init
 .text          0x00000000001017ef      0x265 binaries/initialize.o
                0x00000000001017ef                nulluser
                0x0000000000101a0a                stop
                0x0000000000101a2e                delay
 .text          0x0000000000101a54       0xd8 binaries/insert.o
                0x0000000000101a54                insert
 .text          0x0000000000101b2c       0xe8 binaries/insertd.o
                0x0000000000101b2c                insertd
 .text          0x0000000000101c14       0x88 binaries/iobound.o
                0x0000000000101c14                iobound
 .text          0x0000000000101c9c        0xa binaries/ioerr.o
                0x0000000000101c9c                ioerr
 .text          0x0000000000101ca6        0xa binaries/ionull.o
                0x0000000000101ca6                ionull
 .text          0x0000000000101cb0      0x158 binaries/kill.o
                0x0000000000101cb0                kill
 .text          0x0000000000101e08       0xa9 binaries/kprintf.o
                0x0000000000101e08                kputc
                0x0000000000101e3a                console_init
                0x0000000000101e6d                kgetc
                0x0000000000101e93                kprintf
 .text          0x0000000000101eb1      0x14f binaries/lab2q3.o
                0x0000000000101eb1                lab2q3t1
 .text          0x0000000000102000       0xef binaries/lab2q4.o
                0x0000000000102000                lab2q4t1
                0x0000000000102042                lab2q4t2
                0x0000000000102083                lab2q4t3
 .text          0x00000000001020ef       0x68 binaries/lab2q5.o
                0x00000000001020ef                lab2q5t1
 .text          0x0000000000102157       0x87 binaries/main.o
                0x0000000000102157                homework3
                0x0000000000102164                main
 .text          0x00000000001021de       0x99 binaries/mark.o
                0x00000000001021de                markinit
                0x00000000001021ff                mark
 .text          0x0000000000102277      0x1ff binaries/meminit.o
                0x0000000000102277                meminit
                0x0000000000102406                setsegs
 .text          0x0000000000102476      0x122 binaries/mkbufpool.o
                0x0000000000102476                mkbufpool
 .text          0x0000000000102598       0xa2 binaries/myappA.o
                0x0000000000102598                myappA
 .text          0x000000000010263a       0x77 binaries/myfuncA.o
                0x000000000010263a                myfuncA
 .text          0x00000000001026b1       0x6e binaries/myhacker.o
                0x00000000001026b1                myhackermalware
                0x00000000001026e2                myhacker
 .text          0x000000000010271f       0x7b binaries/myvictim.o
                0x000000000010271f                myvictim2
                0x0000000000102747                myvictim1
                0x0000000000102752                myvictim
 .text          0x000000000010279a       0x15 binaries/mywelcomemsg.o
                0x000000000010279a                mywelcomemsg
 .text          0x00000000001027af       0xa0 binaries/newqueue.o
                0x00000000001027af                newqueue
 .text          0x000000000010284f       0x5c binaries/open.o
                0x000000000010284f                open
 .text          0x00000000001028ab       0x20 binaries/panic.o
                0x00000000001028ab                panic
 .text          0x00000000001028cb      0x282 binaries/pci.o
                0x00000000001028cb                pci_init
                0x00000000001028d5                find_pci_device
                0x0000000000102994                pci_read_config_byte
                0x00000000001029d2                pci_read_config_word
                0x0000000000102a12                pci_read_config_dword
                0x0000000000102a50                pci_write_config_byte
                0x0000000000102a8c                pci_write_config_word
                0x0000000000102ac9                pci_write_config_dword
                0x0000000000102b05                pci_get_dev_mmio_base_addr
 .text          0x0000000000102b4d       0x50 binaries/platinit.o
                0x0000000000102b4d                platinit
 .text          0x0000000000102b9d      0x100 binaries/printprstate.o
                0x0000000000102b9d                prtprstate
 .text          0x0000000000102c9d      0x122 binaries/prntsegaddr.o
                0x0000000000102c9d                prntsegaddr
 .text          0x0000000000102dbf       0xa9 binaries/ptclear.o
                0x0000000000102dbf                _ptclear
 .text          0x0000000000102e68       0x85 binaries/ptcount.o
                0x0000000000102e68                ptcount
 .text          0x0000000000102eed       0xfe binaries/ptcreate.o
                0x0000000000102eed                ptcreate
 .text          0x0000000000102feb       0x63 binaries/ptdelete.o
                0x0000000000102feb                ptdelete
 .text          0x000000000010304e       0x91 binaries/ptinit.o
                0x000000000010304e                ptinit
 .text          0x00000000001030df       0xf5 binaries/ptrecv.o
                0x00000000001030df                ptrecv
 .text          0x00000000001031d4       0x66 binaries/ptreset.o
                0x00000000001031d4                ptreset
 .text          0x000000000010323a      0x115 binaries/ptsend.o
                0x000000000010323a                ptsend
 .text          0x000000000010334f       0x64 binaries/putc.o
                0x000000000010334f                putc
 .text          0x00000000001033b3       0xb3 binaries/quark_irq.o
                0x00000000001033b3                quark_irq_routing
 .text          0x0000000000103466      0x19a binaries/quark_pdat.o
                0x0000000000103466                get_quark_pdat_entry_data_by_id
                0x0000000000103530                get_quark_pdat_entry_data_by_desc
 .text          0x0000000000103600       0xae binaries/queue.o
                0x0000000000103600                enqueue
                0x0000000000103663                dequeue
 .text          0x00000000001036ae       0x5c binaries/read.o
                0x00000000001036ae                read
 .text          0x000000000010370a       0x61 binaries/ready.o
                0x000000000010370a                ready
 .text          0x000000000010376b       0x5a binaries/receive.o
                0x000000000010376b                receive
 .text          0x00000000001037c5       0x42 binaries/recvclr.o
                0x00000000001037c5                recvclr
 .text          0x0000000000103807       0xad binaries/recvtime.o
                0x0000000000103807                recvtime
 .text          0x00000000001038b4      0x1ad binaries/resched.o
                0x00000000001038b4                resched
                0x00000000001039ef                resched_cntl
 .text          0x0000000000103a61       0x7e binaries/resume.o
                0x0000000000103a61                resume
 .text          0x0000000000103adf       0x59 binaries/seek.o
                0x0000000000103adf                seek
 .text          0x0000000000103b38       0x51 binaries/semcount.o
                0x0000000000103b38                semcount
 .text          0x0000000000103b89       0x93 binaries/semcreate.o
                0x0000000000103b89                semcreate
 .text          0x0000000000103c1c       0xd1 binaries/semdelete.o
                0x0000000000103c1c                semdelete
 .text          0x0000000000103ced       0xa8 binaries/semreset.o
                0x0000000000103ced                semreset
 .text          0x0000000000103d95       0xb3 binaries/send.o
                0x0000000000103d95                send
 .text          0x0000000000103e48       0x95 binaries/signal.o
                0x0000000000103e48                signal
 .text          0x0000000000103edd       0xc2 binaries/signaln.o
                0x0000000000103edd                signaln
 .text          0x0000000000103f9f       0xbd binaries/sleep.o
                0x0000000000103f9f                sleepms
                0x0000000000104026                sleep
 .text          0x000000000010405c       0x7d binaries/stackdepth.o
                0x000000000010405c                stackdepth
 .text          0x00000000001040d9      0x17c binaries/stacktrace.o
                0x00000000001040d9                stacktrace
 .text          0x0000000000104255       0xac binaries/suspend.o
                0x0000000000104255                suspend
 .text          0x0000000000104301       0x91 binaries/unsleep.o
                0x0000000000104301                unsleep
 .text          0x0000000000104392       0x19 binaries/userret.o
                0x0000000000104392                userret
 .text          0x00000000001043ab       0xac binaries/wait.o
                0x00000000001043ab                wait
 .text          0x0000000000104457       0x71 binaries/wakeup.o
                0x0000000000104457                wakeup
 .text          0x00000000001044c8       0x5c binaries/write.o
                0x00000000001044c8                write
 .text          0x0000000000104524       0x1a binaries/xdone.o
                0x0000000000104524                xdone
 .text          0x000000000010453e       0x26 binaries/yield.o
                0x000000000010453e                yield
 .text          0x0000000000104564       0x11 binaries/abs.o
                0x0000000000104564                abs
 .text          0x0000000000104575       0x84 binaries/atoi.o
                0x0000000000104575                atoi
 .text          0x00000000001045f9       0x84 binaries/atol.o
                0x00000000001045f9                atol
 .text          0x000000000010467d       0x1a binaries/bzero.o
                0x000000000010467d                bzero
 .text          0x0000000000104697        0x0 binaries/ctype_.o
 .text          0x0000000000104697      0x6bf binaries/doprnt.o
                0x00000000001047ea                _doprnt
 .text          0x0000000000104d56      0x5f2 binaries/doscan.o
                0x0000000000104d56                _doscan
 .text          0x0000000000105348      0x64e binaries/fdoprnt.o
                0x00000000001053cd                _fdoprnt
 .text          0x0000000000105996       0x1c binaries/fgetc.o
                0x0000000000105996                fgetc
 .text          0x00000000001059b2       0x61 binaries/fgets.o
                0x00000000001059b2                fgets
 .text          0x0000000000105a13       0x21 binaries/fprintf.o
                0x0000000000105a13                fprintf
 .text          0x0000000000105a34       0x27 binaries/fputc.o
                0x0000000000105a34                fputc
 .text          0x0000000000105a5b       0x3a binaries/fputs.o
                0x0000000000105a5b                fputs
 .text          0x0000000000105a95       0x6a binaries/fscanf.o
                0x0000000000105ad3                fscanf
 .text          0x0000000000105aff       0x1d binaries/getchar.o
                0x0000000000105aff                getchar
 .text          0x0000000000105b1c       0x11 binaries/labs.o
                0x0000000000105b1c                labs
 .text          0x0000000000105b2d       0x36 binaries/memchr.o
                0x0000000000105b2d                memchr
 .text          0x0000000000105b63       0x4a binaries/memcmp.o
                0x0000000000105b63                memcmp
 .text          0x0000000000105bad       0x26 binaries/memcpy.o
                0x0000000000105bad                memcpy
 .text          0x0000000000105bd3       0x1f binaries/memset.o
                0x0000000000105bd3                memset
 .text          0x0000000000105bf2       0x2e binaries/printf.o
                0x0000000000105bf2                printf
 .text          0x0000000000105c20       0x20 binaries/putchar.o
                0x0000000000105c20                putchar
 .text          0x0000000000105c40      0x1cc binaries/qsort.o
                0x0000000000105de4                qsort
 .text          0x0000000000105e0c       0x4c binaries/rand.o
                0x0000000000105e0c                srand
                0x0000000000105e19                rand
 .text          0x0000000000105e58       0x48 binaries/sprintf.o
                0x0000000000105e71                sprintf
 .text          0x0000000000105ea0       0x5a binaries/sscanf.o
                0x0000000000105ed0                sscanf
 .text          0x0000000000105efa       0x2f binaries/strchr.o
                0x0000000000105efa                strchr
 .text          0x0000000000105f29       0x45 binaries/strcmp.o
                0x0000000000105f29                strcmp
 .text          0x0000000000105f6e       0x1c binaries/strcpy.o
                0x0000000000105f6e                strcpy
 .text          0x0000000000105f8a       0x20 binaries/strlen.o
                0x0000000000105f8a                strlen
 .text          0x0000000000105faa       0x3d binaries/strncat.o
                0x0000000000105faa                strncat
 .text          0x0000000000105fe7       0x3b binaries/strncmp.o
                0x0000000000105fe7                strncmp
 .text          0x0000000000106022       0x59 binaries/strncpy.o
                0x0000000000106022                strncpy
 .text          0x000000000010607b       0x38 binaries/strnlen.o
                0x000000000010607b                strnlen
 .text          0x00000000001060b3       0x32 binaries/strrchr.o
                0x00000000001060b3                strrchr
 .text          0x00000000001060e5       0x68 binaries/strstr.o
                0x00000000001060e5                strstr
 .text          0x000000000010614d      0x112 binaries/ttycontrol.o
                0x000000000010614d                ttycontrol
 .text          0x000000000010625f       0xb0 binaries/ttygetc.o
                0x000000000010625f                ttygetc
 .text          0x000000000010630f      0x4a3 binaries/ttyhandle_in.o
                0x00000000001063d3                ttyhandle_in
 .text          0x00000000001067b2      0x178 binaries/ttyhandle_out.o
                0x00000000001067b2                ttyhandle_out
 .text          0x000000000010692a       0x85 binaries/ttyhandler.o
                0x000000000010692a                ttyhandler
 .text          0x00000000001069af      0x15d binaries/ttyinit.o
                0x00000000001069af                ttyinit
 .text          0x0000000000106b0c        0xf binaries/ttykickout.o
                0x0000000000106b0c                ttykickout
 .text          0x0000000000106b1b       0xb2 binaries/ttyputc.o
                0x0000000000106b1b                ttyputc
 .text          0x0000000000106bcd       0xff binaries/ttyread.o
                0x0000000000106bcd                ttyread
 .text          0x0000000000106ccc       0x4d binaries/ttywrite.o
                0x0000000000106ccc                ttywrite
 .text          0x0000000000106d19      0x129 binaries/mount.o
                0x0000000000106d19                namlen
                0x0000000000106d55                mount
 .text          0x0000000000106e42      0x1c4 binaries/naminit.o
                0x0000000000106e42                naminit
 .text          0x0000000000107006      0x1fe binaries/nammap.o
                0x0000000000107006                namrepl
                0x0000000000107129                namcpy
                0x0000000000107177                nammap
 .text          0x0000000000107204       0x44 binaries/namopen.o
                0x0000000000107204                namopen
 .text          0x0000000000107248       0xd4 binaries/colon2mac.o
                0x0000000000107248                colon2mac
 .text          0x000000000010731c       0x7d binaries/ethcontrol.o
                0x000000000010731c                ethcontrol
 .text          0x0000000000107399      0x17e binaries/ethhandler.o
                0x0000000000107399                ethhandler
 .text          0x0000000000107517      0x548 binaries/ethinit.o
                0x0000000000107517                eth_phy_read
                0x0000000000107557                eth_phy_write
                0x0000000000107598                eth_phy_reset
                0x0000000000107672                ethinit
 .text          0x0000000000107a5f      0x107 binaries/ethmcast.o
                0x0000000000107a5f                ethmcast_add
                0x0000000000107aab                ethmcast_remove
 .text          0x0000000000107b66      0x172 binaries/ethread.o
                0x0000000000107b66                ethread
 .text          0x0000000000107cd8       0xc1 binaries/ethwrite.o
                0x0000000000107cd8                ethwrite
 .text          0x0000000000107d99       0x68 binaries/rdsbufalloc.o
                0x0000000000107d99                rdsbufalloc
 .text          0x0000000000107e01       0xd6 binaries/rdsclose.o
                0x0000000000107e01                rdsclose
 .text          0x0000000000107ed7      0x1df binaries/rdscomm.o
                0x0000000000107ed7                rdscomm
 .text          0x00000000001080b6      0x1c4 binaries/rdscontrol.o
                0x00000000001080b6                rdscontrol
 .text          0x000000000010827a      0x1f7 binaries/rdsinit.o
                0x000000000010827a                rdsinit
 .text          0x0000000000108471      0x199 binaries/rdsopen.o
                0x0000000000108471                rdsopen
 .text          0x000000000010860a      0x2c5 binaries/rdsprocess.o
                0x000000000010860a                rdsprocess
 .text          0x00000000001088cf      0x1d8 binaries/rdsread.o
                0x00000000001088cf                rdsread
 .text          0x0000000000108aa7      0x1ae binaries/rdswrite.o
                0x0000000000108aa7                rdswrite
 .text          0x0000000000108c55        0xa binaries/ramclose.o
                0x0000000000108c55                ramclose
 .text          0x0000000000108c5f       0x35 binaries/raminit.o
                0x0000000000108c5f                raminit
 .text          0x0000000000108c94        0xa binaries/ramopen.o
                0x0000000000108c94                ramopen
 .text          0x0000000000108c9e       0x26 binaries/ramread.o
                0x0000000000108c9e                ramread
 .text          0x0000000000108cc4       0x26 binaries/ramwrite.o
                0x0000000000108cc4                ramwrite
 .text          0x0000000000108cea       0x87 binaries/lfdballoc.o
                0x0000000000108cea                lfdballoc
 .text          0x0000000000108d71       0x49 binaries/lfdbfree.o
                0x0000000000108d71                lfdbfree
 .text          0x0000000000108dba       0xa1 binaries/lfflush.o
                0x0000000000108dba                lfflush
 .text          0x0000000000108e5b       0x82 binaries/lfgetmode.o
                0x0000000000108e5b                lfgetmode
 .text          0x0000000000108edd       0x60 binaries/lfiballoc.o
                0x0000000000108edd                lfiballoc
 .text          0x0000000000108f3d       0x27 binaries/lfibclear.o
                0x0000000000108f3d                lfibclear
 .text          0x0000000000108f64       0x6c binaries/lfibget.o
                0x0000000000108f64                lfibget
 .text          0x0000000000108fd0       0x88 binaries/lfibput.o
                0x0000000000108fd0                lfibput
 .text          0x0000000000109058       0xa4 binaries/lflclose.o
                0x0000000000109058                lflclose
 .text          0x00000000001090fc       0xc2 binaries/lflcontrol.o
                0x00000000001090fc                lflcontrol
 .text          0x00000000001091be       0xfd binaries/lflgetc.o
                0x00000000001091be                lflgetc
 .text          0x00000000001092bb       0xe7 binaries/lflinit.o
                0x00000000001092bb                lflinit
 .text          0x00000000001093a2      0x12f binaries/lflputc.o
                0x00000000001093a2                lflputc
 .text          0x00000000001094d1       0x6b binaries/lflread.o
                0x00000000001094d1                lflread
 .text          0x000000000010953c       0xbd binaries/lflseek.o
                0x000000000010953c                lflseek
 .text          0x00000000001095f9       0x52 binaries/lflwrite.o
                0x00000000001095f9                lflwrite
 .text          0x000000000010964b      0x114 binaries/lfsckfmt.o
                0x000000000010964b                lfsckfmt
 .text          0x000000000010975f      0x1e6 binaries/lfscreate.o
                0x000000000010975f                lfscreate
 .text          0x0000000000109945      0x1b1 binaries/lfsetup.o
                0x0000000000109945                lfsetup
 .text          0x0000000000109af6       0x45 binaries/lfsinit.o
                0x0000000000109af6                lfsinit
 .text          0x0000000000109b3b      0x302 binaries/lfsopen.o
                0x0000000000109b3b                lfsopen
 .text          0x0000000000109e3d      0x112 binaries/lftruncate.o
                0x0000000000109e3d                lftruncate
 .text          0x0000000000109f4f       0x69 binaries/rflclose.o
                0x0000000000109f4f                rflclose
 .text          0x0000000000109fb8       0x29 binaries/rflgetc.o
                0x0000000000109fb8                rflgetc
 .text          0x0000000000109fe1       0x6c binaries/rflinit.o
                0x0000000000109fe1                rflinit
 .text          0x000000000010a04d       0x29 binaries/rflputc.o
                0x000000000010a04d                rflputc
 .text          0x000000000010a076      0x2b6 binaries/rflread.o
                0x000000000010a076                rflread
 .text          0x000000000010a32c       0x68 binaries/rflseek.o
                0x000000000010a32c                rflseek
 .text          0x000000000010a394      0x2fa binaries/rflwrite.o
                0x000000000010a394                rflwrite
 .text          0x000000000010a68e      0x17d binaries/rfscomm.o
                0x000000000010a68e                rfscomm
 .text          0x000000000010a80b      0x22b binaries/rfscontrol.o
                0x000000000010a80b                rfscontrol
 .text          0x000000000010aa36       0x82 binaries/rfsgetmode.o
                0x000000000010aa36                rfsgetmode
 .text          0x000000000010aab8       0x7e binaries/rfsinit.o
                0x000000000010aab8                rfsinit
 .text          0x000000000010ab36       0xad binaries/rfsndmsg.o
                0x000000000010ab36                rfsndmsg
 .text          0x000000000010abe3      0x243 binaries/rfsopen.o
                0x000000000010abe3                rfsopen
 .text          0x000000000010ae26      0x626 binaries/arp.o
                0x000000000010ae26                arp_init
                0x000000000010ae42                arp_alloc
                0x000000000010aee9                arp_ntoh
                0x000000000010af56                arp_hton
                0x000000000010afc3                arp_resolve
                0x000000000010b214                arp_in
 .text          0x000000000010b44c      0x5ed binaries/dhcp.o
                0x000000000010b44c                dhcp_get_opt_val
                0x000000000010b4a0                dhcp_bld_bootp_msg
                0x000000000010b572                dhcp_bld_disc
                0x000000000010b5c4                dhcp_bld_req
                0x000000000010b65f                getlocalip
 .text          0x000000000010ba39       0xda binaries/dot2ip.o
                0x000000000010ba39                dot2ip
 .text          0x000000000010bb13      0x38c binaries/hexdump.o
                0x000000000010bb13                hexdump
                0x000000000010bc6d                hexadump
 .text          0x000000000010be9f      0x6f6 binaries/icmp.o
                0x000000000010be9f                icmp_init
                0x000000000010bebb                icmp_register
                0x000000000010bf79                icmp_recv
                0x000000000010c11c                icmp_mkpkt
                0x000000000010c1e9                icmp_in
                0x000000000010c383                icmp_send
                0x000000000010c3f2                icmp_release
                0x000000000010c50d                icmp_cksum
                0x000000000010c567                icmp_hton
                0x000000000010c57e                icmp_ntoh
 .text          0x000000000010c595      0x5e2 binaries/ip.o
                0x000000000010c595                ip_local
                0x000000000010c5d5                ipcksum
                0x000000000010c62b                ip_ntoh
                0x000000000010c698                ip_in
                0x000000000010c7bd                ip_hton
                0x000000000010c82a                ip_out
                0x000000000010c8e0                ip_send
                0x000000000010c9eb                ipout
                0x000000000010cade                ip_enqueue
 .text          0x000000000010cb77      0x1b2 binaries/net.o
                0x000000000010cb77                net_init
                0x000000000010cc6e                eth_hton
                0x000000000010cc7b                eth_ntoh
                0x000000000010cc88                netin
 .text          0x000000000010cd29       0xb9 binaries/netstart.o
                0x000000000010cd29                netstart
 .text          0x000000000010cde2      0xa30 binaries/pdump.o
                0x000000000010cde2                pdump
                0x000000000010d3c7                pdumph
 .text          0x000000000010d812      0x5b8 binaries/tftp.o
                0x000000000010d812                tftp_send1
                0x000000000010d926                tftpget_mb
                0x000000000010dda7                tftpget
 .text          0x000000000010ddca      0xa17 binaries/udp.o
                0x000000000010ddca                udp_init
                0x000000000010de0b                udp_in
                0x000000000010df34                udp_register
                0x000000000010e045                udp_recv
                0x000000000010e1de                udp_recvaddr
                0x000000000010e38b                udp_send
                0x000000000010e539                udp_sendto
                0x000000000010e6a2                udp_release
                0x000000000010e7b3                udp_ntoh
                0x000000000010e7ca                udp_hton
 .text          0x000000000010e7e1      0x10e binaries/addargs.o
                0x000000000010e7e1                addargs
 .text          0x000000000010e8ef      0x1db binaries/lexan.o
                0x000000000010e8ef                lexan
 .text          0x000000000010eaca      0x644 binaries/shell.o
                0x000000000010eaca                shell
 .text          0x000000000010f10e       0x59 binaries/xsh_argecho.o
                0x000000000010f10e                xsh_argecho
 .text          0x000000000010f167      0x1fb binaries/xsh_arp.o
                0x000000000010f167                xsh_arp
 .text          0x000000000010f362      0x1db binaries/xsh_cat.o
                0x000000000010f362                xsh_cat
 .text          0x000000000010f53d       0x4f binaries/xsh_clear.o
                0x000000000010f53d                xsh_clear
 .text          0x000000000010f58c      0x278 binaries/xsh_date.o
                0x000000000010f58c                xsh_date
 .text          0x000000000010f804       0x80 binaries/xsh_devdump.o
                0x000000000010f804                xsh_devdump
 .text          0x000000000010f884       0x63 binaries/xsh_echo.o
                0x000000000010f884                xsh_echo
 .text          0x000000000010f8e7        0xa binaries/xsh_exit.o
                0x000000000010f8e7                xsh_exit
 .text          0x000000000010f8f1      0x323 binaries/xsh_help.o
                0x000000000010f8f1                xsh_help
 .text          0x000000000010fc14      0x367 binaries/xsh_ipaddr.o
                0x000000000010fc14                xsh_ipaddr
 .text          0x000000000010ff7b      0x1aa binaries/xsh_kill.o
                0x000000000010ff7b                xsh_kill
 .text          0x0000000000110125      0x3bd binaries/xsh_memdump.o
                0x00000000001101eb                xsh_memdump
 .text          0x00000000001104e2      0x1cc binaries/xsh_memstat.o
                0x00000000001104e2                xsh_memstat
 .text          0x00000000001106ae      0x27f binaries/xsh_ping.o
                0x00000000001106ae                xsh_ping
 .text          0x000000000011092d      0x19c binaries/xsh_ps.o
                0x000000000011092d                xsh_ps
 .text          0x0000000000110ac9      0x1a3 binaries/xsh_sleep.o
                0x0000000000110ac9                xsh_sleep
 .text          0x0000000000110c6c      0x1c3 binaries/xsh_udpdump.o
                0x0000000000110c6c                xsh_udpdump
 .text          0x0000000000110e2f      0x3ad binaries/xsh_udpecho.o
                0x0000000000110e2f                xsh_udpecho
 .text          0x00000000001111dc      0x1fc binaries/xsh_udpeserver.o
                0x00000000001111dc                xsh_udpeserver
 .text          0x00000000001113d8      0x1b0 binaries/xsh_uptime.o
                0x00000000001113d8                xsh_uptime
 .text          0x0000000000111588        0xe binaries/clkdisp.o
                0x0000000000111588                clkdisp
 .text          0x0000000000111596       0x19 binaries/ctxsw.o
                0x0000000000111596                ctxsw
 .text          0x00000000001115af        0xf binaries/host2netla.o
                0x00000000001115af                host2netla
 .text          0x00000000001115be       0x2f binaries/host2netlc.o
                0x00000000001115be                host2netlc
 .text          0x00000000001115ed      0x36b binaries/intr.o
                0x00000000001115ed                disable
                0x00000000001115f6                restore
                0x0000000000111604                enable
                0x0000000000111606                pause
                0x000000000011160d                halt
                0x0000000000111613                spurious_irq7
                0x0000000000111618                spurious_irq15
                0x0000000000111627                _Xint0
                0x0000000000111632                _Xint1
                0x000000000011163d                _Xint2
                0x0000000000111648                _Xint3
                0x0000000000111653                _Xint4
                0x000000000011165e                _Xint5
                0x0000000000111669                _Xint6
                0x0000000000111674                _Xint7
                0x000000000011167f                _Xint8
                0x000000000011168a                _Xint9
                0x0000000000111695                _Xint10
                0x00000000001116a0                _Xint11
                0x00000000001116ae                _Xint12
                0x00000000001116bc                _Xint13
                0x00000000001116ca                _Xint14
                0x00000000001116d8                _Xint15
                0x00000000001116e6                _Xint16
                0x00000000001116f4                _Xint17
                0x0000000000111702                _Xint18
                0x0000000000111710                _Xint19
                0x000000000011171e                _Xint20
                0x000000000011172c                _Xint21
                0x000000000011173a                _Xint22
                0x0000000000111748                _Xint23
                0x0000000000111756                _Xint24
                0x0000000000111764                _Xint25
                0x0000000000111772                _Xint26
                0x0000000000111780                _Xint27
                0x000000000011178e                _Xint28
                0x000000000011179c                _Xint29
                0x00000000001117aa                _Xint30
                0x00000000001117b8                _Xint31
                0x00000000001117c6                _Xint32
                0x00000000001117d4                _Xint33
                0x00000000001117e2                _Xint34
                0x00000000001117f0                _Xint35
                0x00000000001117fe                _Xint36
                0x000000000011180c                _Xint37
                0x000000000011181a                _Xint38
                0x0000000000111828                _Xint39
                0x0000000000111836                _Xint40
                0x0000000000111844                _Xint41
                0x0000000000111852                _Xint42
                0x0000000000111860                _Xint43
                0x000000000011186e                _Xint44
                0x000000000011187c                _Xint45
                0x000000000011188a                _Xint46
                0x0000000000111898                defevec
 .text          0x0000000000111958        0xf binaries/ttydispatch.o
                0x0000000000111958                ttydispatch
 .text          0x0000000000111967       0x13 binaries/ethdispatch.o
                0x0000000000111967                ethdispatch
 *(.rodata .rodata.*)
 .rodata.str1.1
                0x000000000011197a       0x2a binaries/app1.o
 .rodata.str1.1
                0x00000000001119a4       0x2e binaries/app2.o
 .rodata.str1.1
                0x00000000001119d2       0x78 binaries/app3.o
 .rodata.str1.1
                0x0000000000111a4a       0x12 binaries/app_lim.o
 .rodata.str1.4
                0x0000000000111a5c       0x25 binaries/app_unlim.o
 .rodata.str1.1
                0x0000000000111a81       0x54 binaries/ascdate.o
 *fill*         0x0000000000111ad5        0x3 
 .rodata.str1.4
                0x0000000000111ad8       0x22 binaries/ascdate.o
 .rodata.str1.1
                0x0000000000111afa       0x5f binaries/conf.o
 *fill*         0x0000000000111b59        0x3 
 .rodata.str1.4
                0x0000000000111b5c       0x9c binaries/cpubound.o
 .rodata.str1.4
                0x0000000000111bf8       0x4f binaries/early_imr.o
 *fill*         0x0000000000111c47        0x1 
 .rodata        0x0000000000111c48       0x33 binaries/early_imr.o
 .rodata.str1.1
                0x0000000000111c7b      0x20c binaries/evec.o
 *fill*         0x0000000000111e87        0x1 
 .rodata.str1.4
                0x0000000000111e88       0x23 binaries/evec.o
 .rodata.str1.1
                0x0000000000111eab       0x11 binaries/f1.o
 .rodata.str1.4
                0x0000000000111ebc       0x24 binaries/f1.o
 .rodata.str1.1
                0x0000000000111ee0        0xb binaries/getutime.o
 *fill*         0x0000000000111eeb        0x1 
 .rodata.str1.4
                0x0000000000111eec       0x54 binaries/getutime.o
 .rodata.str1.1
                0x0000000000111f40       0x63 binaries/initialize.o
                                         0x67 (size before relaxing)
 *fill*         0x0000000000111fa3        0x1 
 .rodata.str1.4
                0x0000000000111fa4       0xd4 binaries/initialize.o
 .rodata.str1.4
                0x0000000000112078       0x74 binaries/iobound.o
 .rodata        0x0000000000112078       0x20 binaries/kill.o
 .rodata.str1.1
                0x0000000000112098       0xe7 binaries/lab2q3.o
 .rodata.str1.1
                0x000000000011217f       0x21 binaries/lab2q4.o
 .rodata.str1.1
                0x00000000001121a0       0x11 binaries/lab2q5.o
 .rodata        0x00000000001121a0       0x18 binaries/lab2q5.o
 .rodata.str1.1
                0x00000000001121b8       0x25 binaries/main.o
 *fill*         0x00000000001121dd        0x3 
 .rodata.str1.4
                0x00000000001121e0      0x16b binaries/main.o
 *fill*         0x000000000011234b        0x1 
 .rodata.str1.4
                0x000000000011234c       0x23 binaries/meminit.o
 .rodata.str1.1
                0x000000000011236f       0x1b binaries/meminit.o
 .rodata.str1.1
                0x000000000011238a       0x5a binaries/myappA.o
 .rodata.str1.4
                0x00000000001123e4       0x55 binaries/myappA.o
 .rodata.str1.1
                0x0000000000112439        0xf binaries/myfuncA.o
 *fill*         0x0000000000112439        0x3 
 .rodata.str1.4
                0x000000000011243c       0x35 binaries/myfuncA.o
                                         0x6d (size before relaxing)
 *fill*         0x0000000000112471        0x3 
 .rodata.str1.4
                0x0000000000112474       0x50 binaries/myhacker.o
 .rodata.str1.1
                0x00000000001124c4       0x15 binaries/myhacker.o
 .rodata.str1.1
                0x00000000001124d9       0x15 binaries/myvictim.o
 *fill*         0x00000000001124ee        0x2 
 .rodata.str1.4
                0x00000000001124f0       0x29 binaries/myvictim.o
                                         0x51 (size before relaxing)
 *fill*         0x0000000000112519        0x3 
 .rodata.str1.4
                0x000000000011251c       0x4a binaries/mywelcomemsg.o
 .rodata.str1.1
                0x0000000000112566        0xf binaries/panic.o
 .rodata.str1.1
                0x0000000000112575       0x2c binaries/printprstate.o
 *fill*         0x00000000001125a1        0x3 
 .rodata.str1.4
                0x00000000001125a4      0x130 binaries/printprstate.o
 .rodata        0x00000000001126d4       0x1c binaries/printprstate.o
 .rodata.str1.1
                0x00000000001126f0       0xa5 binaries/prntsegaddr.o
 *fill*         0x0000000000112795        0x3 
 .rodata.str1.4
                0x0000000000112798       0x81 binaries/prntsegaddr.o
 .rodata.str1.1
                0x0000000000112819       0x1c binaries/ptinit.o
 *fill*         0x0000000000112835        0x3 
 .rodata.str1.4
                0x0000000000112838       0x25 binaries/ptsend.o
 .rodata.str1.1
                0x000000000011285d       0x22 binaries/quark_pdat.o
 .rodata.str1.1
                0x000000000011287f       0x16 binaries/stackdepth.o
 *fill*         0x0000000000112895        0x3 
 .rodata.str1.4
                0x0000000000112898       0x33 binaries/stackdepth.o
 *fill*         0x00000000001128cb        0x1 
 .rodata.str1.4
                0x00000000001128cc       0x63 binaries/stacktrace.o
 .rodata.str1.1
                0x000000000011292f       0x52 binaries/stacktrace.o
 *fill*         0x0000000000112981        0x3 
 .rodata.str1.4
                0x0000000000112984       0x27 binaries/xdone.o
 *fill*         0x00000000001129ab       0x15 
 .rodata        0x00000000001129c0       0x81 binaries/ctype_.o
                0x00000000001129c0                _ctype_
 .rodata.str1.1
                0x0000000000112a41       0x29 binaries/doprnt.o
 *fill*         0x0000000000112a6a        0x2 
 .rodata        0x0000000000112a6c       0xc4 binaries/doprnt.o
 .rodata        0x0000000000112b30       0x98 binaries/doscan.o
 .rodata.str1.1
                0x0000000000112bc8       0x29 binaries/fdoprnt.o
 .rodata        0x0000000000112bc8       0x84 binaries/fdoprnt.o
 .rodata        0x0000000000112c4c       0x20 binaries/ttycontrol.o
 .rodata.str1.4
                0x0000000000112c6c       0x4c binaries/naminit.o
 .rodata.str1.1
                0x0000000000112cb8       0x32 binaries/naminit.o
                                         0x35 (size before relaxing)
 .rodata.str1.1
                0x0000000000112cea       0x15 binaries/ethinit.o
 *fill*         0x0000000000112cff        0x1 
 .rodata.str1.4
                0x0000000000112d00       0x2e binaries/ethinit.o
 *fill*         0x0000000000112d2e        0x2 
 .rodata.str1.4
                0x0000000000112d30       0x2c binaries/rdsbufalloc.o
 .rodata.str1.4
                0x0000000000112d5c       0x76 binaries/rdscomm.o
 *fill*         0x0000000000112dd2        0x2 
 .rodata.str1.4
                0x0000000000112dd4       0x48 binaries/rdscontrol.o
 .rodata.str1.4
                0x0000000000112e1c       0x7e binaries/rdsinit.o
 .rodata.str1.1
                0x0000000000112e9a       0x18 binaries/rdsinit.o
 *fill*         0x0000000000112eb2        0x2 
 .rodata.str1.4
                0x0000000000112eb4       0x22 binaries/rdsopen.o
 *fill*         0x0000000000112ed6        0x2 
 .rodata.str1.4
                0x0000000000112ed8       0x4d binaries/rdsprocess.o
 .rodata.str1.1
                0x0000000000112f25        0x9 binaries/raminit.o
 .rodata.str1.1
                0x0000000000112f2e       0x13 binaries/lfdballoc.o
 *fill*         0x0000000000112f41        0x3 
 .rodata.str1.4
                0x0000000000112f44       0x23 binaries/lfdballoc.o
 .rodata.str1.1
                0x0000000000112f67       0x14 binaries/lfiballoc.o
 *fill*         0x0000000000112f7b        0x1 
 .rodata.str1.4
                0x0000000000112f7c       0x23 binaries/lflcontrol.o
 .rodata.str1.1
                0x0000000000112f9f       0x64 binaries/lfsckfmt.o
 *fill*         0x0000000000113003        0x1 
 .rodata.str1.4
                0x0000000000113004       0x51 binaries/lfsckfmt.o
 *fill*         0x0000000000113055        0x3 
 .rodata.str1.4
                0x0000000000113058       0x21 binaries/rflread.o
 .rodata.str1.4
                0x0000000000113079       0x21 binaries/rflwrite.o
 *fill*         0x0000000000113079        0x3 
 .rodata.str1.4
                0x000000000011307c       0x75 binaries/rfscomm.o
 *fill*         0x00000000001130f1        0x3 
 .rodata.str1.4
                0x00000000001130f4       0x23 binaries/rfscontrol.o
 *fill*         0x0000000000113117        0x1 
 .rodata        0x0000000000113118       0x18 binaries/rfscontrol.o
 .rodata.str1.1
                0x0000000000113130       0x10 binaries/rfsinit.o
 .rodata.str1.4
                0x0000000000113130       0x57 binaries/rfsinit.o
 *fill*         0x0000000000113187        0x1 
 .rodata.str1.4
                0x0000000000113188       0x2a binaries/rfsndmsg.o
 .rodata.str1.4
                0x00000000001131b2       0x22 binaries/rfsopen.o
 .rodata.str1.1
                0x00000000001131b2       0x19 binaries/arp.o
 *fill*         0x00000000001131cb        0x1 
 .rodata.str1.4
                0x00000000001131cc       0x21 binaries/arp.o
 *fill*         0x00000000001131ed        0x3 
 .rodata.str1.4
                0x00000000001131f0       0xa6 binaries/dhcp.o
 .rodata.str1.1
                0x0000000000113296       0x4a binaries/dhcp.o
 .rodata.str1.1
                0x00000000001132e0       0x5a binaries/hexdump.o
                                         0x61 (size before relaxing)
 *fill*         0x000000000011333a        0x2 
 .rodata.str1.4
                0x000000000011333c       0x67 binaries/hexdump.o
 *fill*         0x00000000001133a3        0x1 
 .rodata.str1.4
                0x00000000001133a4       0x29 binaries/icmp.o
 .rodata.str1.1
                0x00000000001133cd       0x4e binaries/ip.o
 *fill*         0x000000000011341b        0x1 
 .rodata.str1.4
                0x000000000011341c       0x20 binaries/ip.o
 .rodata.str1.4
                0x000000000011343c       0x28 binaries/net.o
 .rodata.str1.1
                0x0000000000113464       0x27 binaries/net.o
 *fill*         0x000000000011348b        0x1 
 .rodata.str1.4
                0x000000000011348c       0xcf binaries/netstart.o
 .rodata.str1.1
                0x000000000011355b      0x13e binaries/pdump.o
                                        0x14b (size before relaxing)
 *fill*         0x0000000000113699        0x3 
 .rodata.str1.4
                0x000000000011369c      0x126 binaries/pdump.o
 *fill*         0x00000000001137c2        0x2 
 .rodata.str1.4
                0x00000000001137c4      0x148 binaries/tftp.o
 .rodata.str1.1
                0x000000000011390c        0x6 binaries/tftp.o
                                          0xa (size before relaxing)
 .rodata.str1.1
                0x0000000000113912       0xd1 binaries/shell.o
                                         0xed (size before relaxing)
 *fill*         0x00000000001139e3        0x1 
 .rodata.str1.4
                0x00000000001139e4      0x1c4 binaries/shell.o
                                        0x210 (size before relaxing)
 *fill*         0x0000000000113ba8       0x18 
 .rodata        0x0000000000113bc0       0xfc binaries/shell.o
                0x0000000000113bc0                cmdtab
 .rodata.str1.1
                0x0000000000113cbc       0x26 binaries/xsh_argecho.o
                                         0x28 (size before relaxing)
 .rodata.str1.1
                0x0000000000113ce2       0x70 binaries/xsh_arp.o
                                         0x72 (size before relaxing)
 *fill*         0x0000000000113d52        0x2 
 .rodata.str1.4
                0x0000000000113d54       0xb4 binaries/xsh_arp.o
 .rodata.str1.1
                0x0000000000113e08       0x2d binaries/xsh_cat.o
                                         0x4f (size before relaxing)
 *fill*         0x0000000000113e35        0x3 
 .rodata.str1.4
                0x0000000000113e38       0x52 binaries/xsh_cat.o
                                         0x79 (size before relaxing)
 .rodata.str1.1
                0x0000000000113e8a       0x15 binaries/xsh_clear.o
 .rodata.str1.1
                0x0000000000113e9f       0x46 binaries/xsh_date.o
                                         0x5f (size before relaxing)
 *fill*         0x0000000000113ee5        0x3 
 .rodata.str1.4
                0x0000000000113ee8      0x163 binaries/xsh_date.o
 .rodata.str1.1
                0x000000000011404b       0x5d binaries/xsh_devdump.o
 .rodata.str1.1
                0x00000000001140a8       0x5d binaries/xsh_echo.o
                                          0x9 (size before relaxing)
 .rodata.str1.1
                0x00000000001140a8       0x65 binaries/xsh_help.o
                                         0xa3 (size before relaxing)
 *fill*         0x000000000011410d        0x3 
 .rodata.str1.4
                0x0000000000114110       0x7c binaries/xsh_help.o
                                         0xc6 (size before relaxing)
 .rodata.str1.1
                0x000000000011418c       0x9c binaries/xsh_ipaddr.o
                                         0xf8 (size before relaxing)
 .rodata.str1.4
                0x0000000000114228       0x4d binaries/xsh_ipaddr.o
                                         0x99 (size before relaxing)
 .rodata.str1.1
                0x0000000000114275       0x78 binaries/xsh_kill.o
                                         0x97 (size before relaxing)
 *fill*         0x00000000001142ed        0x3 
 .rodata.str1.4
                0x00000000001142f0       0x4a binaries/xsh_kill.o
                                         0x96 (size before relaxing)
 .rodata.str1.1
                0x000000000011433a       0x84 binaries/xsh_memdump.o
                                         0xa8 (size before relaxing)
 *fill*         0x00000000001143be        0x2 
 .rodata.str1.4
                0x00000000001143c0      0x15a binaries/xsh_memdump.o
                                        0x1aa (size before relaxing)
 .rodata.str1.1
                0x000000000011451a       0x40 binaries/xsh_memstat.o
                                         0x79 (size before relaxing)
 *fill*         0x000000000011455a        0x2 
 .rodata.str1.4
                0x000000000011455c      0x187 binaries/xsh_memstat.o
                                        0x1af (size before relaxing)
 .rodata.str1.1
                0x00000000001146e3       0x90 binaries/xsh_ping.o
                                         0xaf (size before relaxing)
 *fill*         0x0000000000114773        0x1 
 .rodata.str1.4
                0x0000000000114774       0x77 binaries/xsh_ping.o
                                         0xc6 (size before relaxing)
 .rodata.str1.1
                0x00000000001147eb       0x74 binaries/xsh_ps.o
                                         0xd5 (size before relaxing)
 *fill*         0x000000000011485f        0x1 
 .rodata.str1.4
                0x0000000000114860       0x80 binaries/xsh_ps.o
                                         0xd0 (size before relaxing)
 .rodata        0x00000000001148e0       0x20 binaries/xsh_ps.o
 .rodata.str1.1
                0x0000000000114900       0x31 binaries/xsh_sleep.o
                                         0x72 (size before relaxing)
 *fill*         0x0000000000114931        0x3 
 .rodata.str1.4
                0x0000000000114934       0x2a binaries/xsh_sleep.o
                                         0x7a (size before relaxing)
 .rodata.str1.1
                0x000000000011495e       0x6b binaries/xsh_udpdump.o
                                         0xd2 (size before relaxing)
 *fill*         0x00000000001149c9        0x3 
 .rodata.str1.4
                0x00000000001149cc       0x94 binaries/xsh_udpdump.o
                                         0xe4 (size before relaxing)
 .rodata.str1.1
                0x0000000000114a60       0xdb binaries/xsh_udpecho.o
                                         0xfa (size before relaxing)
 *fill*         0x0000000000114b3b        0x1 
 .rodata.str1.4
                0x0000000000114b3c       0xc7 binaries/xsh_udpecho.o
                                        0x116 (size before relaxing)
 .rodata.str1.1
                0x0000000000114c03       0x66 binaries/xsh_udpeserver.o
                                         0x8f (size before relaxing)
 *fill*         0x0000000000114c69        0x3 
 .rodata.str1.4
                0x0000000000114c6c       0x29 binaries/xsh_udpeserver.o
                                         0x9f (size before relaxing)
 .rodata.str1.1
                0x0000000000114c95       0x49 binaries/xsh_uptime.o
                                         0x8c (size before relaxing)
 *fill*         0x0000000000114cde        0x2 
 .rodata.str1.4
                0x0000000000114ce0       0x28 binaries/xsh_uptime.o
                                         0x76 (size before relaxing)
                0x0000000000114d08                etext = ABSOLUTE (.)
                0x0000000000115000                . = ALIGN (0x1000)
 *fill*         0x0000000000114d08      0x2f8 

.eh_frame       0x0000000000115000     0x33d0
 .eh_frame      0x0000000000115000       0x38 binaries/app1.o
 .eh_frame      0x0000000000115038       0x20 binaries/app2.o
                                         0x38 (size before relaxing)
 .eh_frame      0x0000000000115058       0x20 binaries/app3.o
                                         0x38 (size before relaxing)
 .eh_frame      0x0000000000115078       0x40 binaries/app_lim.o
                                         0x58 (size before relaxing)
 .eh_frame      0x00000000001150b8       0x1c binaries/app_unlim.o
                                         0x34 (size before relaxing)
 .eh_frame      0x00000000001150d4       0x30 binaries/ascdate.o
                                         0x48 (size before relaxing)
 .eh_frame      0x0000000000115104       0x20 binaries/bufinit.o
                                         0x38 (size before relaxing)
 .eh_frame      0x0000000000115124       0x2c binaries/chprio.o
                                         0x44 (size before relaxing)
 .eh_frame      0x0000000000115150       0x20 binaries/clkhandler.o
                                         0x38 (size before relaxing)
 .eh_frame      0x0000000000115170       0x20 binaries/clkinit.o
                                         0x38 (size before relaxing)
 .eh_frame      0x0000000000115190       0x28 binaries/close.o
                                         0x40 (size before relaxing)
 .eh_frame      0x00000000001151b8       0x28 binaries/control.o
                                         0x40 (size before relaxing)
 .eh_frame      0x00000000001151e0       0x2c binaries/cpubound.o
                                         0x44 (size before relaxing)
 .eh_frame      0x000000000011520c       0x30 binaries/create.o
                                         0x48 (size before relaxing)
 .eh_frame      0x000000000011523c       0x94 binaries/early_imr.o
                                         0xac (size before relaxing)
 .eh_frame      0x00000000001152d0       0x94 binaries/evec.o
                                         0xac (size before relaxing)
 .eh_frame      0x0000000000115364       0x80 binaries/f1.o
                                         0x98 (size before relaxing)
 .eh_frame      0x00000000001153e4       0x2c binaries/freebuf.o
                                         0x44 (size before relaxing)
 .eh_frame      0x0000000000115410       0x2c binaries/freemem.o
                                         0x44 (size before relaxing)
 .eh_frame      0x000000000011543c       0x2c binaries/getbuf.o
                                         0x44 (size before relaxing)
 .eh_frame      0x0000000000115468       0x28 binaries/getc.o
                                         0x40 (size before relaxing)
 .eh_frame      0x0000000000115490       0x2c binaries/getdev.o
                                         0x44 (size before relaxing)
 .eh_frame      0x00000000001154bc       0x64 binaries/getitem.o
                                         0x7c (size before relaxing)
 .eh_frame      0x0000000000115520       0x28 binaries/getmem.o
                                         0x40 (size before relaxing)
 .eh_frame      0x0000000000115548       0x20 binaries/getpid.o
                                         0x38 (size before relaxing)
 .eh_frame      0x0000000000115568       0x20 binaries/getppid.o
                                         0x38 (size before relaxing)
 .eh_frame      0x0000000000115588       0x24 binaries/getprio.o
                                         0x3c (size before relaxing)
 .eh_frame      0x00000000001155ac       0x2c binaries/getstk.o
                                         0x44 (size before relaxing)
 .eh_frame      0x00000000001155d8       0x20 binaries/gettime.o
                                         0x38 (size before relaxing)
 .eh_frame      0x00000000001155f8       0x24 binaries/getutime.o
                                         0x3c (size before relaxing)
 .eh_frame      0x000000000011561c       0x20 binaries/host2netlb.o
                                         0x38 (size before relaxing)
 .eh_frame      0x000000000011563c       0x28 binaries/init.o
                                         0x40 (size before relaxing)
 .eh_frame      0x0000000000115664       0x5c binaries/initialize.o
                                         0x74 (size before relaxing)
 .eh_frame      0x00000000001156c0       0x28 binaries/insert.o
                                         0x40 (size before relaxing)
 .eh_frame      0x00000000001156e8       0x2c binaries/insertd.o
                                         0x44 (size before relaxing)
 .eh_frame      0x0000000000115714       0x2c binaries/iobound.o
                                         0x44 (size before relaxing)
 .eh_frame      0x0000000000115740       0x20 binaries/ioerr.o
                                         0x38 (size before relaxing)
 .eh_frame      0x0000000000115760       0x20 binaries/ionull.o
                                         0x38 (size before relaxing)
 .eh_frame      0x0000000000115780       0x30 binaries/kill.o
                                         0x48 (size before relaxing)
 .eh_frame      0x00000000001157b0       0x80 binaries/kprintf.o
                                         0x98 (size before relaxing)
 .eh_frame      0x0000000000115830       0x30 binaries/lab2q3.o
                                         0x48 (size before relaxing)
 .eh_frame      0x0000000000115860       0x6c binaries/lab2q4.o
                                         0x84 (size before relaxing)
 .eh_frame      0x00000000001158cc       0x2c binaries/lab2q5.o
                                         0x44 (size before relaxing)
 .eh_frame      0x00000000001158f8       0x4c binaries/main.o
                                         0x64 (size before relaxing)
 .eh_frame      0x0000000000115944       0x44 binaries/mark.o
                                         0x5c (size before relaxing)
 .eh_frame      0x0000000000115988       0x50 binaries/meminit.o
                                         0x68 (size before relaxing)
 .eh_frame      0x00000000001159d8       0x30 binaries/mkbufpool.o
                                         0x48 (size before relaxing)
 .eh_frame      0x0000000000115a08       0x28 binaries/myappA.o
                                         0x40 (size before relaxing)
 .eh_frame      0x0000000000115a30       0x28 binaries/myfuncA.o
                                         0x40 (size before relaxing)
 .eh_frame      0x0000000000115a58       0x40 binaries/myhacker.o
                                         0x58 (size before relaxing)
 .eh_frame      0x0000000000115a98       0x64 binaries/myvictim.o
                                         0x7c (size before relaxing)
 .eh_frame      0x0000000000115afc       0x20 binaries/mywelcomemsg.o
                                         0x38 (size before relaxing)
 .eh_frame      0x0000000000115b1c       0x20 binaries/newqueue.o
                                         0x38 (size before relaxing)
 .eh_frame      0x0000000000115b3c       0x28 binaries/open.o
                                         0x40 (size before relaxing)
 .eh_frame      0x0000000000115b64       0x1c binaries/panic.o
                                         0x34 (size before relaxing)
 .eh_frame      0x0000000000115b80      0x12c binaries/pci.o
                                        0x144 (size before relaxing)
 .eh_frame      0x0000000000115cac       0x20 binaries/platinit.o
                                         0x38 (size before relaxing)
 .eh_frame      0x0000000000115ccc       0x24 binaries/printprstate.o
                                         0x3c (size before relaxing)
 .eh_frame      0x0000000000115cf0       0x24 binaries/prntsegaddr.o
                                         0x3c (size before relaxing)
 .eh_frame      0x0000000000115d14       0x2c binaries/ptclear.o
                                         0x44 (size before relaxing)
 .eh_frame      0x0000000000115d40       0x2c binaries/ptcount.o
                                         0x44 (size before relaxing)
 .eh_frame      0x0000000000115d6c       0x2c binaries/ptcreate.o
                                         0x44 (size before relaxing)
 .eh_frame      0x0000000000115d98       0x28 binaries/ptdelete.o
                                         0x40 (size before relaxing)
 .eh_frame      0x0000000000115dc0       0x28 binaries/ptinit.o
                                         0x40 (size before relaxing)
 .eh_frame      0x0000000000115de8       0x2c binaries/ptrecv.o
                                         0x44 (size before relaxing)
 .eh_frame      0x0000000000115e14       0x28 binaries/ptreset.o
                                         0x40 (size before relaxing)
 .eh_frame      0x0000000000115e3c       0x30 binaries/ptsend.o
                                         0x48 (size before relaxing)
 .eh_frame      0x0000000000115e6c       0x2c binaries/putc.o
                                         0x44 (size before relaxing)
 .eh_frame      0x0000000000115e98       0x24 binaries/quark_irq.o
                                         0x3c (size before relaxing)
 .eh_frame      0x0000000000115ebc       0x54 binaries/quark_pdat.o
                                         0x6c (size before relaxing)
 .eh_frame      0x0000000000115f10       0x40 binaries/queue.o
                                         0x58 (size before relaxing)
 .eh_frame      0x0000000000115f50       0x28 binaries/read.o
                                         0x40 (size before relaxing)
 .eh_frame      0x0000000000115f78       0x20 binaries/ready.o
                                         0x38 (size before relaxing)
 .eh_frame      0x0000000000115f98       0x2c binaries/receive.o
                                         0x44 (size before relaxing)
 .eh_frame      0x0000000000115fc4       0x24 binaries/recvclr.o
                                         0x3c (size before relaxing)
 .eh_frame      0x0000000000115fe8       0x2c binaries/recvtime.o
                                         0x44 (size before relaxing)
 .eh_frame      0x0000000000116014       0x44 binaries/resched.o
                                         0x5c (size before relaxing)
 .eh_frame      0x0000000000116058       0x2c binaries/resume.o
                                         0x44 (size before relaxing)
 .eh_frame      0x0000000000116084       0x28 binaries/seek.o
                                         0x40 (size before relaxing)
 .eh_frame      0x00000000001160ac       0x24 binaries/semcount.o
                                         0x3c (size before relaxing)
 .eh_frame      0x00000000001160d0       0x2c binaries/semcreate.o
                                         0x44 (size before relaxing)
 .eh_frame      0x00000000001160fc       0x2c binaries/semdelete.o
                                         0x44 (size before relaxing)
 .eh_frame      0x0000000000116128       0x2c binaries/semreset.o
                                         0x44 (size before relaxing)
 .eh_frame      0x0000000000116154       0x28 binaries/send.o
                                         0x40 (size before relaxing)
 .eh_frame      0x000000000011617c       0x28 binaries/signal.o
                                         0x40 (size before relaxing)
 .eh_frame      0x00000000001161a4       0x2c binaries/signaln.o
                                         0x44 (size before relaxing)
 .eh_frame      0x00000000001161d0       0x48 binaries/sleep.o
                                         0x60 (size before relaxing)
 .eh_frame      0x0000000000116218       0x2c binaries/stackdepth.o
                                         0x44 (size before relaxing)
 .eh_frame      0x0000000000116244       0x30 binaries/stacktrace.o
                                         0x48 (size before relaxing)
 .eh_frame      0x0000000000116274       0x28 binaries/suspend.o
                                         0x40 (size before relaxing)
 .eh_frame      0x000000000011629c       0x28 binaries/unsleep.o
                                         0x40 (size before relaxing)
 .eh_frame      0x00000000001162c4       0x20 binaries/userret.o
                                         0x38 (size before relaxing)
 .eh_frame      0x00000000001162e4       0x28 binaries/wait.o
                                         0x40 (size before relaxing)
 .eh_frame      0x000000000011630c       0x20 binaries/wakeup.o
                                         0x38 (size before relaxing)
 .eh_frame      0x000000000011632c       0x28 binaries/write.o
                                         0x40 (size before relaxing)
 .eh_frame      0x0000000000116354       0x20 binaries/xdone.o
                                         0x38 (size before relaxing)
 .eh_frame      0x0000000000116374       0x24 binaries/yield.o
                                         0x3c (size before relaxing)
 .eh_frame      0x0000000000116398       0x20 binaries/abs.o
                                         0x38 (size before relaxing)
 .eh_frame      0x00000000001163b8       0x28 binaries/atoi.o
                                         0x40 (size before relaxing)
 .eh_frame      0x00000000001163e0       0x28 binaries/atol.o
                                         0x40 (size before relaxing)
 .eh_frame      0x0000000000116408       0x20 binaries/bzero.o
                                         0x38 (size before relaxing)
 .eh_frame      0x0000000000116428       0xac binaries/doprnt.o
                                         0xc4 (size before relaxing)
 .eh_frame      0x00000000001164d4       0x30 binaries/doscan.o
                                         0x48 (size before relaxing)
 .eh_frame      0x0000000000116504       0x5c binaries/fdoprnt.o
                                         0x74 (size before relaxing)
 .eh_frame      0x0000000000116560       0x20 binaries/fgetc.o
                                         0x38 (size before relaxing)
 .eh_frame      0x0000000000116580       0x2c binaries/fgets.o
                                         0x44 (size before relaxing)
 .eh_frame      0x00000000001165ac       0x20 binaries/fprintf.o
                                         0x38 (size before relaxing)
 .eh_frame      0x00000000001165cc       0x20 binaries/fputc.o
                                         0x38 (size before relaxing)
 .eh_frame      0x00000000001165ec       0x28 binaries/fputs.o
                                         0x40 (size before relaxing)
 .eh_frame      0x0000000000116614       0x64 binaries/fscanf.o
                                         0x7c (size before relaxing)
 .eh_frame      0x0000000000116678       0x20 binaries/getchar.o
                                         0x38 (size before relaxing)
 .eh_frame      0x0000000000116698       0x20 binaries/labs.o
                                         0x38 (size before relaxing)
 .eh_frame      0x00000000001166b8       0x20 binaries/memchr.o
                                         0x38 (size before relaxing)
 .eh_frame      0x00000000001166d8       0x28 binaries/memcmp.o
                                         0x40 (size before relaxing)
 .eh_frame      0x0000000000116700       0x28 binaries/memcpy.o
                                         0x40 (size before relaxing)
 .eh_frame      0x0000000000116728       0x24 binaries/memset.o
                                         0x3c (size before relaxing)
 .eh_frame      0x000000000011674c       0x20 binaries/printf.o
                                         0x38 (size before relaxing)
 .eh_frame      0x000000000011676c       0x20 binaries/putchar.o
                                         0x38 (size before relaxing)
 .eh_frame      0x000000000011678c       0xa4 binaries/qsort.o
                                         0xbc (size before relaxing)
 .eh_frame      0x0000000000116830       0x40 binaries/rand.o
                                         0x58 (size before relaxing)
 .eh_frame      0x0000000000116870       0x48 binaries/sprintf.o
                                         0x60 (size before relaxing)
 .eh_frame      0x00000000001168b8       0x60 binaries/sscanf.o
                                         0x78 (size before relaxing)
 .eh_frame      0x0000000000116918       0x24 binaries/strchr.o
                                         0x3c (size before relaxing)
 .eh_frame      0x000000000011693c       0x24 binaries/strcmp.o
                                         0x3c (size before relaxing)
 .eh_frame      0x0000000000116960       0x20 binaries/strcpy.o
                                         0x38 (size before relaxing)
 .eh_frame      0x0000000000116980       0x20 binaries/strlen.o
                                         0x38 (size before relaxing)
 .eh_frame      0x00000000001169a0       0x2c binaries/strncat.o
                                         0x44 (size before relaxing)
 .eh_frame      0x00000000001169cc       0x24 binaries/strncmp.o
                                         0x3c (size before relaxing)
 .eh_frame      0x00000000001169f0       0x2c binaries/strncpy.o
                                         0x44 (size before relaxing)
 .eh_frame      0x0000000000116a1c       0x24 binaries/strnlen.o
                                         0x3c (size before relaxing)
 .eh_frame      0x0000000000116a40       0x24 binaries/strrchr.o
                                         0x3c (size before relaxing)
 .eh_frame      0x0000000000116a64       0x2c binaries/strstr.o
                                         0x44 (size before relaxing)
 .eh_frame      0x0000000000116a90       0x30 binaries/ttycontrol.o
                                         0x48 (size before relaxing)
 .eh_frame      0x0000000000116ac0       0x2c binaries/ttygetc.o
                                         0x44 (size before relaxing)
 .eh_frame      0x0000000000116aec       0x84 binaries/ttyhandle_in.o
                                         0x9c (size before relaxing)
 .eh_frame      0x0000000000116b70       0x30 binaries/ttyhandle_out.o
                                         0x48 (size before relaxing)
 .eh_frame      0x0000000000116ba0       0x28 binaries/ttyhandler.o
                                         0x40 (size before relaxing)
 .eh_frame      0x0000000000116bc8       0x30 binaries/ttyinit.o
                                         0x48 (size before relaxing)
 .eh_frame      0x0000000000116bf8       0x20 binaries/ttykickout.o
                                         0x38 (size before relaxing)
 .eh_frame      0x0000000000116c18       0x2c binaries/ttyputc.o
                                         0x44 (size before relaxing)
 .eh_frame      0x0000000000116c44       0x2c binaries/ttyread.o
                                         0x44 (size before relaxing)
 .eh_frame      0x0000000000116c70       0x2c binaries/ttywrite.o
                                         0x44 (size before relaxing)
 .eh_frame      0x0000000000116c9c       0x4c binaries/mount.o
                                         0x64 (size before relaxing)
 .eh_frame      0x0000000000116ce8       0x30 binaries/naminit.o
                                         0x48 (size before relaxing)
 .eh_frame      0x0000000000116d18       0x84 binaries/nammap.o
                                         0x9c (size before relaxing)
 .eh_frame      0x0000000000116d9c       0x20 binaries/namopen.o
                                         0x38 (size before relaxing)
 .eh_frame      0x0000000000116dbc       0x2c binaries/colon2mac.o
                                         0x44 (size before relaxing)
 .eh_frame      0x0000000000116de8       0x20 binaries/ethcontrol.o
                                         0x38 (size before relaxing)
 .eh_frame      0x0000000000116e08       0x30 binaries/ethhandler.o
                                         0x48 (size before relaxing)
 .eh_frame      0x0000000000116e38       0x98 binaries/ethinit.o
                                         0xb0 (size before relaxing)
 .eh_frame      0x0000000000116ed0       0x54 binaries/ethmcast.o
                                         0x6c (size before relaxing)
 .eh_frame      0x0000000000116f24       0x30 binaries/ethread.o
                                         0x48 (size before relaxing)
 .eh_frame      0x0000000000116f54       0x2c binaries/ethwrite.o
                                         0x44 (size before relaxing)
 .eh_frame      0x0000000000116f80       0x24 binaries/rdsbufalloc.o
                                         0x3c (size before relaxing)
 .eh_frame      0x0000000000116fa4       0x2c binaries/rdsclose.o
                                         0x44 (size before relaxing)
 .eh_frame      0x0000000000116fd0       0x30 binaries/rdscomm.o
                                         0x48 (size before relaxing)
 .eh_frame      0x0000000000117000       0x30 binaries/rdscontrol.o
                                         0x48 (size before relaxing)
 .eh_frame      0x0000000000117030       0x30 binaries/rdsinit.o
                                         0x48 (size before relaxing)
 .eh_frame      0x0000000000117060       0x30 binaries/rdsopen.o
                                         0x48 (size before relaxing)
 .eh_frame      0x0000000000117090       0x20 binaries/rdsprocess.o
                                         0x38 (size before relaxing)
 .eh_frame      0x00000000001170b0       0x30 binaries/rdsread.o
                                         0x48 (size before relaxing)
 .eh_frame      0x00000000001170e0       0x30 binaries/rdswrite.o
                                         0x48 (size before relaxing)
 .eh_frame      0x0000000000117110       0x20 binaries/ramclose.o
                                         0x38 (size before relaxing)
 .eh_frame      0x0000000000117130       0x20 binaries/raminit.o
                                         0x38 (size before relaxing)
 .eh_frame      0x0000000000117150       0x20 binaries/ramopen.o
                                         0x38 (size before relaxing)
 .eh_frame      0x0000000000117170       0x20 binaries/ramread.o
                                         0x38 (size before relaxing)
 .eh_frame      0x0000000000117190       0x20 binaries/ramwrite.o
                                         0x38 (size before relaxing)
 .eh_frame      0x00000000001171b0       0x28 binaries/lfdballoc.o
                                         0x40 (size before relaxing)
 .eh_frame      0x00000000001171d8       0x24 binaries/lfdbfree.o
                                         0x3c (size before relaxing)
 .eh_frame      0x00000000001171fc       0x24 binaries/lfflush.o
                                         0x3c (size before relaxing)
 .eh_frame      0x0000000000117220       0x20 binaries/lfgetmode.o
                                         0x38 (size before relaxing)
 .eh_frame      0x0000000000117240       0x24 binaries/lfiballoc.o
                                         0x3c (size before relaxing)
 .eh_frame      0x0000000000117264       0x20 binaries/lfibclear.o
                                         0x38 (size before relaxing)
 .eh_frame      0x0000000000117284       0x2c binaries/lfibget.o
                                         0x44 (size before relaxing)
 .eh_frame      0x00000000001172b0       0x2c binaries/lfibput.o
                                         0x44 (size before relaxing)
 .eh_frame      0x00000000001172dc       0x28 binaries/lflclose.o
                                         0x40 (size before relaxing)
 .eh_frame      0x0000000000117304       0x2c binaries/lflcontrol.o
                                         0x44 (size before relaxing)
 .eh_frame      0x0000000000117330       0x2c binaries/lflgetc.o
                                         0x44 (size before relaxing)
 .eh_frame      0x000000000011735c       0x2c binaries/lflinit.o
                                         0x44 (size before relaxing)
 .eh_frame      0x0000000000117388       0x30 binaries/lflputc.o
                                         0x48 (size before relaxing)
 .eh_frame      0x00000000001173b8       0x2c binaries/lflread.o
                                         0x44 (size before relaxing)
 .eh_frame      0x00000000001173e4       0x2c binaries/lflseek.o
                                         0x44 (size before relaxing)
 .eh_frame      0x0000000000117410       0x2c binaries/lflwrite.o
                                         0x44 (size before relaxing)
 .eh_frame      0x000000000011743c       0x30 binaries/lfsckfmt.o
                                         0x48 (size before relaxing)
 .eh_frame      0x000000000011746c       0x30 binaries/lfscreate.o
                                         0x48 (size before relaxing)
 .eh_frame      0x000000000011749c       0x30 binaries/lfsetup.o
                                         0x48 (size before relaxing)
 .eh_frame      0x00000000001174cc       0x20 binaries/lfsinit.o
                                         0x38 (size before relaxing)
 .eh_frame      0x00000000001174ec       0x30 binaries/lfsopen.o
                                         0x48 (size before relaxing)
 .eh_frame      0x000000000011751c       0x30 binaries/lftruncate.o
                                         0x48 (size before relaxing)
 .eh_frame      0x000000000011754c       0x20 binaries/rflclose.o
                                         0x38 (size before relaxing)
 .eh_frame      0x000000000011756c       0x20 binaries/rflgetc.o
                                         0x38 (size before relaxing)
 .eh_frame      0x000000000011758c       0x24 binaries/rflinit.o
                                         0x3c (size before relaxing)
 .eh_frame      0x00000000001175b0       0x20 binaries/rflputc.o
                                         0x38 (size before relaxing)
 .eh_frame      0x00000000001175d0       0x30 binaries/rflread.o
                                         0x48 (size before relaxing)
 .eh_frame      0x0000000000117600       0x20 binaries/rflseek.o
                                         0x38 (size before relaxing)
 .eh_frame      0x0000000000117620       0x30 binaries/rflwrite.o
                                         0x48 (size before relaxing)
 .eh_frame      0x0000000000117650       0x30 binaries/rfscomm.o
                                         0x48 (size before relaxing)
 .eh_frame      0x0000000000117680       0x2c binaries/rfscontrol.o
                                         0x44 (size before relaxing)
 .eh_frame      0x00000000001176ac       0x20 binaries/rfsgetmode.o
                                         0x38 (size before relaxing)
 .eh_frame      0x00000000001176cc       0x20 binaries/rfsinit.o
                                         0x38 (size before relaxing)
 .eh_frame      0x00000000001176ec       0x20 binaries/rfsndmsg.o
                                         0x38 (size before relaxing)
 .eh_frame      0x000000000011770c       0x2c binaries/rfsopen.o
                                         0x44 (size before relaxing)
 .eh_frame      0x0000000000117738       0xec binaries/arp.o
                                        0x104 (size before relaxing)
 .eh_frame      0x0000000000117824       0xd0 binaries/dhcp.o
                                         0xe8 (size before relaxing)
 .eh_frame      0x00000000001178f4       0x2c binaries/dot2ip.o
                                         0x44 (size before relaxing)
 .eh_frame      0x0000000000117920       0x60 binaries/hexdump.o
                                         0x78 (size before relaxing)
 .eh_frame      0x0000000000117980      0x198 binaries/icmp.o
                                        0x1b0 (size before relaxing)
 .eh_frame      0x0000000000117b18      0x148 binaries/ip.o
                                        0x160 (size before relaxing)
 .eh_frame      0x0000000000117c60       0x7c binaries/net.o
                                         0x94 (size before relaxing)
 .eh_frame      0x0000000000117cdc       0x24 binaries/netstart.o
                                         0x3c (size before relaxing)
 .eh_frame      0x0000000000117d00       0x50 binaries/pdump.o
                                         0x68 (size before relaxing)
 .eh_frame      0x0000000000117d50       0x80 binaries/tftp.o
                                         0x98 (size before relaxing)
 .eh_frame      0x0000000000117dd0      0x1b0 binaries/udp.o
                                        0x1c8 (size before relaxing)
 .eh_frame      0x0000000000117f80       0x30 binaries/addargs.o
                                         0x48 (size before relaxing)
 .eh_frame      0x0000000000117fb0       0x30 binaries/lexan.o
                                         0x48 (size before relaxing)
 .eh_frame      0x0000000000117fe0       0x30 binaries/shell.o
                                         0x48 (size before relaxing)
 .eh_frame      0x0000000000118010       0x2c binaries/xsh_argecho.o
                                         0x44 (size before relaxing)
 .eh_frame      0x000000000011803c       0x30 binaries/xsh_arp.o
                                         0x48 (size before relaxing)
 .eh_frame      0x000000000011806c       0x30 binaries/xsh_cat.o
                                         0x48 (size before relaxing)
 .eh_frame      0x000000000011809c       0x20 binaries/xsh_clear.o
                                         0x38 (size before relaxing)
 .eh_frame      0x00000000001180bc       0x24 binaries/xsh_date.o
                                         0x3c (size before relaxing)
 .eh_frame      0x00000000001180e0       0x28 binaries/xsh_devdump.o
                                         0x40 (size before relaxing)
 .eh_frame      0x0000000000118108       0x2c binaries/xsh_echo.o
                                         0x44 (size before relaxing)
 .eh_frame      0x0000000000118134       0x20 binaries/xsh_exit.o
                                         0x38 (size before relaxing)
 .eh_frame      0x0000000000118154       0x30 binaries/xsh_help.o
                                         0x48 (size before relaxing)
 .eh_frame      0x0000000000118184       0x2c binaries/xsh_ipaddr.o
                                         0x44 (size before relaxing)
 .eh_frame      0x00000000001181b0       0x2c binaries/xsh_kill.o
                                         0x44 (size before relaxing)
 .eh_frame      0x00000000001181dc       0x58 binaries/xsh_memdump.o
                                         0x70 (size before relaxing)
 .eh_frame      0x0000000000118234       0x30 binaries/xsh_memstat.o
                                         0x48 (size before relaxing)
 .eh_frame      0x0000000000118264       0x30 binaries/xsh_ping.o
                                         0x48 (size before relaxing)
 .eh_frame      0x0000000000118294       0x30 binaries/xsh_ps.o
                                         0x48 (size before relaxing)
 .eh_frame      0x00000000001182c4       0x30 binaries/xsh_sleep.o
                                         0x48 (size before relaxing)
 .eh_frame      0x00000000001182f4       0x2c binaries/xsh_udpdump.o
                                         0x44 (size before relaxing)
 .eh_frame      0x0000000000118320       0x30 binaries/xsh_udpecho.o
                                         0x48 (size before relaxing)
 .eh_frame      0x0000000000118350       0x30 binaries/xsh_udpeserver.o
                                         0x48 (size before relaxing)
 .eh_frame      0x0000000000118380       0x30 binaries/xsh_uptime.o
                                         0x48 (size before relaxing)
 .eh_frame      0x00000000001183b0       0x20 binaries/host2netlc.o
                                         0x38 (size before relaxing)

.iplt           0x00000000001183d0        0x0
 .iplt          0x00000000001183d0        0x0 binaries/start.o

.rel.dyn        0x00000000001183d0        0x0
 .rel.iplt      0x00000000001183d0        0x0 binaries/start.o
 .rel.text      0x00000000001183d0        0x0 binaries/start.o
 .rel.data      0x00000000001183d0        0x0 binaries/start.o
 .rel.rodata    0x00000000001183d0        0x0 binaries/start.o

.data           0x00000000001183e0     0x1c20
                0x00000000001183e0                data = ABSOLUTE (.)
 *(.data .data.*)
 .data          0x00000000001183e0      0x85a binaries/start.o
                0x00000000001183e0                gdt
                0x0000000000118430                idt
                0x0000000000118c36                cpudelay
 .data          0x0000000000118c3a        0x0 binaries/app1.o
 .data          0x0000000000118c3a        0x0 binaries/app2.o
 .data          0x0000000000118c3a        0x0 binaries/app3.o
 .data          0x0000000000118c3a        0x0 binaries/app_lim.o
 .data          0x0000000000118c3a        0x0 binaries/app_unlim.o
 *fill*         0x0000000000118c3a        0x6 
 .data          0x0000000000118c40       0x88 binaries/ascdate.o
                0x0000000000118c40                Date
 .data          0x0000000000118cc8        0x0 binaries/bufinit.o
 .data          0x0000000000118cc8        0x0 binaries/chprio.o
 .data          0x0000000000118cc8        0x4 binaries/clkhandler.o
 .data          0x0000000000118ccc        0x0 binaries/clkinit.o
 .data          0x0000000000118ccc        0x0 binaries/close.o
 *fill*         0x0000000000118ccc       0x14 
 .data          0x0000000000118ce0      0x30c binaries/conf.o
                0x0000000000118ce0                devtab
 .data          0x0000000000118fec        0x0 binaries/control.o
 .data          0x0000000000118fec        0x0 binaries/cpubound.o
 .data          0x0000000000118fec        0x4 binaries/create.o
 .data          0x0000000000118ff0        0x0 binaries/early_imr.o
 *fill*         0x0000000000118ff0       0x10 
 .data          0x0000000000119000       0x40 binaries/evec.o
                0x0000000000119000                inames
 .data          0x0000000000119040        0x0 binaries/f1.o
 .data          0x0000000000119040        0x0 binaries/freebuf.o
 .data          0x0000000000119040        0x0 binaries/freemem.o
 .data          0x0000000000119040        0x0 binaries/getbuf.o
 .data          0x0000000000119040        0x0 binaries/getc.o
 .data          0x0000000000119040        0x0 binaries/getdev.o
 .data          0x0000000000119040        0x0 binaries/getitem.o
 .data          0x0000000000119040        0x0 binaries/getmem.o
 .data          0x0000000000119040        0x0 binaries/getpid.o
 .data          0x0000000000119040        0x0 binaries/getppid.o
 .data          0x0000000000119040        0x0 binaries/getprio.o
 .data          0x0000000000119040        0x0 binaries/getstk.o
 .data          0x0000000000119040        0x0 binaries/gettime.o
 .data          0x0000000000119040        0x0 binaries/getutime.o
 .data          0x0000000000119040        0x0 binaries/host2netlb.o
 .data          0x0000000000119040        0x0 binaries/init.o
 .data          0x0000000000119040        0x0 binaries/initialize.o
 .data          0x0000000000119040        0x0 binaries/insert.o
 .data          0x0000000000119040        0x0 binaries/insertd.o
 .data          0x0000000000119040        0x0 binaries/iobound.o
 .data          0x0000000000119040        0x0 binaries/ioerr.o
 .data          0x0000000000119040        0x0 binaries/ionull.o
 .data          0x0000000000119040        0x0 binaries/kill.o
 .data          0x0000000000119040        0x0 binaries/kprintf.o
 .data          0x0000000000119040        0x0 binaries/lab2q3.o
 .data          0x0000000000119040        0x0 binaries/lab2q4.o
 .data          0x0000000000119040        0x0 binaries/lab2q5.o
 .data          0x0000000000119040        0x4 binaries/main.o
                0x0000000000119040                lab2flag
 .data          0x0000000000119044        0x0 binaries/mark.o
 *fill*         0x0000000000119044       0x1c 
 .data          0x0000000000119060       0x48 binaries/meminit.o
                0x0000000000119060                gdt_copy
                0x00000000001190a0                bootinfo
                0x00000000001190a4                bootsign
 .data          0x00000000001190a8        0x0 binaries/mkbufpool.o
 .data          0x00000000001190a8        0x0 binaries/myappA.o
 .data          0x00000000001190a8        0x0 binaries/myfuncA.o
 .data          0x00000000001190a8        0x0 binaries/myhacker.o
 .data          0x00000000001190a8        0x0 binaries/myvictim.o
 .data          0x00000000001190a8        0x0 binaries/mywelcomemsg.o
 .data          0x00000000001190a8        0x2 binaries/newqueue.o
 .data          0x00000000001190aa        0x0 binaries/open.o
 .data          0x00000000001190aa        0x0 binaries/panic.o
 .data          0x00000000001190aa        0x0 binaries/pci.o
 .data          0x00000000001190aa        0x0 binaries/platinit.o
 .data          0x00000000001190aa        0x0 binaries/printprstate.o
 .data          0x00000000001190aa        0x0 binaries/prntsegaddr.o
 .data          0x00000000001190aa        0x0 binaries/ptclear.o
 .data          0x00000000001190aa        0x0 binaries/ptcount.o
 .data          0x00000000001190aa        0x0 binaries/ptcreate.o
 .data          0x00000000001190aa        0x0 binaries/ptdelete.o
 .data          0x00000000001190aa        0x0 binaries/ptinit.o
 .data          0x00000000001190aa        0x0 binaries/ptrecv.o
 .data          0x00000000001190aa        0x0 binaries/ptreset.o
 .data          0x00000000001190aa        0x0 binaries/ptsend.o
 .data          0x00000000001190aa        0x0 binaries/putc.o
 .data          0x00000000001190aa        0x0 binaries/quark_irq.o
 .data          0x00000000001190aa        0x0 binaries/quark_pdat.o
 .data          0x00000000001190aa        0x0 binaries/queue.o
 .data          0x00000000001190aa        0x0 binaries/read.o
 .data          0x00000000001190aa        0x0 binaries/ready.o
 .data          0x00000000001190aa        0x0 binaries/receive.o
 .data          0x00000000001190aa        0x0 binaries/recvclr.o
 .data          0x00000000001190aa        0x0 binaries/recvtime.o
 .data          0x00000000001190aa        0x0 binaries/resched.o
 .data          0x00000000001190aa        0x0 binaries/resume.o
 .data          0x00000000001190aa        0x0 binaries/seek.o
 .data          0x00000000001190aa        0x0 binaries/semcount.o
 .data          0x00000000001190aa        0x0 binaries/semcreate.o
 .data          0x00000000001190aa        0x0 binaries/semdelete.o
 .data          0x00000000001190aa        0x0 binaries/semreset.o
 .data          0x00000000001190aa        0x0 binaries/send.o
 .data          0x00000000001190aa        0x0 binaries/signal.o
 .data          0x00000000001190aa        0x0 binaries/signaln.o
 .data          0x00000000001190aa        0x0 binaries/sleep.o
 .data          0x00000000001190aa        0x0 binaries/stackdepth.o
 .data          0x00000000001190aa        0x0 binaries/stacktrace.o
 .data          0x00000000001190aa        0x0 binaries/suspend.o
 .data          0x00000000001190aa        0x0 binaries/unsleep.o
 .data          0x00000000001190aa        0x0 binaries/userret.o
 .data          0x00000000001190aa        0x0 binaries/wait.o
 .data          0x00000000001190aa        0x0 binaries/wakeup.o
 .data          0x00000000001190aa        0x0 binaries/write.o
 .data          0x00000000001190aa        0x0 binaries/xdone.o
 .data          0x00000000001190aa        0x0 binaries/yield.o
 .data          0x00000000001190aa        0x0 binaries/abs.o
 .data          0x00000000001190aa        0x0 binaries/atoi.o
 .data          0x00000000001190aa        0x0 binaries/atol.o
 .data          0x00000000001190aa        0x0 binaries/bzero.o
 .data          0x00000000001190aa        0x0 binaries/ctype_.o
 .data          0x00000000001190aa        0x0 binaries/doprnt.o
 *fill*         0x00000000001190aa       0x16 
 .data          0x00000000001190c0       0x80 binaries/doscan.o
                0x00000000001190c0                _sctab
 .data          0x0000000000119140        0x0 binaries/fdoprnt.o
 .data          0x0000000000119140        0x0 binaries/fgetc.o
 .data          0x0000000000119140        0x0 binaries/fgets.o
 .data          0x0000000000119140        0x0 binaries/fprintf.o
 .data          0x0000000000119140        0x0 binaries/fputc.o
 .data          0x0000000000119140        0x0 binaries/fputs.o
 .data          0x0000000000119140        0x0 binaries/fscanf.o
 .data          0x0000000000119140        0x0 binaries/getchar.o
 .data          0x0000000000119140        0x0 binaries/labs.o
 .data          0x0000000000119140        0x0 binaries/memchr.o
 .data          0x0000000000119140        0x0 binaries/memcmp.o
 .data          0x0000000000119140        0x0 binaries/memcpy.o
 .data          0x0000000000119140        0x0 binaries/memset.o
 .data          0x0000000000119140        0x0 binaries/printf.o
 .data          0x0000000000119140        0x0 binaries/putchar.o
 .data          0x0000000000119140        0x0 binaries/qsort.o
 .data          0x0000000000119140        0x4 binaries/rand.o
 .data          0x0000000000119144        0x0 binaries/sprintf.o
 .data          0x0000000000119144        0x0 binaries/sscanf.o
 .data          0x0000000000119144        0x0 binaries/strchr.o
 .data          0x0000000000119144        0x0 binaries/strcmp.o
 .data          0x0000000000119144        0x0 binaries/strcpy.o
 .data          0x0000000000119144        0x0 binaries/strlen.o
 .data          0x0000000000119144        0x0 binaries/strncat.o
 .data          0x0000000000119144        0x0 binaries/strncmp.o
 .data          0x0000000000119144        0x0 binaries/strncpy.o
 .data          0x0000000000119144        0x0 binaries/strnlen.o
 .data          0x0000000000119144        0x0 binaries/strrchr.o
 .data          0x0000000000119144        0x0 binaries/strstr.o
 .data          0x0000000000119144        0x0 binaries/ttycontrol.o
 .data          0x0000000000119144        0x0 binaries/ttygetc.o
 .data          0x0000000000119144        0x0 binaries/ttyhandle_in.o
 .data          0x0000000000119144        0x0 binaries/ttyhandle_out.o
 .data          0x0000000000119144        0x0 binaries/ttyhandler.o
 .data          0x0000000000119144        0x0 binaries/ttyinit.o
 .data          0x0000000000119144        0x0 binaries/ttykickout.o
 .data          0x0000000000119144        0x0 binaries/ttyputc.o
 .data          0x0000000000119144        0x0 binaries/ttyread.o
 .data          0x0000000000119144        0x0 binaries/ttywrite.o
 .data          0x0000000000119144        0x0 binaries/mount.o
 .data          0x0000000000119144        0x0 binaries/naminit.o
 .data          0x0000000000119144        0x0 binaries/nammap.o
 .data          0x0000000000119144        0x0 binaries/namopen.o
 .data          0x0000000000119144        0x0 binaries/colon2mac.o
 .data          0x0000000000119144        0x0 binaries/ethcontrol.o
 .data          0x0000000000119144        0x0 binaries/ethhandler.o
 .data          0x0000000000119144        0x0 binaries/ethinit.o
 .data          0x0000000000119144        0x0 binaries/ethmcast.o
 .data          0x0000000000119144        0x0 binaries/ethread.o
 .data          0x0000000000119144        0x0 binaries/ethwrite.o
 .data          0x0000000000119144        0x0 binaries/rdsbufalloc.o
 .data          0x0000000000119144        0x0 binaries/rdsclose.o
 .data          0x0000000000119144        0x0 binaries/rdscomm.o
 .data          0x0000000000119144        0x0 binaries/rdscontrol.o
 .data          0x0000000000119144        0x0 binaries/rdsinit.o
 .data          0x0000000000119144        0x0 binaries/rdsopen.o
 .data          0x0000000000119144        0x0 binaries/rdsprocess.o
 .data          0x0000000000119144        0x0 binaries/rdsread.o
 .data          0x0000000000119144        0x0 binaries/rdswrite.o
 .data          0x0000000000119144        0x0 binaries/ramclose.o
 .data          0x0000000000119144        0x0 binaries/raminit.o
 .data          0x0000000000119144        0x0 binaries/ramopen.o
 .data          0x0000000000119144        0x0 binaries/ramread.o
 .data          0x0000000000119144        0x0 binaries/ramwrite.o
 .data          0x0000000000119144        0x0 binaries/lfdballoc.o
 .data          0x0000000000119144        0x0 binaries/lfdbfree.o
 .data          0x0000000000119144        0x0 binaries/lfflush.o
 .data          0x0000000000119144        0x0 binaries/lfgetmode.o
 .data          0x0000000000119144        0x0 binaries/lfiballoc.o
 .data          0x0000000000119144        0x0 binaries/lfibclear.o
 .data          0x0000000000119144        0x0 binaries/lfibget.o
 .data          0x0000000000119144        0x0 binaries/lfibput.o
 .data          0x0000000000119144        0x0 binaries/lflclose.o
 .data          0x0000000000119144        0x0 binaries/lflcontrol.o
 .data          0x0000000000119144        0x0 binaries/lflgetc.o
 .data          0x0000000000119144        0x0 binaries/lflinit.o
 .data          0x0000000000119144        0x0 binaries/lflputc.o
 .data          0x0000000000119144        0x0 binaries/lflread.o
 .data          0x0000000000119144        0x0 binaries/lflseek.o
 .data          0x0000000000119144        0x0 binaries/lflwrite.o
 .data          0x0000000000119144        0x0 binaries/lfsckfmt.o
 .data          0x0000000000119144        0x0 binaries/lfscreate.o
 .data          0x0000000000119144        0x0 binaries/lfsetup.o
 .data          0x0000000000119144        0x0 binaries/lfsinit.o
 .data          0x0000000000119144        0x0 binaries/lfsopen.o
 .data          0x0000000000119144        0x0 binaries/lftruncate.o
 .data          0x0000000000119144        0x0 binaries/rflclose.o
 .data          0x0000000000119144        0x0 binaries/rflgetc.o
 .data          0x0000000000119144        0x0 binaries/rflinit.o
 .data          0x0000000000119144        0x0 binaries/rflputc.o
 .data          0x0000000000119144        0x0 binaries/rflread.o
 .data          0x0000000000119144        0x0 binaries/rflseek.o
 .data          0x0000000000119144        0x0 binaries/rflwrite.o
 .data          0x0000000000119144        0x0 binaries/rfscomm.o
 .data          0x0000000000119144        0x0 binaries/rfscontrol.o
 .data          0x0000000000119144        0x0 binaries/rfsgetmode.o
 .data          0x0000000000119144        0x0 binaries/rfsinit.o
 .data          0x0000000000119144        0x0 binaries/rfsndmsg.o
 .data          0x0000000000119144        0x0 binaries/rfsopen.o
 .data          0x0000000000119144        0x0 binaries/arp.o
 .data          0x0000000000119144        0x0 binaries/dhcp.o
 .data          0x0000000000119144        0x0 binaries/dot2ip.o
 .data          0x0000000000119144        0x0 binaries/hexdump.o
 .data          0x0000000000119144        0x4 binaries/icmp.o
 .data          0x0000000000119148        0x0 binaries/ip.o
 .data          0x0000000000119148        0x0 binaries/net.o
 .data          0x0000000000119148        0x0 binaries/netstart.o
 .data          0x0000000000119148        0x0 binaries/pdump.o
 .data          0x0000000000119148        0x0 binaries/tftp.o
 .data          0x0000000000119148        0x4 binaries/udp.o
 .data          0x000000000011914c        0x0 binaries/addargs.o
 .data          0x000000000011914c        0x0 binaries/lexan.o
 .data          0x000000000011914c        0x4 binaries/shell.o
                0x000000000011914c                ncmd
 .data          0x0000000000119150        0x0 binaries/xsh_argecho.o
 .data          0x0000000000119150        0x0 binaries/xsh_arp.o
 .data          0x0000000000119150        0x0 binaries/xsh_cat.o
 .data          0x0000000000119150        0x0 binaries/xsh_clear.o
 .data          0x0000000000119150        0x0 binaries/xsh_date.o
 .data          0x0000000000119150        0x0 binaries/xsh_devdump.o
 .data          0x0000000000119150        0x0 binaries/xsh_echo.o
 .data          0x0000000000119150        0x0 binaries/xsh_exit.o
 .data          0x0000000000119150        0x0 binaries/xsh_help.o
 .data          0x0000000000119150        0x0 binaries/xsh_ipaddr.o
 .data          0x0000000000119150        0x0 binaries/xsh_kill.o
 .data          0x0000000000119150        0x0 binaries/xsh_memdump.o
 .data          0x0000000000119150        0x0 binaries/xsh_memstat.o
 .data          0x0000000000119150        0x0 binaries/xsh_ping.o
 .data          0x0000000000119150        0x0 binaries/xsh_ps.o
 .data          0x0000000000119150        0x0 binaries/xsh_sleep.o
 .data          0x0000000000119150        0x0 binaries/xsh_udpdump.o
 .data          0x0000000000119150        0x0 binaries/xsh_udpecho.o
 .data          0x0000000000119150        0x0 binaries/xsh_udpeserver.o
 .data          0x0000000000119150        0x0 binaries/xsh_uptime.o
 .data          0x0000000000119150        0x0 binaries/clkdisp.o
 .data          0x0000000000119150        0x0 binaries/ctxsw.o
 .data          0x0000000000119150        0x0 binaries/host2netla.o
 .data          0x0000000000119150        0x0 binaries/host2netlc.o
 .data          0x0000000000119150        0x0 binaries/intr.o
 .data          0x0000000000119150        0x0 binaries/ttydispatch.o
 .data          0x0000000000119150        0x0 binaries/ethdispatch.o
                0x0000000000119150                edata = ABSOLUTE (.)
                0x000000000011a000                . = ALIGN (0x1000)
 *fill*         0x0000000000119150      0xeb0 

.igot.plt       0x000000000011a000        0x0
 .igot.plt      0x000000000011a000        0x0 binaries/start.o

.bss            0x000000000011a000    0x20000
                0x000000000011a000                bss = ABSOLUTE (.)
 *(.bss .bss.*)
 .bss           0x000000000011a000        0x0 binaries/start.o
 .bss           0x000000000011a000        0x0 binaries/app1.o
 .bss           0x000000000011a000        0x0 binaries/app2.o
 .bss           0x000000000011a000        0x0 binaries/app3.o
 .bss           0x000000000011a000        0x0 binaries/app_lim.o
 .bss           0x000000000011a000        0x0 binaries/app_unlim.o
 .bss           0x000000000011a000        0x0 binaries/ascdate.o
 .bss           0x000000000011a000        0x0 binaries/bufinit.o
 .bss           0x000000000011a000        0x0 binaries/chprio.o
 .bss           0x000000000011a000        0x0 binaries/clkhandler.o
 .bss           0x000000000011a000        0x4 binaries/clkinit.o
                0x000000000011a000                ctr1000
 .bss           0x000000000011a004        0x0 binaries/close.o
 .bss           0x000000000011a004        0x0 binaries/conf.o
 .bss           0x000000000011a004        0x0 binaries/control.o
 .bss           0x000000000011a004        0x0 binaries/cpubound.o
 .bss           0x000000000011a004        0x0 binaries/create.o
 .bss           0x000000000011a004        0x0 binaries/early_imr.o
 .bss           0x000000000011a004        0x0 binaries/evec.o
 .bss           0x000000000011a004        0x0 binaries/f1.o
 .bss           0x000000000011a004        0x0 binaries/freebuf.o
 .bss           0x000000000011a004        0x0 binaries/freemem.o
 .bss           0x000000000011a004        0x0 binaries/getbuf.o
 .bss           0x000000000011a004        0x0 binaries/getc.o
 .bss           0x000000000011a004        0x0 binaries/getdev.o
 .bss           0x000000000011a004        0x0 binaries/getitem.o
 .bss           0x000000000011a004        0x0 binaries/getmem.o
 .bss           0x000000000011a004        0x0 binaries/getpid.o
 .bss           0x000000000011a004        0x0 binaries/getppid.o
 .bss           0x000000000011a004        0x0 binaries/getprio.o
 .bss           0x000000000011a004        0x0 binaries/getstk.o
 .bss           0x000000000011a004        0x0 binaries/gettime.o
 .bss           0x000000000011a004        0x0 binaries/getutime.o
 .bss           0x000000000011a004        0x0 binaries/host2netlb.o
 .bss           0x000000000011a004        0x0 binaries/init.o
 .bss           0x000000000011a004        0x0 binaries/initialize.o
 .bss           0x000000000011a004        0x0 binaries/insert.o
 .bss           0x000000000011a004        0x0 binaries/insertd.o
 .bss           0x000000000011a004        0x0 binaries/iobound.o
 .bss           0x000000000011a004        0x0 binaries/ioerr.o
 .bss           0x000000000011a004        0x0 binaries/ionull.o
 .bss           0x000000000011a004        0x0 binaries/kill.o
 .bss           0x000000000011a004        0x0 binaries/kprintf.o
 .bss           0x000000000011a004        0x0 binaries/lab2q3.o
 .bss           0x000000000011a004        0x0 binaries/lab2q4.o
 .bss           0x000000000011a004        0x0 binaries/lab2q5.o
 .bss           0x000000000011a004        0x4 binaries/main.o
                0x000000000011a004                victimglobal
 .bss           0x000000000011a008        0x0 binaries/mark.o
 .bss           0x000000000011a008        0x0 binaries/meminit.o
 .bss           0x000000000011a008        0x0 binaries/mkbufpool.o
 .bss           0x000000000011a008        0x4 binaries/myappA.o
 .bss           0x000000000011a00c        0x4 binaries/myfuncA.o
 .bss           0x000000000011a010        0x0 binaries/myhacker.o
 .bss           0x000000000011a010        0x0 binaries/myvictim.o
 .bss           0x000000000011a010        0x0 binaries/mywelcomemsg.o
 .bss           0x000000000011a010        0x0 binaries/newqueue.o
 .bss           0x000000000011a010        0x0 binaries/open.o
 .bss           0x000000000011a010        0x0 binaries/panic.o
 .bss           0x000000000011a010        0x0 binaries/pci.o
 .bss           0x000000000011a010        0x0 binaries/platinit.o
 .bss           0x000000000011a010        0x0 binaries/printprstate.o
 .bss           0x000000000011a010        0x0 binaries/prntsegaddr.o
 .bss           0x000000000011a010        0x0 binaries/ptclear.o
 .bss           0x000000000011a010        0x0 binaries/ptcount.o
 .bss           0x000000000011a010        0x0 binaries/ptcreate.o
 .bss           0x000000000011a010        0x0 binaries/ptdelete.o
 .bss           0x000000000011a010        0x0 binaries/ptinit.o
 .bss           0x000000000011a010        0x0 binaries/ptrecv.o
 .bss           0x000000000011a010        0x0 binaries/ptreset.o
 .bss           0x000000000011a010        0x0 binaries/ptsend.o
 .bss           0x000000000011a010        0x0 binaries/putc.o
 .bss           0x000000000011a010        0x0 binaries/quark_irq.o
 .bss           0x000000000011a010        0x0 binaries/quark_pdat.o
 .bss           0x000000000011a010        0x0 binaries/queue.o
 .bss           0x000000000011a010        0x0 binaries/read.o
 .bss           0x000000000011a010        0x0 binaries/ready.o
 .bss           0x000000000011a010        0x0 binaries/receive.o
 .bss           0x000000000011a010        0x0 binaries/recvclr.o
 .bss           0x000000000011a010        0x0 binaries/recvtime.o
 .bss           0x000000000011a010        0x4 binaries/resched.o
                0x000000000011a010                prctxswintime
 .bss           0x000000000011a014        0x0 binaries/resume.o
 .bss           0x000000000011a014        0x0 binaries/seek.o
 .bss           0x000000000011a014        0x0 binaries/semcount.o
 .bss           0x000000000011a014        0x4 binaries/semcreate.o
 .bss           0x000000000011a018        0x0 binaries/semdelete.o
 .bss           0x000000000011a018        0x0 binaries/semreset.o
 .bss           0x000000000011a018        0x0 binaries/send.o
 .bss           0x000000000011a018        0x0 binaries/signal.o
 .bss           0x000000000011a018        0x0 binaries/signaln.o
 .bss           0x000000000011a018        0x0 binaries/sleep.o
 .bss           0x000000000011a018        0x8 binaries/stackdepth.o
 .bss           0x000000000011a020        0x8 binaries/stacktrace.o
 .bss           0x000000000011a028        0x0 binaries/suspend.o
 .bss           0x000000000011a028        0x0 binaries/unsleep.o
 .bss           0x000000000011a028        0x0 binaries/userret.o
 .bss           0x000000000011a028        0x0 binaries/wait.o
 .bss           0x000000000011a028        0x0 binaries/wakeup.o
 .bss           0x000000000011a028        0x0 binaries/write.o
 .bss           0x000000000011a028        0x0 binaries/xdone.o
 .bss           0x000000000011a028        0x0 binaries/yield.o
 .bss           0x000000000011a028        0x0 binaries/abs.o
 .bss           0x000000000011a028        0x0 binaries/atoi.o
 .bss           0x000000000011a028        0x0 binaries/atol.o
 .bss           0x000000000011a028        0x0 binaries/bzero.o
 .bss           0x000000000011a028        0x0 binaries/ctype_.o
 .bss           0x000000000011a028        0x0 binaries/doprnt.o
 .bss           0x000000000011a028        0x0 binaries/doscan.o
 .bss           0x000000000011a028        0x0 binaries/fdoprnt.o
 .bss           0x000000000011a028        0x0 binaries/fgetc.o
 .bss           0x000000000011a028        0x0 binaries/fgets.o
 .bss           0x000000000011a028        0x0 binaries/fprintf.o
 .bss           0x000000000011a028        0x0 binaries/fputc.o
 .bss           0x000000000011a028        0x0 binaries/fputs.o
 .bss           0x000000000011a028        0x0 binaries/fscanf.o
 .bss           0x000000000011a028        0x0 binaries/getchar.o
 .bss           0x000000000011a028        0x0 binaries/labs.o
 .bss           0x000000000011a028        0x0 binaries/memchr.o
 .bss           0x000000000011a028        0x0 binaries/memcmp.o
 .bss           0x000000000011a028        0x0 binaries/memcpy.o
 .bss           0x000000000011a028        0x0 binaries/memset.o
 .bss           0x000000000011a028        0x0 binaries/printf.o
 .bss           0x000000000011a028        0x0 binaries/putchar.o
 .bss           0x000000000011a028        0x8 binaries/qsort.o
 .bss           0x000000000011a030        0x0 binaries/rand.o
 .bss           0x000000000011a030        0x0 binaries/sprintf.o
 .bss           0x000000000011a030        0x0 binaries/sscanf.o
 .bss           0x000000000011a030        0x0 binaries/strchr.o
 .bss           0x000000000011a030        0x0 binaries/strcmp.o
 .bss           0x000000000011a030        0x0 binaries/strcpy.o
 .bss           0x000000000011a030        0x0 binaries/strlen.o
 .bss           0x000000000011a030        0x0 binaries/strncat.o
 .bss           0x000000000011a030        0x0 binaries/strncmp.o
 .bss           0x000000000011a030        0x0 binaries/strncpy.o
 .bss           0x000000000011a030        0x0 binaries/strnlen.o
 .bss           0x000000000011a030        0x0 binaries/strrchr.o
 .bss           0x000000000011a030        0x0 binaries/strstr.o
 .bss           0x000000000011a030        0x0 binaries/ttycontrol.o
 .bss           0x000000000011a030        0x0 binaries/ttygetc.o
 .bss           0x000000000011a030        0x0 binaries/ttyhandle_in.o
 .bss           0x000000000011a030        0x0 binaries/ttyhandle_out.o
 .bss           0x000000000011a030        0x0 binaries/ttyhandler.o
 .bss           0x000000000011a030        0x0 binaries/ttyinit.o
 .bss           0x000000000011a030        0x0 binaries/ttykickout.o
 .bss           0x000000000011a030        0x0 binaries/ttyputc.o
 .bss           0x000000000011a030        0x0 binaries/ttyread.o
 .bss           0x000000000011a030        0x0 binaries/ttywrite.o
 .bss           0x000000000011a030        0x0 binaries/mount.o
 .bss           0x000000000011a030        0x0 binaries/naminit.o
 .bss           0x000000000011a030        0x0 binaries/nammap.o
 .bss           0x000000000011a030        0x0 binaries/namopen.o
 .bss           0x000000000011a030        0x0 binaries/colon2mac.o
 .bss           0x000000000011a030        0x0 binaries/ethcontrol.o
 .bss           0x000000000011a030        0x0 binaries/ethhandler.o
 .bss           0x000000000011a030        0x0 binaries/ethinit.o
 .bss           0x000000000011a030        0x0 binaries/ethmcast.o
 .bss           0x000000000011a030        0x0 binaries/ethread.o
 .bss           0x000000000011a030        0x0 binaries/ethwrite.o
 .bss           0x000000000011a030        0x0 binaries/rdsbufalloc.o
 .bss           0x000000000011a030        0x0 binaries/rdsclose.o
 .bss           0x000000000011a030        0x0 binaries/rdscomm.o
 .bss           0x000000000011a030        0x0 binaries/rdscontrol.o
 .bss           0x000000000011a030        0x0 binaries/rdsinit.o
 .bss           0x000000000011a030        0x0 binaries/rdsopen.o
 .bss           0x000000000011a030        0x0 binaries/rdsprocess.o
 .bss           0x000000000011a030        0x0 binaries/rdsread.o
 .bss           0x000000000011a030        0x0 binaries/rdswrite.o
 .bss           0x000000000011a030        0x0 binaries/ramclose.o
 .bss           0x000000000011a030        0x0 binaries/raminit.o
 .bss           0x000000000011a030        0x0 binaries/ramopen.o
 .bss           0x000000000011a030        0x0 binaries/ramread.o
 .bss           0x000000000011a030        0x0 binaries/ramwrite.o
 .bss           0x000000000011a030        0x0 binaries/lfdballoc.o
 .bss           0x000000000011a030        0x0 binaries/lfdbfree.o
 .bss           0x000000000011a030        0x0 binaries/lfflush.o
 .bss           0x000000000011a030        0x0 binaries/lfgetmode.o
 .bss           0x000000000011a030        0x0 binaries/lfiballoc.o
 .bss           0x000000000011a030        0x0 binaries/lfibclear.o
 .bss           0x000000000011a030        0x0 binaries/lfibget.o
 .bss           0x000000000011a030        0x0 binaries/lfibput.o
 .bss           0x000000000011a030        0x0 binaries/lflclose.o
 .bss           0x000000000011a030        0x0 binaries/lflcontrol.o
 .bss           0x000000000011a030        0x0 binaries/lflgetc.o
 .bss           0x000000000011a030        0x0 binaries/lflinit.o
 .bss           0x000000000011a030        0x0 binaries/lflputc.o
 .bss           0x000000000011a030        0x0 binaries/lflread.o
 .bss           0x000000000011a030        0x0 binaries/lflseek.o
 .bss           0x000000000011a030        0x0 binaries/lflwrite.o
 .bss           0x000000000011a030        0x0 binaries/lfsckfmt.o
 .bss           0x000000000011a030        0x0 binaries/lfscreate.o
 .bss           0x000000000011a030        0x0 binaries/lfsetup.o
 .bss           0x000000000011a030        0x0 binaries/lfsinit.o
 .bss           0x000000000011a030        0x0 binaries/lfsopen.o
 .bss           0x000000000011a030        0x0 binaries/lftruncate.o
 .bss           0x000000000011a030        0x0 binaries/rflclose.o
 .bss           0x000000000011a030        0x0 binaries/rflgetc.o
 .bss           0x000000000011a030        0x0 binaries/rflinit.o
 .bss           0x000000000011a030        0x0 binaries/rflputc.o
 .bss           0x000000000011a030        0x0 binaries/rflread.o
 .bss           0x000000000011a030        0x0 binaries/rflseek.o
 .bss           0x000000000011a030        0x0 binaries/rflwrite.o
 .bss           0x000000000011a030        0x0 binaries/rfscomm.o
 .bss           0x000000000011a030        0x0 binaries/rfscontrol.o
 .bss           0x000000000011a030        0x0 binaries/rfsgetmode.o
 .bss           0x000000000011a030        0x0 binaries/rfsinit.o
 .bss           0x000000000011a030        0x0 binaries/rfsndmsg.o
 .bss           0x000000000011a030        0x0 binaries/rfsopen.o
 .bss           0x000000000011a030        0x0 binaries/arp.o
 .bss           0x000000000011a030        0x0 binaries/dhcp.o
 .bss           0x000000000011a030        0x0 binaries/dot2ip.o
 .bss           0x000000000011a030        0x0 binaries/hexdump.o
 .bss           0x000000000011a030        0x0 binaries/icmp.o
 .bss           0x000000000011a030        0x0 binaries/ip.o
 .bss           0x000000000011a030        0x0 binaries/net.o
 .bss           0x000000000011a030        0x0 binaries/netstart.o
 .bss           0x000000000011a030        0x0 binaries/pdump.o
 .bss           0x000000000011a030        0x0 binaries/tftp.o
 .bss           0x000000000011a030        0x0 binaries/udp.o
 .bss           0x000000000011a030        0x0 binaries/addargs.o
 .bss           0x000000000011a030        0x0 binaries/lexan.o
 .bss           0x000000000011a030        0x0 binaries/shell.o
 .bss           0x000000000011a030        0x0 binaries/xsh_argecho.o
 .bss           0x000000000011a030        0x0 binaries/xsh_arp.o
 .bss           0x000000000011a030        0x0 binaries/xsh_cat.o
 .bss           0x000000000011a030        0x0 binaries/xsh_clear.o
 .bss           0x000000000011a030        0x0 binaries/xsh_date.o
 .bss           0x000000000011a030        0x0 binaries/xsh_devdump.o
 .bss           0x000000000011a030        0x0 binaries/xsh_echo.o
 .bss           0x000000000011a030        0x0 binaries/xsh_exit.o
 .bss           0x000000000011a030        0x0 binaries/xsh_help.o
 .bss           0x000000000011a030        0x0 binaries/xsh_ipaddr.o
 .bss           0x000000000011a030        0x0 binaries/xsh_kill.o
 .bss           0x000000000011a030        0x0 binaries/xsh_memdump.o
 .bss           0x000000000011a030        0x0 binaries/xsh_memstat.o
 .bss           0x000000000011a030        0x4 binaries/xsh_ping.o
 .bss           0x000000000011a034        0x0 binaries/xsh_ps.o
 .bss           0x000000000011a034        0x0 binaries/xsh_sleep.o
 .bss           0x000000000011a034        0x0 binaries/xsh_udpdump.o
 .bss           0x000000000011a034        0x0 binaries/xsh_udpecho.o
 .bss           0x000000000011a034        0x0 binaries/xsh_udpeserver.o
 .bss           0x000000000011a034        0x0 binaries/xsh_uptime.o
 .bss           0x000000000011a034        0x0 binaries/clkdisp.o
 .bss           0x000000000011a034        0x0 binaries/ctxsw.o
 .bss           0x000000000011a034        0x0 binaries/host2netla.o
 .bss           0x000000000011a034        0x0 binaries/host2netlc.o
 .bss           0x000000000011a034        0x0 binaries/intr.o
 .bss           0x000000000011a034        0x0 binaries/ttydispatch.o
 .bss           0x000000000011a034        0x0 binaries/ethdispatch.o
 *(COMMON)
 *fill*         0x000000000011a034        0xc 
 COMMON         0x000000000011a040       0xf4 binaries/bufinit.o
                0x000000000011a040                buftab
                0x000000000011a130                nbpools
 COMMON         0x000000000011a134       0x10 binaries/clkinit.o
                0x000000000011a134                sleepq
                0x000000000011a138                preempt
                0x000000000011a13c                clktimemsec
                0x000000000011a140                clktime
 COMMON         0x000000000011a144        0x2 binaries/evec.o
                0x000000000011a144                girmask
 *fill*         0x000000000011a146       0x1a 
 COMMON         0x000000000011a160     0x1df8 binaries/initialize.o
                0x000000000011a160                currpid
                0x000000000011a180                proctab
                0x000000000011ba80                prcount
                0x000000000011baa0                semtab
                0x000000000011bf50                memlist
 *fill*         0x000000000011bf58        0x8 
 COMMON         0x000000000011bf60       0x58 binaries/mark.o
                0x000000000011bf60                marks
                0x000000000011bfb0                nmarks
                0x000000000011bfb4                mkmutex
 COMMON         0x000000000011bfb8        0x8 binaries/meminit.o
                0x000000000011bfb8                minheap
                0x000000000011bfbc                maxheap
 COMMON         0x000000000011bfc0      0x2d8 binaries/ptinit.o
                0x000000000011bfc0                porttab
                0x000000000011c290                ptnextid
                0x000000000011c294                ptfree
 *fill*         0x000000000011c298        0x8 
 COMMON         0x000000000011c2a0      0x980 binaries/queue.o
                0x000000000011c2a0                queuetab
 COMMON         0x000000000011cc20        0x2 binaries/ready.o
                0x000000000011cc20                readylist
 *fill*         0x000000000011cc22        0x2 
 COMMON         0x000000000011cc24        0x8 binaries/resched.o
                0x000000000011cc24                Defer
 *fill*         0x000000000011cc2c       0x14 
 COMMON         0x000000000011cc40      0x10c binaries/ttyinit.o
                0x000000000011cc40                ttytab
 *fill*         0x000000000011cd4c       0x14 
 COMMON         0x000000000011cd60     0x19c0 binaries/naminit.o
                0x000000000011cd60                nnames
                0x000000000011cd80                nametab
 COMMON         0x000000000011e720      0x138 binaries/ethinit.o
                0x000000000011e720                ethertab
 *fill*         0x000000000011e858        0x8 
 COMMON         0x000000000011e860       0x8c binaries/rdsinit.o
                0x000000000011e860                rdstab
 *fill*         0x000000000011e8ec       0x14 
 COMMON         0x000000000011e900    0x19000 binaries/raminit.o
                0x000000000011e900                Ram
 COMMON         0x0000000000137900      0xf00 binaries/lflinit.o
                0x0000000000137900                lfltab
 COMMON         0x0000000000138800      0x20c binaries/lfsinit.o
                0x0000000000138800                Lf_data
 *fill*         0x0000000000138a0c       0x14 
 COMMON         0x0000000000138a20      0x5a0 binaries/rflinit.o
                0x0000000000138a20                rfltab
 COMMON         0x0000000000138fc0       0x18 binaries/rfsinit.o
                0x0000000000138fc0                Rf_data
 *fill*         0x0000000000138fd8        0x8 
 COMMON         0x0000000000138fe0      0x140 binaries/arp.o
                0x0000000000138fe0                arpcache
 COMMON         0x0000000000139120      0x230 binaries/icmp.o
                0x0000000000139120                icmptab
 *fill*         0x0000000000139350       0x10 
 COMMON         0x0000000000139360       0x2c binaries/ip.o
                0x0000000000139360                ipoqueue
 *fill*         0x000000000013938c       0x14 
 COMMON         0x00000000001393a0       0xc8 binaries/net.o
                0x00000000001393a0                netbufpool
                0x00000000001393c0                NetData
 *fill*         0x0000000000139468       0x18 
 COMMON         0x0000000000139480      0x168 binaries/udp.o
                0x0000000000139480                udptab
                0x00000000001395e8                ebss = ABSOLUTE (.)
                0x000000000013a000                . = ALIGN (0x1000)
 *fill*         0x00000000001395e8      0xa18 
 */()
                0x000000000013a000                end = ABSOLUTE (.)
                0x000000000013a000                _end = ABSOLUTE (.)
                0x000000000013a000                . = ALIGN (0x1000)
LOAD binaries/start.o
LOAD binaries/app1.o
LOAD binaries/app2.o
LOAD binaries/app3.o
LOAD binaries/app_lim.o
LOAD binaries/app_unlim.o
LOAD binaries/ascdate.o
LOAD binaries/bufinit.o
LOAD binaries/chprio.o
LOAD binaries/clkhandler.o
LOAD binaries/clkinit.o
LOAD binaries/close.o
LOAD binaries/conf.o
LOAD binaries/control.o
LOAD binaries/cpubound.o
LOAD binaries/create.o
LOAD binaries/early_imr.o
LOAD binaries/evec.o
LOAD binaries/f1.o
LOAD binaries/freebuf.o
LOAD binaries/freemem.o
LOAD binaries/getbuf.o
LOAD binaries/getc.o
LOAD binaries/getdev.o
LOAD binaries/getitem.o
LOAD binaries/getmem.o
LOAD binaries/getpid.o
LOAD binaries/getppid.o
LOAD binaries/getprio.o
LOAD binaries/getstk.o
LOAD binaries/gettime.o
LOAD binaries/getutime.o
LOAD binaries/host2netlb.o
LOAD binaries/init.o
LOAD binaries/initialize.o
LOAD binaries/insert.o
LOAD binaries/insertd.o
LOAD binaries/iobound.o
LOAD binaries/ioerr.o
LOAD binaries/ionull.o
LOAD binaries/kill.o
LOAD binaries/kprintf.o
LOAD binaries/lab2q3.o
LOAD binaries/lab2q4.o
LOAD binaries/lab2q5.o
LOAD binaries/main.o
LOAD binaries/mark.o
LOAD binaries/meminit.o
LOAD binaries/mkbufpool.o
LOAD binaries/myappA.o
LOAD binaries/myfuncA.o
LOAD binaries/myhacker.o
LOAD binaries/myvictim.o
LOAD binaries/mywelcomemsg.o
LOAD binaries/newqueue.o
LOAD binaries/open.o
LOAD binaries/panic.o
LOAD binaries/pci.o
LOAD binaries/platinit.o
LOAD binaries/printprstate.o
LOAD binaries/prntsegaddr.o
LOAD binaries/ptclear.o
LOAD binaries/ptcount.o
LOAD binaries/ptcreate.o
LOAD binaries/ptdelete.o
LOAD binaries/ptinit.o
LOAD binaries/ptrecv.o
LOAD binaries/ptreset.o
LOAD binaries/ptsend.o
LOAD binaries/putc.o
LOAD binaries/quark_irq.o
LOAD binaries/quark_pdat.o
LOAD binaries/queue.o
LOAD binaries/read.o
LOAD binaries/ready.o
LOAD binaries/receive.o
LOAD binaries/recvclr.o
LOAD binaries/recvtime.o
LOAD binaries/resched.o
LOAD binaries/resume.o
LOAD binaries/seek.o
LOAD binaries/semcount.o
LOAD binaries/semcreate.o
LOAD binaries/semdelete.o
LOAD binaries/semreset.o
LOAD binaries/send.o
LOAD binaries/signal.o
LOAD binaries/signaln.o
LOAD binaries/sleep.o
LOAD binaries/stackdepth.o
LOAD binaries/stacktrace.o
LOAD binaries/suspend.o
LOAD binaries/unsleep.o
LOAD binaries/userret.o
LOAD binaries/wait.o
LOAD binaries/wakeup.o
LOAD binaries/write.o
LOAD binaries/xdone.o
LOAD binaries/yield.o
LOAD binaries/abs.o
LOAD binaries/atoi.o
LOAD binaries/atol.o
LOAD binaries/bzero.o
LOAD binaries/ctype_.o
LOAD binaries/doprnt.o
LOAD binaries/doscan.o
LOAD binaries/fdoprnt.o
LOAD binaries/fgetc.o
LOAD binaries/fgets.o
LOAD binaries/fprintf.o
LOAD binaries/fputc.o
LOAD binaries/fputs.o
LOAD binaries/fscanf.o
LOAD binaries/getchar.o
LOAD binaries/labs.o
LOAD binaries/memchr.o
LOAD binaries/memcmp.o
LOAD binaries/memcpy.o
LOAD binaries/memset.o
LOAD binaries/printf.o
LOAD binaries/putchar.o
LOAD binaries/qsort.o
LOAD binaries/rand.o
LOAD binaries/sprintf.o
LOAD binaries/sscanf.o
LOAD binaries/strchr.o
LOAD binaries/strcmp.o
LOAD binaries/strcpy.o
LOAD binaries/strlen.o
LOAD binaries/strncat.o
LOAD binaries/strncmp.o
LOAD binaries/strncpy.o
LOAD binaries/strnlen.o
LOAD binaries/strrchr.o
LOAD binaries/strstr.o
LOAD binaries/ttycontrol.o
LOAD binaries/ttygetc.o
LOAD binaries/ttyhandle_in.o
LOAD binaries/ttyhandle_out.o
LOAD binaries/ttyhandler.o
LOAD binaries/ttyinit.o
LOAD binaries/ttykickout.o
LOAD binaries/ttyputc.o
LOAD binaries/ttyread.o
LOAD binaries/ttywrite.o
LOAD binaries/mount.o
LOAD binaries/naminit.o
LOAD binaries/nammap.o
LOAD binaries/namopen.o
LOAD binaries/colon2mac.o
LOAD binaries/ethcontrol.o
LOAD binaries/ethhandler.o
LOAD binaries/ethinit.o
LOAD binaries/ethmcast.o
LOAD binaries/ethread.o
LOAD binaries/ethwrite.o
LOAD binaries/rdsbufalloc.o
LOAD binaries/rdsclose.o
LOAD binaries/rdscomm.o
LOAD binaries/rdscontrol.o
LOAD binaries/rdsinit.o
LOAD binaries/rdsopen.o
LOAD binaries/rdsprocess.o
LOAD binaries/rdsread.o
LOAD binaries/rdswrite.o
LOAD binaries/ramclose.o
LOAD binaries/raminit.o
LOAD binaries/ramopen.o
LOAD binaries/ramread.o
LOAD binaries/ramwrite.o
LOAD binaries/lfdballoc.o
LOAD binaries/lfdbfree.o
LOAD binaries/lfflush.o
LOAD binaries/lfgetmode.o
LOAD binaries/lfiballoc.o
LOAD binaries/lfibclear.o
LOAD binaries/lfibget.o
LOAD binaries/lfibput.o
LOAD binaries/lflclose.o
LOAD binaries/lflcontrol.o
LOAD binaries/lflgetc.o
LOAD binaries/lflinit.o
LOAD binaries/lflputc.o
LOAD binaries/lflread.o
LOAD binaries/lflseek.o
LOAD binaries/lflwrite.o
LOAD binaries/lfsckfmt.o
LOAD binaries/lfscreate.o
LOAD binaries/lfsetup.o
LOAD binaries/lfsinit.o
LOAD binaries/lfsopen.o
LOAD binaries/lftruncate.o
LOAD binaries/rflclose.o
LOAD binaries/rflgetc.o
LOAD binaries/rflinit.o
LOAD binaries/rflputc.o
LOAD binaries/rflread.o
LOAD binaries/rflseek.o
LOAD binaries/rflwrite.o
LOAD binaries/rfscomm.o
LOAD binaries/rfscontrol.o
LOAD binaries/rfsgetmode.o
LOAD binaries/rfsinit.o
LOAD binaries/rfsndmsg.o
LOAD binaries/rfsopen.o
LOAD binaries/arp.o
LOAD binaries/dhcp.o
LOAD binaries/dot2ip.o
LOAD binaries/hexdump.o
LOAD binaries/icmp.o
LOAD binaries/ip.o
LOAD binaries/net.o
LOAD binaries/netstart.o
LOAD binaries/pdump.o
LOAD binaries/tftp.o
LOAD binaries/udp.o
LOAD binaries/addargs.o
LOAD binaries/lexan.o
LOAD binaries/shell.o
LOAD binaries/xsh_argecho.o
LOAD binaries/xsh_arp.o
LOAD binaries/xsh_cat.o
LOAD binaries/xsh_clear.o
LOAD binaries/xsh_date.o
LOAD binaries/xsh_devdump.o
LOAD binaries/xsh_echo.o
LOAD binaries/xsh_exit.o
LOAD binaries/xsh_help.o
LOAD binaries/xsh_ipaddr.o
LOAD binaries/xsh_kill.o
LOAD binaries/xsh_memdump.o
LOAD binaries/xsh_memstat.o
LOAD binaries/xsh_ping.o
LOAD binaries/xsh_ps.o
LOAD binaries/xsh_sleep.o
LOAD binaries/xsh_udpdump.o
LOAD binaries/xsh_udpecho.o
LOAD binaries/xsh_udpeserver.o
LOAD binaries/xsh_uptime.o
LOAD binaries/clkdisp.o
LOAD binaries/ctxsw.o
LOAD binaries/host2netla.o
LOAD binaries/host2netlc.o
LOAD binaries/intr.o
LOAD binaries/ttydispatch.o
LOAD binaries/ethdispatch.o
OUTPUT(../compile/xinu elf32-i386)

.comment        0x0000000000000000       0x2a
 .comment       0x0000000000000000       0x2a binaries/app1.o
                                         0x2b (size before relaxing)
 .comment       0x000000000000002a       0x2b binaries/app2.o
 .comment       0x000000000000002a       0x2b binaries/app3.o
 .comment       0x000000000000002a       0x2b binaries/app_lim.o
 .comment       0x000000000000002a       0x2b binaries/app_unlim.o
 .comment       0x000000000000002a       0x2b binaries/ascdate.o
 .comment       0x000000000000002a       0x2b binaries/bufinit.o
 .comment       0x000000000000002a       0x2b binaries/chprio.o
 .comment       0x000000000000002a       0x2b binaries/clkhandler.o
 .comment       0x000000000000002a       0x2b binaries/clkinit.o
 .comment       0x000000000000002a       0x2b binaries/close.o
 .comment       0x000000000000002a       0x2b binaries/conf.o
 .comment       0x000000000000002a       0x2b binaries/control.o
 .comment       0x000000000000002a       0x2b binaries/cpubound.o
 .comment       0x000000000000002a       0x2b binaries/create.o
 .comment       0x000000000000002a       0x2b binaries/early_imr.o
 .comment       0x000000000000002a       0x2b binaries/evec.o
 .comment       0x000000000000002a       0x2b binaries/f1.o
 .comment       0x000000000000002a       0x2b binaries/freebuf.o
 .comment       0x000000000000002a       0x2b binaries/freemem.o
 .comment       0x000000000000002a       0x2b binaries/getbuf.o
 .comment       0x000000000000002a       0x2b binaries/getc.o
 .comment       0x000000000000002a       0x2b binaries/getdev.o
 .comment       0x000000000000002a       0x2b binaries/getitem.o
 .comment       0x000000000000002a       0x2b binaries/getmem.o
 .comment       0x000000000000002a       0x2b binaries/getpid.o
 .comment       0x000000000000002a       0x2b binaries/getppid.o
 .comment       0x000000000000002a       0x2b binaries/getprio.o
 .comment       0x000000000000002a       0x2b binaries/getstk.o
 .comment       0x000000000000002a       0x2b binaries/gettime.o
 .comment       0x000000000000002a       0x2b binaries/getutime.o
 .comment       0x000000000000002a       0x2b binaries/host2netlb.o
 .comment       0x000000000000002a       0x2b binaries/init.o
 .comment       0x000000000000002a       0x2b binaries/initialize.o
 .comment       0x000000000000002a       0x2b binaries/insert.o
 .comment       0x000000000000002a       0x2b binaries/insertd.o
 .comment       0x000000000000002a       0x2b binaries/iobound.o
 .comment       0x000000000000002a       0x2b binaries/ioerr.o
 .comment       0x000000000000002a       0x2b binaries/ionull.o
 .comment       0x000000000000002a       0x2b binaries/kill.o
 .comment       0x000000000000002a       0x2b binaries/kprintf.o
 .comment       0x000000000000002a       0x2b binaries/lab2q3.o
 .comment       0x000000000000002a       0x2b binaries/lab2q4.o
 .comment       0x000000000000002a       0x2b binaries/lab2q5.o
 .comment       0x000000000000002a       0x2b binaries/main.o
 .comment       0x000000000000002a       0x2b binaries/mark.o
 .comment       0x000000000000002a       0x2b binaries/meminit.o
 .comment       0x000000000000002a       0x2b binaries/mkbufpool.o
 .comment       0x000000000000002a       0x2b binaries/myappA.o
 .comment       0x000000000000002a       0x2b binaries/myfuncA.o
 .comment       0x000000000000002a       0x2b binaries/myhacker.o
 .comment       0x000000000000002a       0x2b binaries/myvictim.o
 .comment       0x000000000000002a       0x2b binaries/mywelcomemsg.o
 .comment       0x000000000000002a       0x2b binaries/newqueue.o
 .comment       0x000000000000002a       0x2b binaries/open.o
 .comment       0x000000000000002a       0x2b binaries/panic.o
 .comment       0x000000000000002a       0x2b binaries/pci.o
 .comment       0x000000000000002a       0x2b binaries/platinit.o
 .comment       0x000000000000002a       0x2b binaries/printprstate.o
 .comment       0x000000000000002a       0x2b binaries/prntsegaddr.o
 .comment       0x000000000000002a       0x2b binaries/ptclear.o
 .comment       0x000000000000002a       0x2b binaries/ptcount.o
 .comment       0x000000000000002a       0x2b binaries/ptcreate.o
 .comment       0x000000000000002a       0x2b binaries/ptdelete.o
 .comment       0x000000000000002a       0x2b binaries/ptinit.o
 .comment       0x000000000000002a       0x2b binaries/ptrecv.o
 .comment       0x000000000000002a       0x2b binaries/ptreset.o
 .comment       0x000000000000002a       0x2b binaries/ptsend.o
 .comment       0x000000000000002a       0x2b binaries/putc.o
 .comment       0x000000000000002a       0x2b binaries/quark_irq.o
 .comment       0x000000000000002a       0x2b binaries/quark_pdat.o
 .comment       0x000000000000002a       0x2b binaries/queue.o
 .comment       0x000000000000002a       0x2b binaries/read.o
 .comment       0x000000000000002a       0x2b binaries/ready.o
 .comment       0x000000000000002a       0x2b binaries/receive.o
 .comment       0x000000000000002a       0x2b binaries/recvclr.o
 .comment       0x000000000000002a       0x2b binaries/recvtime.o
 .comment       0x000000000000002a       0x2b binaries/resched.o
 .comment       0x000000000000002a       0x2b binaries/resume.o
 .comment       0x000000000000002a       0x2b binaries/seek.o
 .comment       0x000000000000002a       0x2b binaries/semcount.o
 .comment       0x000000000000002a       0x2b binaries/semcreate.o
 .comment       0x000000000000002a       0x2b binaries/semdelete.o
 .comment       0x000000000000002a       0x2b binaries/semreset.o
 .comment       0x000000000000002a       0x2b binaries/send.o
 .comment       0x000000000000002a       0x2b binaries/signal.o
 .comment       0x000000000000002a       0x2b binaries/signaln.o
 .comment       0x000000000000002a       0x2b binaries/sleep.o
 .comment       0x000000000000002a       0x2b binaries/stackdepth.o
 .comment       0x000000000000002a       0x2b binaries/stacktrace.o
 .comment       0x000000000000002a       0x2b binaries/suspend.o
 .comment       0x000000000000002a       0x2b binaries/unsleep.o
 .comment       0x000000000000002a       0x2b binaries/userret.o
 .comment       0x000000000000002a       0x2b binaries/wait.o
 .comment       0x000000000000002a       0x2b binaries/wakeup.o
 .comment       0x000000000000002a       0x2b binaries/write.o
 .comment       0x000000000000002a       0x2b binaries/xdone.o
 .comment       0x000000000000002a       0x2b binaries/yield.o
 .comment       0x000000000000002a       0x2b binaries/abs.o
 .comment       0x000000000000002a       0x2b binaries/atoi.o
 .comment       0x000000000000002a       0x2b binaries/atol.o
 .comment       0x000000000000002a       0x2b binaries/bzero.o
 .comment       0x000000000000002a       0x2b binaries/ctype_.o
 .comment       0x000000000000002a       0x2b binaries/doprnt.o
 .comment       0x000000000000002a       0x2b binaries/doscan.o
 .comment       0x000000000000002a       0x2b binaries/fdoprnt.o
 .comment       0x000000000000002a       0x2b binaries/fgetc.o
 .comment       0x000000000000002a       0x2b binaries/fgets.o
 .comment       0x000000000000002a       0x2b binaries/fprintf.o
 .comment       0x000000000000002a       0x2b binaries/fputc.o
 .comment       0x000000000000002a       0x2b binaries/fputs.o
 .comment       0x000000000000002a       0x2b binaries/fscanf.o
 .comment       0x000000000000002a       0x2b binaries/getchar.o
 .comment       0x000000000000002a       0x2b binaries/labs.o
 .comment       0x000000000000002a       0x2b binaries/memchr.o
 .comment       0x000000000000002a       0x2b binaries/memcmp.o
 .comment       0x000000000000002a       0x2b binaries/memcpy.o
 .comment       0x000000000000002a       0x2b binaries/memset.o
 .comment       0x000000000000002a       0x2b binaries/printf.o
 .comment       0x000000000000002a       0x2b binaries/putchar.o
 .comment       0x000000000000002a       0x2b binaries/qsort.o
 .comment       0x000000000000002a       0x2b binaries/rand.o
 .comment       0x000000000000002a       0x2b binaries/sprintf.o
 .comment       0x000000000000002a       0x2b binaries/sscanf.o
 .comment       0x000000000000002a       0x2b binaries/strchr.o
 .comment       0x000000000000002a       0x2b binaries/strcmp.o
 .comment       0x000000000000002a       0x2b binaries/strcpy.o
 .comment       0x000000000000002a       0x2b binaries/strlen.o
 .comment       0x000000000000002a       0x2b binaries/strncat.o
 .comment       0x000000000000002a       0x2b binaries/strncmp.o
 .comment       0x000000000000002a       0x2b binaries/strncpy.o
 .comment       0x000000000000002a       0x2b binaries/strnlen.o
 .comment       0x000000000000002a       0x2b binaries/strrchr.o
 .comment       0x000000000000002a       0x2b binaries/strstr.o
 .comment       0x000000000000002a       0x2b binaries/ttycontrol.o
 .comment       0x000000000000002a       0x2b binaries/ttygetc.o
 .comment       0x000000000000002a       0x2b binaries/ttyhandle_in.o
 .comment       0x000000000000002a       0x2b binaries/ttyhandle_out.o
 .comment       0x000000000000002a       0x2b binaries/ttyhandler.o
 .comment       0x000000000000002a       0x2b binaries/ttyinit.o
 .comment       0x000000000000002a       0x2b binaries/ttykickout.o
 .comment       0x000000000000002a       0x2b binaries/ttyputc.o
 .comment       0x000000000000002a       0x2b binaries/ttyread.o
 .comment       0x000000000000002a       0x2b binaries/ttywrite.o
 .comment       0x000000000000002a       0x2b binaries/mount.o
 .comment       0x000000000000002a       0x2b binaries/naminit.o
 .comment       0x000000000000002a       0x2b binaries/nammap.o
 .comment       0x000000000000002a       0x2b binaries/namopen.o
 .comment       0x000000000000002a       0x2b binaries/colon2mac.o
 .comment       0x000000000000002a       0x2b binaries/ethcontrol.o
 .comment       0x000000000000002a       0x2b binaries/ethhandler.o
 .comment       0x000000000000002a       0x2b binaries/ethinit.o
 .comment       0x000000000000002a       0x2b binaries/ethmcast.o
 .comment       0x000000000000002a       0x2b binaries/ethread.o
 .comment       0x000000000000002a       0x2b binaries/ethwrite.o
 .comment       0x000000000000002a       0x2b binaries/rdsbufalloc.o
 .comment       0x000000000000002a       0x2b binaries/rdsclose.o
 .comment       0x000000000000002a       0x2b binaries/rdscomm.o
 .comment       0x000000000000002a       0x2b binaries/rdscontrol.o
 .comment       0x000000000000002a       0x2b binaries/rdsinit.o
 .comment       0x000000000000002a       0x2b binaries/rdsopen.o
 .comment       0x000000000000002a       0x2b binaries/rdsprocess.o
 .comment       0x000000000000002a       0x2b binaries/rdsread.o
 .comment       0x000000000000002a       0x2b binaries/rdswrite.o
 .comment       0x000000000000002a       0x2b binaries/ramclose.o
 .comment       0x000000000000002a       0x2b binaries/raminit.o
 .comment       0x000000000000002a       0x2b binaries/ramopen.o
 .comment       0x000000000000002a       0x2b binaries/ramread.o
 .comment       0x000000000000002a       0x2b binaries/ramwrite.o
 .comment       0x000000000000002a       0x2b binaries/lfdballoc.o
 .comment       0x000000000000002a       0x2b binaries/lfdbfree.o
 .comment       0x000000000000002a       0x2b binaries/lfflush.o
 .comment       0x000000000000002a       0x2b binaries/lfgetmode.o
 .comment       0x000000000000002a       0x2b binaries/lfiballoc.o
 .comment       0x000000000000002a       0x2b binaries/lfibclear.o
 .comment       0x000000000000002a       0x2b binaries/lfibget.o
 .comment       0x000000000000002a       0x2b binaries/lfibput.o
 .comment       0x000000000000002a       0x2b binaries/lflclose.o
 .comment       0x000000000000002a       0x2b binaries/lflcontrol.o
 .comment       0x000000000000002a       0x2b binaries/lflgetc.o
 .comment       0x000000000000002a       0x2b binaries/lflinit.o
 .comment       0x000000000000002a       0x2b binaries/lflputc.o
 .comment       0x000000000000002a       0x2b binaries/lflread.o
 .comment       0x000000000000002a       0x2b binaries/lflseek.o
 .comment       0x000000000000002a       0x2b binaries/lflwrite.o
 .comment       0x000000000000002a       0x2b binaries/lfsckfmt.o
 .comment       0x000000000000002a       0x2b binaries/lfscreate.o
 .comment       0x000000000000002a       0x2b binaries/lfsetup.o
 .comment       0x000000000000002a       0x2b binaries/lfsinit.o
 .comment       0x000000000000002a       0x2b binaries/lfsopen.o
 .comment       0x000000000000002a       0x2b binaries/lftruncate.o
 .comment       0x000000000000002a       0x2b binaries/rflclose.o
 .comment       0x000000000000002a       0x2b binaries/rflgetc.o
 .comment       0x000000000000002a       0x2b binaries/rflinit.o
 .comment       0x000000000000002a       0x2b binaries/rflputc.o
 .comment       0x000000000000002a       0x2b binaries/rflread.o
 .comment       0x000000000000002a       0x2b binaries/rflseek.o
 .comment       0x000000000000002a       0x2b binaries/rflwrite.o
 .comment       0x000000000000002a       0x2b binaries/rfscomm.o
 .comment       0x000000000000002a       0x2b binaries/rfscontrol.o
 .comment       0x000000000000002a       0x2b binaries/rfsgetmode.o
 .comment       0x000000000000002a       0x2b binaries/rfsinit.o
 .comment       0x000000000000002a       0x2b binaries/rfsndmsg.o
 .comment       0x000000000000002a       0x2b binaries/rfsopen.o
 .comment       0x000000000000002a       0x2b binaries/arp.o
 .comment       0x000000000000002a       0x2b binaries/dhcp.o
 .comment       0x000000000000002a       0x2b binaries/dot2ip.o
 .comment       0x000000000000002a       0x2b binaries/hexdump.o
 .comment       0x000000000000002a       0x2b binaries/icmp.o
 .comment       0x000000000000002a       0x2b binaries/ip.o
 .comment       0x000000000000002a       0x2b binaries/net.o
 .comment       0x000000000000002a       0x2b binaries/netstart.o
 .comment       0x000000000000002a       0x2b binaries/pdump.o
 .comment       0x000000000000002a       0x2b binaries/tftp.o
 .comment       0x000000000000002a       0x2b binaries/udp.o
 .comment       0x000000000000002a       0x2b binaries/addargs.o
 .comment       0x000000000000002a       0x2b binaries/lexan.o
 .comment       0x000000000000002a       0x2b binaries/shell.o
 .comment       0x000000000000002a       0x2b binaries/xsh_argecho.o
 .comment       0x000000000000002a       0x2b binaries/xsh_arp.o
 .comment       0x000000000000002a       0x2b binaries/xsh_cat.o
 .comment       0x000000000000002a       0x2b binaries/xsh_clear.o
 .comment       0x000000000000002a       0x2b binaries/xsh_date.o
 .comment       0x000000000000002a       0x2b binaries/xsh_devdump.o
 .comment       0x000000000000002a       0x2b binaries/xsh_echo.o
 .comment       0x000000000000002a       0x2b binaries/xsh_exit.o
 .comment       0x000000000000002a       0x2b binaries/xsh_help.o
 .comment       0x000000000000002a       0x2b binaries/xsh_ipaddr.o
 .comment       0x000000000000002a       0x2b binaries/xsh_kill.o
 .comment       0x000000000000002a       0x2b binaries/xsh_memdump.o
 .comment       0x000000000000002a       0x2b binaries/xsh_memstat.o
 .comment       0x000000000000002a       0x2b binaries/xsh_ping.o
 .comment       0x000000000000002a       0x2b binaries/xsh_ps.o
 .comment       0x000000000000002a       0x2b binaries/xsh_sleep.o
 .comment       0x000000000000002a       0x2b binaries/xsh_udpdump.o
 .comment       0x000000000000002a       0x2b binaries/xsh_udpecho.o
 .comment       0x000000000000002a       0x2b binaries/xsh_udpeserver.o
 .comment       0x000000000000002a       0x2b binaries/xsh_uptime.o
 .comment       0x000000000000002a       0x2b binaries/host2netlc.o

.note.GNU-stack
                0x0000000000000000        0x0
 .note.GNU-stack
                0x0000000000000000        0x0 binaries/app1.o
 .note.GNU-stack
                0x0000000000000000        0x0 binaries/app2.o
 .note.GNU-stack
                0x0000000000000000        0x0 binaries/app3.o
 .note.GNU-stack
                0x0000000000000000        0x0 binaries/app_lim.o
 .note.GNU-stack
                0x0000000000000000        0x0 binaries/app_unlim.o
 .note.GNU-stack
                0x0000000000000000        0x0 binaries/ascdate.o
 .note.GNU-stack
                0x0000000000000000        0x0 binaries/bufinit.o
 .note.GNU-stack
                0x0000000000000000        0x0 binaries/chprio.o
 .note.GNU-stack
                0x0000000000000000        0x0 binaries/clkhandler.o
 .note.GNU-stack
                0x0000000000000000        0x0 binaries/clkinit.o
 .note.GNU-stack
                0x0000000000000000        0x0 binaries/close.o
 .note.GNU-stack
                0x0000000000000000        0x0 binaries/conf.o
 .note.GNU-stack
                0x0000000000000000        0x0 binaries/control.o
 .note.GNU-stack
                0x0000000000000000        0x0 binaries/cpubound.o
 .note.GNU-stack
                0x0000000000000000        0x0 binaries/create.o
 .note.GNU-stack
                0x0000000000000000        0x0 binaries/early_imr.o
 .note.GNU-stack
                0x0000000000000000        0x0 binaries/evec.o
 .note.GNU-stack
                0x0000000000000000        0x0 binaries/f1.o
 .note.GNU-stack
                0x0000000000000000        0x0 binaries/freebuf.o
 .note.GNU-stack
                0x0000000000000000        0x0 binaries/freemem.o
 .note.GNU-stack
                0x0000000000000000        0x0 binaries/getbuf.o
 .note.GNU-stack
                0x0000000000000000        0x0 binaries/getc.o
 .note.GNU-stack
                0x0000000000000000        0x0 binaries/getdev.o
 .note.GNU-stack
                0x0000000000000000        0x0 binaries/getitem.o
 .note.GNU-stack
                0x0000000000000000        0x0 binaries/getmem.o
 .note.GNU-stack
                0x0000000000000000        0x0 binaries/getpid.o
 .note.GNU-stack
                0x0000000000000000        0x0 binaries/getppid.o
 .note.GNU-stack
                0x0000000000000000        0x0 binaries/getprio.o
 .note.GNU-stack
                0x0000000000000000        0x0 binaries/getstk.o
 .note.GNU-stack
                0x0000000000000000        0x0 binaries/gettime.o
 .note.GNU-stack
                0x0000000000000000        0x0 binaries/getutime.o
 .note.GNU-stack
                0x0000000000000000        0x0 binaries/host2netlb.o
 .note.GNU-stack
                0x0000000000000000        0x0 binaries/init.o
 .note.GNU-stack
                0x0000000000000000        0x0 binaries/initialize.o
 .note.GNU-stack
                0x0000000000000000        0x0 binaries/insert.o
 .note.GNU-stack
                0x0000000000000000        0x0 binaries/insertd.o
 .note.GNU-stack
                0x0000000000000000        0x0 binaries/iobound.o
 .note.GNU-stack
                0x0000000000000000        0x0 binaries/ioerr.o
 .note.GNU-stack
                0x0000000000000000        0x0 binaries/ionull.o
 .note.GNU-stack
                0x0000000000000000        0x0 binaries/kill.o
 .note.GNU-stack
                0x0000000000000000        0x0 binaries/kprintf.o
 .note.GNU-stack
                0x0000000000000000        0x0 binaries/lab2q3.o
 .note.GNU-stack
                0x0000000000000000        0x0 binaries/lab2q4.o
 .note.GNU-stack
                0x0000000000000000        0x0 binaries/lab2q5.o
 .note.GNU-stack
                0x0000000000000000        0x0 binaries/main.o
 .note.GNU-stack
                0x0000000000000000        0x0 binaries/mark.o
 .note.GNU-stack
                0x0000000000000000        0x0 binaries/meminit.o
 .note.GNU-stack
                0x0000000000000000        0x0 binaries/mkbufpool.o
 .note.GNU-stack
                0x0000000000000000        0x0 binaries/myappA.o
 .note.GNU-stack
                0x0000000000000000        0x0 binaries/myfuncA.o
 .note.GNU-stack
                0x0000000000000000        0x0 binaries/myhacker.o
 .note.GNU-stack
                0x0000000000000000        0x0 binaries/myvictim.o
 .note.GNU-stack
                0x0000000000000000        0x0 binaries/mywelcomemsg.o
 .note.GNU-stack
                0x0000000000000000        0x0 binaries/newqueue.o
 .note.GNU-stack
                0x0000000000000000        0x0 binaries/open.o
 .note.GNU-stack
                0x0000000000000000        0x0 binaries/panic.o
 .note.GNU-stack
                0x0000000000000000        0x0 binaries/pci.o
 .note.GNU-stack
                0x0000000000000000        0x0 binaries/platinit.o
 .note.GNU-stack
                0x0000000000000000        0x0 binaries/printprstate.o
 .note.GNU-stack
                0x0000000000000000        0x0 binaries/prntsegaddr.o
 .note.GNU-stack
                0x0000000000000000        0x0 binaries/ptclear.o
 .note.GNU-stack
                0x0000000000000000        0x0 binaries/ptcount.o
 .note.GNU-stack
                0x0000000000000000        0x0 binaries/ptcreate.o
 .note.GNU-stack
                0x0000000000000000        0x0 binaries/ptdelete.o
 .note.GNU-stack
                0x0000000000000000        0x0 binaries/ptinit.o
 .note.GNU-stack
                0x0000000000000000        0x0 binaries/ptrecv.o
 .note.GNU-stack
                0x0000000000000000        0x0 binaries/ptreset.o
 .note.GNU-stack
                0x0000000000000000        0x0 binaries/ptsend.o
 .note.GNU-stack
                0x0000000000000000        0x0 binaries/putc.o
 .note.GNU-stack
                0x0000000000000000        0x0 binaries/quark_irq.o
 .note.GNU-stack
                0x0000000000000000        0x0 binaries/quark_pdat.o
 .note.GNU-stack
                0x0000000000000000        0x0 binaries/queue.o
 .note.GNU-stack
                0x0000000000000000        0x0 binaries/read.o
 .note.GNU-stack
                0x0000000000000000        0x0 binaries/ready.o
 .note.GNU-stack
                0x0000000000000000        0x0 binaries/receive.o
 .note.GNU-stack
                0x0000000000000000        0x0 binaries/recvclr.o
 .note.GNU-stack
                0x0000000000000000        0x0 binaries/recvtime.o
 .note.GNU-stack
                0x0000000000000000        0x0 binaries/resched.o
 .note.GNU-stack
                0x0000000000000000        0x0 binaries/resume.o
 .note.GNU-stack
                0x0000000000000000        0x0 binaries/seek.o
 .note.GNU-stack
                0x0000000000000000        0x0 binaries/semcount.o
 .note.GNU-stack
                0x0000000000000000        0x0 binaries/semcreate.o
 .note.GNU-stack
                0x0000000000000000        0x0 binaries/semdelete.o
 .note.GNU-stack
                0x0000000000000000        0x0 binaries/semreset.o
 .note.GNU-stack
                0x0000000000000000        0x0 binaries/send.o
 .note.GNU-stack
                0x0000000000000000        0x0 binaries/signal.o
 .note.GNU-stack
                0x0000000000000000        0x0 binaries/signaln.o
 .note.GNU-stack
                0x0000000000000000        0x0 binaries/sleep.o
 .note.GNU-stack
                0x0000000000000000        0x0 binaries/stackdepth.o
 .note.GNU-stack
                0x0000000000000000        0x0 binaries/stacktrace.o
 .note.GNU-stack
                0x0000000000000000        0x0 binaries/suspend.o
 .note.GNU-stack
                0x0000000000000000        0x0 binaries/unsleep.o
 .note.GNU-stack
                0x0000000000000000        0x0 binaries/userret.o
 .note.GNU-stack
                0x0000000000000000        0x0 binaries/wait.o
 .note.GNU-stack
                0x0000000000000000        0x0 binaries/wakeup.o
 .note.GNU-stack
                0x0000000000000000        0x0 binaries/write.o
 .note.GNU-stack
                0x0000000000000000        0x0 binaries/xdone.o
 .note.GNU-stack
                0x0000000000000000        0x0 binaries/yield.o
 .note.GNU-stack
                0x0000000000000000        0x0 binaries/abs.o
 .note.GNU-stack
                0x0000000000000000        0x0 binaries/atoi.o
 .note.GNU-stack
                0x0000000000000000        0x0 binaries/atol.o
 .note.GNU-stack
                0x0000000000000000        0x0 binaries/bzero.o
 .note.GNU-stack
                0x0000000000000000        0x0 binaries/ctype_.o
 .note.GNU-stack
                0x0000000000000000        0x0 binaries/doprnt.o
 .note.GNU-stack
                0x0000000000000000        0x0 binaries/doscan.o
 .note.GNU-stack
                0x0000000000000000        0x0 binaries/fdoprnt.o
 .note.GNU-stack
                0x0000000000000000        0x0 binaries/fgetc.o
 .note.GNU-stack
                0x0000000000000000        0x0 binaries/fgets.o
 .note.GNU-stack
                0x0000000000000000        0x0 binaries/fprintf.o
 .note.GNU-stack
                0x0000000000000000        0x0 binaries/fputc.o
 .note.GNU-stack
                0x0000000000000000        0x0 binaries/fputs.o
 .note.GNU-stack
                0x0000000000000000        0x0 binaries/fscanf.o
 .note.GNU-stack
                0x0000000000000000        0x0 binaries/getchar.o
 .note.GNU-stack
                0x0000000000000000        0x0 binaries/labs.o
 .note.GNU-stack
                0x0000000000000000        0x0 binaries/memchr.o
 .note.GNU-stack
                0x0000000000000000        0x0 binaries/memcmp.o
 .note.GNU-stack
                0x0000000000000000        0x0 binaries/memcpy.o
 .note.GNU-stack
                0x0000000000000000        0x0 binaries/memset.o
 .note.GNU-stack
                0x0000000000000000        0x0 binaries/printf.o
 .note.GNU-stack
                0x0000000000000000        0x0 binaries/putchar.o
 .note.GNU-stack
                0x0000000000000000        0x0 binaries/qsort.o
 .note.GNU-stack
                0x0000000000000000        0x0 binaries/rand.o
 .note.GNU-stack
                0x0000000000000000        0x0 binaries/sprintf.o
 .note.GNU-stack
                0x0000000000000000        0x0 binaries/sscanf.o
 .note.GNU-stack
                0x0000000000000000        0x0 binaries/strchr.o
 .note.GNU-stack
                0x0000000000000000        0x0 binaries/strcmp.o
 .note.GNU-stack
                0x0000000000000000        0x0 binaries/strcpy.o
 .note.GNU-stack
                0x0000000000000000        0x0 binaries/strlen.o
 .note.GNU-stack
                0x0000000000000000        0x0 binaries/strncat.o
 .note.GNU-stack
                0x0000000000000000        0x0 binaries/strncmp.o
 .note.GNU-stack
                0x0000000000000000        0x0 binaries/strncpy.o
 .note.GNU-stack
                0x0000000000000000        0x0 binaries/strnlen.o
 .note.GNU-stack
                0x0000000000000000        0x0 binaries/strrchr.o
 .note.GNU-stack
                0x0000000000000000        0x0 binaries/strstr.o
 .note.GNU-stack
                0x0000000000000000        0x0 binaries/ttycontrol.o
 .note.GNU-stack
                0x0000000000000000        0x0 binaries/ttygetc.o
 .note.GNU-stack
                0x0000000000000000        0x0 binaries/ttyhandle_in.o
 .note.GNU-stack
                0x0000000000000000        0x0 binaries/ttyhandle_out.o
 .note.GNU-stack
                0x0000000000000000        0x0 binaries/ttyhandler.o
 .note.GNU-stack
                0x0000000000000000        0x0 binaries/ttyinit.o
 .note.GNU-stack
                0x0000000000000000        0x0 binaries/ttykickout.o
 .note.GNU-stack
                0x0000000000000000        0x0 binaries/ttyputc.o
 .note.GNU-stack
                0x0000000000000000        0x0 binaries/ttyread.o
 .note.GNU-stack
                0x0000000000000000        0x0 binaries/ttywrite.o
 .note.GNU-stack
                0x0000000000000000        0x0 binaries/mount.o
 .note.GNU-stack
                0x0000000000000000        0x0 binaries/naminit.o
 .note.GNU-stack
                0x0000000000000000        0x0 binaries/nammap.o
 .note.GNU-stack
                0x0000000000000000        0x0 binaries/namopen.o
 .note.GNU-stack
                0x0000000000000000        0x0 binaries/colon2mac.o
 .note.GNU-stack
                0x0000000000000000        0x0 binaries/ethcontrol.o
 .note.GNU-stack
                0x0000000000000000        0x0 binaries/ethhandler.o
 .note.GNU-stack
                0x0000000000000000        0x0 binaries/ethinit.o
 .note.GNU-stack
                0x0000000000000000        0x0 binaries/ethmcast.o
 .note.GNU-stack
                0x0000000000000000        0x0 binaries/ethread.o
 .note.GNU-stack
                0x0000000000000000        0x0 binaries/ethwrite.o
 .note.GNU-stack
                0x0000000000000000        0x0 binaries/rdsbufalloc.o
 .note.GNU-stack
                0x0000000000000000        0x0 binaries/rdsclose.o
 .note.GNU-stack
                0x0000000000000000        0x0 binaries/rdscomm.o
 .note.GNU-stack
                0x0000000000000000        0x0 binaries/rdscontrol.o
 .note.GNU-stack
                0x0000000000000000        0x0 binaries/rdsinit.o
 .note.GNU-stack
                0x0000000000000000        0x0 binaries/rdsopen.o
 .note.GNU-stack
                0x0000000000000000        0x0 binaries/rdsprocess.o
 .note.GNU-stack
                0x0000000000000000        0x0 binaries/rdsread.o
 .note.GNU-stack
                0x0000000000000000        0x0 binaries/rdswrite.o
 .note.GNU-stack
                0x0000000000000000        0x0 binaries/ramclose.o
 .note.GNU-stack
                0x0000000000000000        0x0 binaries/raminit.o
 .note.GNU-stack
                0x0000000000000000        0x0 binaries/ramopen.o
 .note.GNU-stack
                0x0000000000000000        0x0 binaries/ramread.o
 .note.GNU-stack
                0x0000000000000000        0x0 binaries/ramwrite.o
 .note.GNU-stack
                0x0000000000000000        0x0 binaries/lfdballoc.o
 .note.GNU-stack
                0x0000000000000000        0x0 binaries/lfdbfree.o
 .note.GNU-stack
                0x0000000000000000        0x0 binaries/lfflush.o
 .note.GNU-stack
                0x0000000000000000        0x0 binaries/lfgetmode.o
 .note.GNU-stack
                0x0000000000000000        0x0 binaries/lfiballoc.o
 .note.GNU-stack
                0x0000000000000000        0x0 binaries/lfibclear.o
 .note.GNU-stack
                0x0000000000000000        0x0 binaries/lfibget.o
 .note.GNU-stack
                0x0000000000000000        0x0 binaries/lfibput.o
 .note.GNU-stack
                0x0000000000000000        0x0 binaries/lflclose.o
 .note.GNU-stack
                0x0000000000000000        0x0 binaries/lflcontrol.o
 .note.GNU-stack
                0x0000000000000000        0x0 binaries/lflgetc.o
 .note.GNU-stack
                0x0000000000000000        0x0 binaries/lflinit.o
 .note.GNU-stack
                0x0000000000000000        0x0 binaries/lflputc.o
 .note.GNU-stack
                0x0000000000000000        0x0 binaries/lflread.o
 .note.GNU-stack
                0x0000000000000000        0x0 binaries/lflseek.o
 .note.GNU-stack
                0x0000000000000000        0x0 binaries/lflwrite.o
 .note.GNU-stack
                0x0000000000000000        0x0 binaries/lfsckfmt.o
 .note.GNU-stack
                0x0000000000000000        0x0 binaries/lfscreate.o
 .note.GNU-stack
                0x0000000000000000        0x0 binaries/lfsetup.o
 .note.GNU-stack
                0x0000000000000000        0x0 binaries/lfsinit.o
 .note.GNU-stack
                0x0000000000000000        0x0 binaries/lfsopen.o
 .note.GNU-stack
                0x0000000000000000        0x0 binaries/lftruncate.o
 .note.GNU-stack
                0x0000000000000000        0x0 binaries/rflclose.o
 .note.GNU-stack
                0x0000000000000000        0x0 binaries/rflgetc.o
 .note.GNU-stack
                0x0000000000000000        0x0 binaries/rflinit.o
 .note.GNU-stack
                0x0000000000000000        0x0 binaries/rflputc.o
 .note.GNU-stack
                0x0000000000000000        0x0 binaries/rflread.o
 .note.GNU-stack
                0x0000000000000000        0x0 binaries/rflseek.o
 .note.GNU-stack
                0x0000000000000000        0x0 binaries/rflwrite.o
 .note.GNU-stack
                0x0000000000000000        0x0 binaries/rfscomm.o
 .note.GNU-stack
                0x0000000000000000        0x0 binaries/rfscontrol.o
 .note.GNU-stack
                0x0000000000000000        0x0 binaries/rfsgetmode.o
 .note.GNU-stack
                0x0000000000000000        0x0 binaries/rfsinit.o
 .note.GNU-stack
                0x0000000000000000        0x0 binaries/rfsndmsg.o
 .note.GNU-stack
                0x0000000000000000        0x0 binaries/rfsopen.o
 .note.GNU-stack
                0x0000000000000000        0x0 binaries/arp.o
 .note.GNU-stack
                0x0000000000000000        0x0 binaries/dhcp.o
 .note.GNU-stack
                0x0000000000000000        0x0 binaries/dot2ip.o
 .note.GNU-stack
                0x0000000000000000        0x0 binaries/hexdump.o
 .note.GNU-stack
                0x0000000000000000        0x0 binaries/icmp.o
 .note.GNU-stack
                0x0000000000000000        0x0 binaries/ip.o
 .note.GNU-stack
                0x0000000000000000        0x0 binaries/net.o
 .note.GNU-stack
                0x0000000000000000        0x0 binaries/netstart.o
 .note.GNU-stack
                0x0000000000000000        0x0 binaries/pdump.o
 .note.GNU-stack
                0x0000000000000000        0x0 binaries/tftp.o
 .note.GNU-stack
                0x0000000000000000        0x0 binaries/udp.o
 .note.GNU-stack
                0x0000000000000000        0x0 binaries/addargs.o
 .note.GNU-stack
                0x0000000000000000        0x0 binaries/lexan.o
 .note.GNU-stack
                0x0000000000000000        0x0 binaries/shell.o
 .note.GNU-stack
                0x0000000000000000        0x0 binaries/xsh_argecho.o
 .note.GNU-stack
                0x0000000000000000        0x0 binaries/xsh_arp.o
 .note.GNU-stack
                0x0000000000000000        0x0 binaries/xsh_cat.o
 .note.GNU-stack
                0x0000000000000000        0x0 binaries/xsh_clear.o
 .note.GNU-stack
                0x0000000000000000        0x0 binaries/xsh_date.o
 .note.GNU-stack
                0x0000000000000000        0x0 binaries/xsh_devdump.o
 .note.GNU-stack
                0x0000000000000000        0x0 binaries/xsh_echo.o
 .note.GNU-stack
                0x0000000000000000        0x0 binaries/xsh_exit.o
 .note.GNU-stack
                0x0000000000000000        0x0 binaries/xsh_help.o
 .note.GNU-stack
                0x0000000000000000        0x0 binaries/xsh_ipaddr.o
 .note.GNU-stack
                0x0000000000000000        0x0 binaries/xsh_kill.o
 .note.GNU-stack
                0x0000000000000000        0x0 binaries/xsh_memdump.o
 .note.GNU-stack
                0x0000000000000000        0x0 binaries/xsh_memstat.o
 .note.GNU-stack
                0x0000000000000000        0x0 binaries/xsh_ping.o
 .note.GNU-stack
                0x0000000000000000        0x0 binaries/xsh_ps.o
 .note.GNU-stack
                0x0000000000000000        0x0 binaries/xsh_sleep.o
 .note.GNU-stack
                0x0000000000000000        0x0 binaries/xsh_udpdump.o
 .note.GNU-stack
                0x0000000000000000        0x0 binaries/xsh_udpecho.o
 .note.GNU-stack
                0x0000000000000000        0x0 binaries/xsh_udpeserver.o
 .note.GNU-stack
                0x0000000000000000        0x0 binaries/xsh_uptime.o
 .note.GNU-stack
                0x0000000000000000        0x0 binaries/host2netlc.o
