
Allocating common symbols
Common symbol       size              file

netbufpool          0x4               binaries/net.o
readylist           0x2               binaries/ready.o
rfltab              0x5a0             binaries/rflinit.o
sleepq              0x2               binaries/clkinit.o
sem                 0x4               binaries/main.o
nnames              0x4               binaries/naminit.o
udptab              0x168             binaries/udp.o
receiverq           0x13ec0           binaries/receiverq.o
minheap             0x4               binaries/meminit.o
marks               0x50              binaries/mark.o
currpid             0x4               binaries/initialize.o
Lf_data             0x20c             binaries/lfsinit.o
porttab             0x2d0             binaries/ptinit.o
girmask             0x2               binaries/evec.o
ttytab              0x10c             binaries/ttyinit.o
proctab             0x23f0            binaries/initialize.o
prcount             0x4               binaries/initialize.o
lfltab              0xf00             binaries/lflinit.o
rdstab              0x8c              binaries/rdsinit.o
ethertab            0x138             binaries/ethinit.o
NetData             0xa8              binaries/net.o
nmarks              0x4               binaries/mark.o
Defer               0x8               binaries/resched.o
semtab              0x4b0             binaries/initialize.o
multilevelfbqueue   0xa0              binaries/multilevelfbq.o
maxheap             0x4               binaries/meminit.o
preempt             0x4               binaries/clkinit.o
buftab              0xf0              binaries/bufinit.o
Rf_data             0x18              binaries/rfsinit.o
mkmutex             0x4               binaries/mark.o
alrm_queuetab       0x980             binaries/alrm_queue.o
clktimemsec         0x4               binaries/clkinit.o
clktime             0x4               binaries/clkinit.o
alrmq               0x2               binaries/clkinit.o
arpcache            0x140             binaries/arp.o
icmptab             0x230             binaries/icmp.o
nbpools             0x4               binaries/bufinit.o
receiverqueue       0x13880           binaries/multilevelfbq.o
queuetab            0x980             binaries/queue.o
timescliceconsumed  0x4               binaries/resched.o
ptnextid            0x4               binaries/ptinit.o
Ram                 0x19000           binaries/raminit.o
ipoqueue            0x2c              binaries/ip.o
memlist             0x8               binaries/initialize.o
nametab             0x19a0            binaries/naminit.o
ptfree              0x4               binaries/ptinit.o

Memory Configuration

Name             Origin             Length             Attributes
*default*        0x0000000000000000 0xffffffffffffffff

Linker script and memory map

                0x0000000000100000                physbase = 0x100000
                0x0000000000100000                . = physbase
                0x0000000000100000                . = ALIGN (0x1000)

.text           0x0000000000100000    0x17000
                0x0000000000100000                text = ABSOLUTE (.)
 *(.text .text.*)
 .text          0x0000000000100000      0x1ac binaries/start.o
                0x0000000000100028                start
                0x00000000001000fa                inb
                0x0000000000100102                inw
                0x000000000010010b                inl
                0x0000000000100113                outb
                0x000000000010011d                outw
                0x0000000000100128                outl
                0x0000000000100132                _rtcin
                0x000000000010013d                ___udivsi3
                0x0000000000100148                ___divsi3
                0x0000000000100154                sbzero
                0x0000000000100164                bcopy
                0x0000000000100178                insw
                0x000000000010018e                outsw
                0x00000000001001a4                lidt
 .text          0x00000000001001ac       0x71 binaries/alarmms.o
                0x00000000001001ac                alarmms
 .text          0x000000000010021d       0x82 binaries/alrm_getitem.o
                0x000000000010021d                alrm_getitem
                0x000000000010024c                alrm_getfirst
                0x0000000000100273                alrm_getlast
 .text          0x000000000010029f       0xef binaries/alrm_insertd.o
                0x000000000010029f                alrm_insertd
 .text          0x000000000010038e      0x115 binaries/alrm_queue.o
                0x000000000010038e                alrm_enqueue
                0x00000000001003f5                alrm_dequeue
                0x0000000000100440                alrm_newqueue
 .text          0x00000000001004a3       0xad binaries/alrm_wakeup.o
                0x00000000001004a3                alrm_wakeup
 .text          0x0000000000100550       0x28 binaries/app1.o
                0x0000000000100550                app1
 .text          0x0000000000100578       0x63 binaries/app2.o
                0x0000000000100578                app2
 .text          0x00000000001005db       0x80 binaries/app3.o
                0x00000000001005db                app3
 .text          0x000000000010065b       0x36 binaries/app_lim.o
                0x000000000010065b                app_lim
                0x0000000000100670                app_sleep
 .text          0x0000000000100691       0x1b binaries/app_unlim.o
                0x0000000000100691                app_unlim
 .text          0x00000000001006ac      0x2b9 binaries/ascdate.o
                0x00000000001006ac                ascdate
 .text          0x0000000000100965       0x14 binaries/bufinit.o
                0x0000000000100965                bufinit
 .text          0x0000000000100979       0x70 binaries/chprio.o
                0x0000000000100979                chprio
 .text          0x00000000001009e9      0x11d binaries/clkhandler.o
                0x00000000001009e9                clkhandler
 .text          0x0000000000100b06       0x72 binaries/clkinit.o
                0x0000000000100b06                clkinit
 .text          0x0000000000100b78       0x56 binaries/close.o
                0x0000000000100b78                close
 .text          0x0000000000100bce        0x0 binaries/conf.o
 .text          0x0000000000100bce       0x5c binaries/control.o
                0x0000000000100bce                control
 .text          0x0000000000100c2a       0x96 binaries/cpubound.o
                0x0000000000100c2a                cpubound
 .text          0x0000000000100cc0      0x257 binaries/create.o
                0x0000000000100cc0                create
 .text          0x0000000000100f17      0x20e binaries/early_imr.o
                0x0000000000100f17                intel_cln_early_sb_read_reg
                0x0000000000100f6e                intel_cln_early_sb_write_reg
                0x0000000000101028                remove_irm_protections
 .text          0x0000000000101125      0x2ec binaries/evec.o
                0x0000000000101125                setirmask
                0x000000000010115d                set_evec
                0x00000000001011b8                initevec
                0x000000000010128a                trap
 .text          0x0000000000101411       0xf7 binaries/f1.o
                0x0000000000101411                f4
                0x000000000010144b                f3
                0x000000000010148a                f2
                0x00000000001014c9                f1
 .text          0x0000000000101508       0x7f binaries/freebuf.o
                0x0000000000101508                freebuf
 .text          0x0000000000101587      0x108 binaries/freemem.o
                0x0000000000101587                freemem
 .text          0x000000000010168f       0x6e binaries/getbuf.o
                0x000000000010168f                getbuf
 .text          0x00000000001016fd       0x56 binaries/getc.o
                0x00000000001016fd                getc
 .text          0x0000000000101753       0x69 binaries/getdev.o
                0x0000000000101753                getdev
 .text          0x00000000001017bc       0x82 binaries/getitem.o
                0x00000000001017bc                getitem
                0x00000000001017eb                getfirst
                0x0000000000101812                getlast
 .text          0x000000000010183e       0xc2 binaries/getmem.o
                0x000000000010183e                getmem
 .text          0x0000000000101900        0xa binaries/getpid.o
                0x0000000000101900                getpid
 .text          0x000000000010190a       0x1a binaries/getppid.o
                0x000000000010190a                getppid
 .text          0x0000000000101924       0x5e binaries/getprio.o
                0x0000000000101924                getprio
 .text          0x0000000000101982       0xac binaries/getstk.o
                0x0000000000101982                getstk
 .text          0x0000000000101a2e       0x32 binaries/gettime.o
                0x0000000000101a2e                gettime
 .text          0x0000000000101a60      0x194 binaries/getutime.o
                0x0000000000101a60                getutime
 .text          0x0000000000101bf4       0x13 binaries/host2netlb.o
                0x0000000000101bf4                host2netlb
 .text          0x0000000000101c07       0x56 binaries/init.o
                0x0000000000101c07                init
 .text          0x0000000000101c5d      0x28c binaries/initialize.o
                0x0000000000101c5d                nulluser
                0x0000000000101e9f                stop
                0x0000000000101ec3                delay
 .text          0x0000000000101ee9       0xdf binaries/insert.o
                0x0000000000101ee9                insert
 .text          0x0000000000101fc8       0xef binaries/insertd.o
                0x0000000000101fc8                insertd
 .text          0x00000000001020b7       0x93 binaries/iobound.o
                0x00000000001020b7                iobound
 .text          0x000000000010214a        0xa binaries/ioerr.o
                0x000000000010214a                ioerr
 .text          0x0000000000102154        0xa binaries/ionull.o
                0x0000000000102154                ionull
 .text          0x000000000010215e      0x176 binaries/kill.o
                0x000000000010215e                kill
 .text          0x00000000001022d4       0xa9 binaries/kprintf.o
                0x00000000001022d4                kputc
                0x0000000000102306                console_init
                0x0000000000102339                kgetc
                0x000000000010235f                kprintf
 .text          0x000000000010237d      0x16d binaries/lab2q3.o
                0x000000000010237d                lab2q3t1
 .text          0x00000000001024ea       0xf5 binaries/lab2q4.o
                0x00000000001024ea                lab2q4t1
                0x000000000010252f                lab2q4t2
                0x0000000000102570                lab2q4t3
 .text          0x00000000001025df       0x65 binaries/lab2q5.o
                0x00000000001025df                lab2q5t1
 .text          0x0000000000102644       0xe9 binaries/lab3q3.o
                0x0000000000102644                lab3q3t1
                0x0000000000102686                lab3q3t2
                0x00000000001026c4                lab3q3t3
 .text          0x000000000010272d      0x2e5 binaries/lab3q4.o
                0x000000000010272d                lab3q4t1
                0x00000000001027ff                lab3q4t2
                0x00000000001028dd                lab3q4t3
                0x00000000001029b5                lab3q4t4
 .text          0x0000000000102a12      0x699 binaries/main.o
                0x0000000000102a12                bsmsghandler
                0x0000000000102a38                bsxcpuhandler
                0x0000000000102a6b                bsalarmhandler
                0x0000000000102a8e                bssendproc
                0x0000000000102b05                bsrecvproc
                0x0000000000102b4e                bsrecvproc2
                0x0000000000102b9b                bsxcpuproc
                0x0000000000102c72                bsalarmproc
                0x0000000000102d47                bslab4q2
                0x0000000000102e2e                bslab4q3t1
                0x0000000000102f15                bslab4q3t2
                0x0000000000102fc2                bslab4q3t3
                0x0000000000103078                main
 .text          0x00000000001030ab       0x99 binaries/mark.o
                0x00000000001030ab                markinit
                0x00000000001030cc                mark
 .text          0x0000000000103144      0x1ff binaries/meminit.o
                0x0000000000103144                meminit
                0x00000000001032d3                setsegs
 .text          0x0000000000103343      0x122 binaries/mkbufpool.o
                0x0000000000103343                mkbufpool
 .text          0x0000000000103465      0x135 binaries/mltfbq_insert.o
                0x0000000000103465                mltfbq_insert
 .text          0x000000000010359a       0xfa binaries/multilevelfbq.o
                0x000000000010359a                initialize_mltfbq
                0x00000000001035da                mltfbq_dequeue
 .text          0x0000000000103694       0xa8 binaries/myappA.o
                0x0000000000103694                myappA
 .text          0x000000000010373c       0x77 binaries/myfuncA.o
                0x000000000010373c                myfuncA
 .text          0x00000000001037b3       0x78 binaries/myhacker.o
                0x00000000001037b3                myhackermalware
                0x00000000001037e4                myhacker
 .text          0x000000000010382b       0x7b binaries/myvictim.o
                0x000000000010382b                myvictim2
                0x0000000000103853                myvictim1
                0x000000000010385e                myvictim
 .text          0x00000000001038a6       0x15 binaries/mywelcomemsg.o
                0x00000000001038a6                mywelcomemsg
 .text          0x00000000001038bb       0xa0 binaries/newqueue.o
                0x00000000001038bb                newqueue
 .text          0x000000000010395b       0x5c binaries/open.o
                0x000000000010395b                open
 .text          0x00000000001039b7       0x20 binaries/panic.o
                0x00000000001039b7                panic
 .text          0x00000000001039d7      0x282 binaries/pci.o
                0x00000000001039d7                pci_init
                0x00000000001039e1                find_pci_device
                0x0000000000103aa0                pci_read_config_byte
                0x0000000000103ade                pci_read_config_word
                0x0000000000103b1e                pci_read_config_dword
                0x0000000000103b5c                pci_write_config_byte
                0x0000000000103b98                pci_write_config_word
                0x0000000000103bd5                pci_write_config_dword
                0x0000000000103c11                pci_get_dev_mmio_base_addr
 .text          0x0000000000103c59       0x50 binaries/platinit.o
                0x0000000000103c59                platinit
 .text          0x0000000000103ca9      0x115 binaries/printprstate.o
                0x0000000000103ca9                prtprstate
 .text          0x0000000000103dbe      0x122 binaries/prntsegaddr.o
                0x0000000000103dbe                prntsegaddr
 .text          0x0000000000103ee0       0xa9 binaries/ptclear.o
                0x0000000000103ee0                _ptclear
 .text          0x0000000000103f89       0x85 binaries/ptcount.o
                0x0000000000103f89                ptcount
 .text          0x000000000010400e       0xfe binaries/ptcreate.o
                0x000000000010400e                ptcreate
 .text          0x000000000010410c       0x63 binaries/ptdelete.o
                0x000000000010410c                ptdelete
 .text          0x000000000010416f       0x91 binaries/ptinit.o
                0x000000000010416f                ptinit
 .text          0x0000000000104200       0xf5 binaries/ptrecv.o
                0x0000000000104200                ptrecv
 .text          0x00000000001042f5       0x66 binaries/ptreset.o
                0x00000000001042f5                ptreset
 .text          0x000000000010435b      0x115 binaries/ptsend.o
                0x000000000010435b                ptsend
 .text          0x0000000000104470       0x64 binaries/putc.o
                0x0000000000104470                putc
 .text          0x00000000001044d4       0xb3 binaries/quark_irq.o
                0x00000000001044d4                quark_irq_routing
 .text          0x0000000000104587      0x19a binaries/quark_pdat.o
                0x0000000000104587                get_quark_pdat_entry_data_by_id
                0x0000000000104651                get_quark_pdat_entry_data_by_desc
 .text          0x0000000000104721       0xb2 binaries/queue.o
                0x0000000000104721                enqueue
                0x0000000000104788                dequeue
 .text          0x00000000001047d3       0x5c binaries/read.o
                0x00000000001047d3                read
 .text          0x000000000010482f       0x6b binaries/ready.o
                0x000000000010482f                ready
 .text          0x000000000010489a      0x164 binaries/receive.o
                0x000000000010489a                receive
 .text          0x00000000001049fe       0x28 binaries/receiveex.o
                0x00000000001049fe                receiveex
 .text          0x0000000000104a26      0x100 binaries/receiverq.o
                0x0000000000104a26                init_recieverq
                0x0000000000104a55                receiverq_dequeue
                0x0000000000104ace                receiverq_enqueue
 .text          0x0000000000104b26      0x1b3 binaries/recv_func.o
                0x0000000000104b26                recv_func
                0x0000000000104b67                recv_func_null
                0x0000000000104ba5                recv_func2
                0x0000000000104bea                recv_func2_null
                0x0000000000104c2c                recv_func3
                0x0000000000104c78                recv_func4
 .text          0x0000000000104cd9       0x5a binaries/recvclr.o
                0x0000000000104cd9                recvclr
 .text          0x0000000000104d33       0x29 binaries/recvhandler.o
                0x0000000000104d33                recvhandler
 .text          0x0000000000104d5c       0xc1 binaries/recvtime.o
                0x0000000000104d5c                recvtime
 .text          0x0000000000104e1d       0x5c binaries/registercb.o
                0x0000000000104e1d                registercb
 .text          0x0000000000104e79       0xcc binaries/registercbsig.o
                0x0000000000104e79                registercbsig
 .text          0x0000000000104f45      0x3bd binaries/resched.o
                0x0000000000104f45                resched
                0x0000000000105290                resched_cntl
 .text          0x0000000000105302       0x86 binaries/resume.o
                0x0000000000105302                resume
 .text          0x0000000000105388       0x59 binaries/seek.o
                0x0000000000105388                seek
 .text          0x00000000001053e1       0x51 binaries/semcount.o
                0x00000000001053e1                semcount
 .text          0x0000000000105432       0x93 binaries/semcreate.o
                0x0000000000105432                semcreate
 .text          0x00000000001054c5       0xd1 binaries/semdelete.o
                0x00000000001054c5                semdelete
 .text          0x0000000000105596       0xa8 binaries/semreset.o
                0x0000000000105596                semreset
 .text          0x000000000010563e      0x190 binaries/senbt.o
                0x000000000010563e                sendbt
 .text          0x00000000001057ce       0xbf binaries/send.o
                0x00000000001057ce                send
 .text          0x000000000010588d       0x9f binaries/send_func.o
                0x000000000010588d                send_func
                0x00000000001058c2                send_func2
 .text          0x000000000010592c       0x95 binaries/sendex.o
                0x000000000010592c                sendex
                0x0000000000105975                sendex1
 .text          0x00000000001059c1       0x95 binaries/signal.o
                0x00000000001059c1                signal
 .text          0x0000000000105a56       0xc2 binaries/signaln.o
                0x0000000000105a56                signaln
 .text          0x0000000000105b18       0xc5 binaries/sleep.o
                0x0000000000105b18                sleepms
                0x0000000000105ba7                sleep
 .text          0x0000000000105bdd       0x8c binaries/stackdepth.o
                0x0000000000105bdd                stackdepth
 .text          0x0000000000105c69      0x19e binaries/stacktrace.o
                0x0000000000105c69                stacktrace
 .text          0x0000000000105e07       0xbe binaries/suspend.o
                0x0000000000105e07                suspend
 .text          0x0000000000105ec5        0x0 binaries/tsdtab.o
 .text          0x0000000000105ec5       0x95 binaries/unsleep.o
                0x0000000000105ec5                unsleep
 .text          0x0000000000105f5a       0x19 binaries/userret.o
                0x0000000000105f5a                userret
 .text          0x0000000000105f73       0xb6 binaries/wait.o
                0x0000000000105f73                wait
 .text          0x0000000000106029       0x71 binaries/wakeup.o
                0x0000000000106029                wakeup
 .text          0x000000000010609a       0x5c binaries/write.o
                0x000000000010609a                write
 .text          0x00000000001060f6       0x1a binaries/xdone.o
                0x00000000001060f6                xdone
 .text          0x0000000000106110       0x26 binaries/yield.o
                0x0000000000106110                yield
 .text          0x0000000000106136       0x11 binaries/abs.o
                0x0000000000106136                abs
 .text          0x0000000000106147       0x84 binaries/atoi.o
                0x0000000000106147                atoi
 .text          0x00000000001061cb       0x84 binaries/atol.o
                0x00000000001061cb                atol
 .text          0x000000000010624f       0x1a binaries/bzero.o
                0x000000000010624f                bzero
 .text          0x0000000000106269        0x0 binaries/ctype_.o
 .text          0x0000000000106269      0x6bf binaries/doprnt.o
                0x00000000001063bc                _doprnt
 .text          0x0000000000106928      0x5f2 binaries/doscan.o
                0x0000000000106928                _doscan
 .text          0x0000000000106f1a      0x64e binaries/fdoprnt.o
                0x0000000000106f9f                _fdoprnt
 .text          0x0000000000107568       0x1c binaries/fgetc.o
                0x0000000000107568                fgetc
 .text          0x0000000000107584       0x61 binaries/fgets.o
                0x0000000000107584                fgets
 .text          0x00000000001075e5       0x21 binaries/fprintf.o
                0x00000000001075e5                fprintf
 .text          0x0000000000107606       0x27 binaries/fputc.o
                0x0000000000107606                fputc
 .text          0x000000000010762d       0x3a binaries/fputs.o
                0x000000000010762d                fputs
 .text          0x0000000000107667       0x6a binaries/fscanf.o
                0x00000000001076a5                fscanf
 .text          0x00000000001076d1       0x24 binaries/getchar.o
                0x00000000001076d1                getchar
 .text          0x00000000001076f5       0x11 binaries/labs.o
                0x00000000001076f5                labs
 .text          0x0000000000107706       0x36 binaries/memchr.o
                0x0000000000107706                memchr
 .text          0x000000000010773c       0x4a binaries/memcmp.o
                0x000000000010773c                memcmp
 .text          0x0000000000107786       0x26 binaries/memcpy.o
                0x0000000000107786                memcpy
 .text          0x00000000001077ac       0x1f binaries/memset.o
                0x00000000001077ac                memset
 .text          0x00000000001077cb       0x35 binaries/printf.o
                0x00000000001077cb                printf
 .text          0x0000000000107800       0x27 binaries/putchar.o
                0x0000000000107800                putchar
 .text          0x0000000000107827      0x1cc binaries/qsort.o
                0x00000000001079cb                qsort
 .text          0x00000000001079f3       0x4c binaries/rand.o
                0x00000000001079f3                srand
                0x0000000000107a00                rand
 .text          0x0000000000107a3f       0x48 binaries/sprintf.o
                0x0000000000107a58                sprintf
 .text          0x0000000000107a87       0x5a binaries/sscanf.o
                0x0000000000107ab7                sscanf
 .text          0x0000000000107ae1       0x2f binaries/strchr.o
                0x0000000000107ae1                strchr
 .text          0x0000000000107b10       0x45 binaries/strcmp.o
                0x0000000000107b10                strcmp
 .text          0x0000000000107b55       0x1c binaries/strcpy.o
                0x0000000000107b55                strcpy
 .text          0x0000000000107b71       0x20 binaries/strlen.o
                0x0000000000107b71                strlen
 .text          0x0000000000107b91       0x3d binaries/strncat.o
                0x0000000000107b91                strncat
 .text          0x0000000000107bce       0x3b binaries/strncmp.o
                0x0000000000107bce                strncmp
 .text          0x0000000000107c09       0x59 binaries/strncpy.o
                0x0000000000107c09                strncpy
 .text          0x0000000000107c62       0x38 binaries/strnlen.o
                0x0000000000107c62                strnlen
 .text          0x0000000000107c9a       0x32 binaries/strrchr.o
                0x0000000000107c9a                strrchr
 .text          0x0000000000107ccc       0x68 binaries/strstr.o
                0x0000000000107ccc                strstr
 .text          0x0000000000107d34      0x112 binaries/ttycontrol.o
                0x0000000000107d34                ttycontrol
 .text          0x0000000000107e46       0xb0 binaries/ttygetc.o
                0x0000000000107e46                ttygetc
 .text          0x0000000000107ef6      0x4a3 binaries/ttyhandle_in.o
                0x0000000000107fba                ttyhandle_in
 .text          0x0000000000108399      0x178 binaries/ttyhandle_out.o
                0x0000000000108399                ttyhandle_out
 .text          0x0000000000108511       0x85 binaries/ttyhandler.o
                0x0000000000108511                ttyhandler
 .text          0x0000000000108596      0x15d binaries/ttyinit.o
                0x0000000000108596                ttyinit
 .text          0x00000000001086f3        0xf binaries/ttykickout.o
                0x00000000001086f3                ttykickout
 .text          0x0000000000108702       0xb2 binaries/ttyputc.o
                0x0000000000108702                ttyputc
 .text          0x00000000001087b4       0xff binaries/ttyread.o
                0x00000000001087b4                ttyread
 .text          0x00000000001088b3       0x4d binaries/ttywrite.o
                0x00000000001088b3                ttywrite
 .text          0x0000000000108900      0x129 binaries/mount.o
                0x0000000000108900                namlen
                0x000000000010893c                mount
 .text          0x0000000000108a29      0x1c4 binaries/naminit.o
                0x0000000000108a29                naminit
 .text          0x0000000000108bed      0x1fe binaries/nammap.o
                0x0000000000108bed                namrepl
                0x0000000000108d10                namcpy
                0x0000000000108d5e                nammap
 .text          0x0000000000108deb       0x44 binaries/namopen.o
                0x0000000000108deb                namopen
 .text          0x0000000000108e2f       0xd4 binaries/colon2mac.o
                0x0000000000108e2f                colon2mac
 .text          0x0000000000108f03       0x7d binaries/ethcontrol.o
                0x0000000000108f03                ethcontrol
 .text          0x0000000000108f80      0x17e binaries/ethhandler.o
                0x0000000000108f80                ethhandler
 .text          0x00000000001090fe      0x548 binaries/ethinit.o
                0x00000000001090fe                eth_phy_read
                0x000000000010913e                eth_phy_write
                0x000000000010917f                eth_phy_reset
                0x0000000000109259                ethinit
 .text          0x0000000000109646      0x107 binaries/ethmcast.o
                0x0000000000109646                ethmcast_add
                0x0000000000109692                ethmcast_remove
 .text          0x000000000010974d      0x172 binaries/ethread.o
                0x000000000010974d                ethread
 .text          0x00000000001098bf       0xc1 binaries/ethwrite.o
                0x00000000001098bf                ethwrite
 .text          0x0000000000109980       0x68 binaries/rdsbufalloc.o
                0x0000000000109980                rdsbufalloc
 .text          0x00000000001099e8       0xd6 binaries/rdsclose.o
                0x00000000001099e8                rdsclose
 .text          0x0000000000109abe      0x1df binaries/rdscomm.o
                0x0000000000109abe                rdscomm
 .text          0x0000000000109c9d      0x1c4 binaries/rdscontrol.o
                0x0000000000109c9d                rdscontrol
 .text          0x0000000000109e61      0x1f7 binaries/rdsinit.o
                0x0000000000109e61                rdsinit
 .text          0x000000000010a058      0x199 binaries/rdsopen.o
                0x000000000010a058                rdsopen
 .text          0x000000000010a1f1      0x2c5 binaries/rdsprocess.o
                0x000000000010a1f1                rdsprocess
 .text          0x000000000010a4b6      0x1d8 binaries/rdsread.o
                0x000000000010a4b6                rdsread
 .text          0x000000000010a68e      0x1ae binaries/rdswrite.o
                0x000000000010a68e                rdswrite
 .text          0x000000000010a83c        0xa binaries/ramclose.o
                0x000000000010a83c                ramclose
 .text          0x000000000010a846       0x35 binaries/raminit.o
                0x000000000010a846                raminit
 .text          0x000000000010a87b        0xa binaries/ramopen.o
                0x000000000010a87b                ramopen
 .text          0x000000000010a885       0x26 binaries/ramread.o
                0x000000000010a885                ramread
 .text          0x000000000010a8ab       0x26 binaries/ramwrite.o
                0x000000000010a8ab                ramwrite
 .text          0x000000000010a8d1       0x87 binaries/lfdballoc.o
                0x000000000010a8d1                lfdballoc
 .text          0x000000000010a958       0x49 binaries/lfdbfree.o
                0x000000000010a958                lfdbfree
 .text          0x000000000010a9a1       0xa1 binaries/lfflush.o
                0x000000000010a9a1                lfflush
 .text          0x000000000010aa42       0x82 binaries/lfgetmode.o
                0x000000000010aa42                lfgetmode
 .text          0x000000000010aac4       0x60 binaries/lfiballoc.o
                0x000000000010aac4                lfiballoc
 .text          0x000000000010ab24       0x27 binaries/lfibclear.o
                0x000000000010ab24                lfibclear
 .text          0x000000000010ab4b       0x6c binaries/lfibget.o
                0x000000000010ab4b                lfibget
 .text          0x000000000010abb7       0x88 binaries/lfibput.o
                0x000000000010abb7                lfibput
 .text          0x000000000010ac3f       0xa4 binaries/lflclose.o
                0x000000000010ac3f                lflclose
 .text          0x000000000010ace3       0xc2 binaries/lflcontrol.o
                0x000000000010ace3                lflcontrol
 .text          0x000000000010ada5       0xfd binaries/lflgetc.o
                0x000000000010ada5                lflgetc
 .text          0x000000000010aea2       0xe7 binaries/lflinit.o
                0x000000000010aea2                lflinit
 .text          0x000000000010af89      0x12f binaries/lflputc.o
                0x000000000010af89                lflputc
 .text          0x000000000010b0b8       0x6b binaries/lflread.o
                0x000000000010b0b8                lflread
 .text          0x000000000010b123       0xbd binaries/lflseek.o
                0x000000000010b123                lflseek
 .text          0x000000000010b1e0       0x52 binaries/lflwrite.o
                0x000000000010b1e0                lflwrite
 .text          0x000000000010b232      0x114 binaries/lfsckfmt.o
                0x000000000010b232                lfsckfmt
 .text          0x000000000010b346      0x1e6 binaries/lfscreate.o
                0x000000000010b346                lfscreate
 .text          0x000000000010b52c      0x1b1 binaries/lfsetup.o
                0x000000000010b52c                lfsetup
 .text          0x000000000010b6dd       0x45 binaries/lfsinit.o
                0x000000000010b6dd                lfsinit
 .text          0x000000000010b722      0x302 binaries/lfsopen.o
                0x000000000010b722                lfsopen
 .text          0x000000000010ba24      0x112 binaries/lftruncate.o
                0x000000000010ba24                lftruncate
 .text          0x000000000010bb36       0x69 binaries/rflclose.o
                0x000000000010bb36                rflclose
 .text          0x000000000010bb9f       0x29 binaries/rflgetc.o
                0x000000000010bb9f                rflgetc
 .text          0x000000000010bbc8       0x6c binaries/rflinit.o
                0x000000000010bbc8                rflinit
 .text          0x000000000010bc34       0x29 binaries/rflputc.o
                0x000000000010bc34                rflputc
 .text          0x000000000010bc5d      0x2b6 binaries/rflread.o
                0x000000000010bc5d                rflread
 .text          0x000000000010bf13       0x68 binaries/rflseek.o
                0x000000000010bf13                rflseek
 .text          0x000000000010bf7b      0x2fa binaries/rflwrite.o
                0x000000000010bf7b                rflwrite
 .text          0x000000000010c275      0x17d binaries/rfscomm.o
                0x000000000010c275                rfscomm
 .text          0x000000000010c3f2      0x22b binaries/rfscontrol.o
                0x000000000010c3f2                rfscontrol
 .text          0x000000000010c61d       0x82 binaries/rfsgetmode.o
                0x000000000010c61d                rfsgetmode
 .text          0x000000000010c69f       0x7e binaries/rfsinit.o
                0x000000000010c69f                rfsinit
 .text          0x000000000010c71d       0xad binaries/rfsndmsg.o
                0x000000000010c71d                rfsndmsg
 .text          0x000000000010c7ca      0x243 binaries/rfsopen.o
                0x000000000010c7ca                rfsopen
 .text          0x000000000010ca0d      0x626 binaries/arp.o
                0x000000000010ca0d                arp_init
                0x000000000010ca29                arp_alloc
                0x000000000010cad0                arp_ntoh
                0x000000000010cb3d                arp_hton
                0x000000000010cbaa                arp_resolve
                0x000000000010cdfb                arp_in
 .text          0x000000000010d033      0x5ed binaries/dhcp.o
                0x000000000010d033                dhcp_get_opt_val
                0x000000000010d087                dhcp_bld_bootp_msg
                0x000000000010d159                dhcp_bld_disc
                0x000000000010d1ab                dhcp_bld_req
                0x000000000010d246                getlocalip
 .text          0x000000000010d620       0xda binaries/dot2ip.o
                0x000000000010d620                dot2ip
 .text          0x000000000010d6fa      0x38c binaries/hexdump.o
                0x000000000010d6fa                hexdump
                0x000000000010d854                hexadump
 .text          0x000000000010da86      0x6f6 binaries/icmp.o
                0x000000000010da86                icmp_init
                0x000000000010daa2                icmp_register
                0x000000000010db60                icmp_recv
                0x000000000010dd03                icmp_mkpkt
                0x000000000010ddd0                icmp_in
                0x000000000010df6a                icmp_send
                0x000000000010dfd9                icmp_release
                0x000000000010e0f4                icmp_cksum
                0x000000000010e14e                icmp_hton
                0x000000000010e165                icmp_ntoh
 .text          0x000000000010e17c      0x5e2 binaries/ip.o
                0x000000000010e17c                ip_local
                0x000000000010e1bc                ipcksum
                0x000000000010e212                ip_ntoh
                0x000000000010e27f                ip_in
                0x000000000010e3a4                ip_hton
                0x000000000010e411                ip_out
                0x000000000010e4c7                ip_send
                0x000000000010e5d2                ipout
                0x000000000010e6c5                ip_enqueue
 .text          0x000000000010e75e      0x1b2 binaries/net.o
                0x000000000010e75e                net_init
                0x000000000010e855                eth_hton
                0x000000000010e862                eth_ntoh
                0x000000000010e86f                netin
 .text          0x000000000010e910       0xb9 binaries/netstart.o
                0x000000000010e910                netstart
 .text          0x000000000010e9c9      0xa30 binaries/pdump.o
                0x000000000010e9c9                pdump
                0x000000000010efae                pdumph
 .text          0x000000000010f3f9      0x5b8 binaries/tftp.o
                0x000000000010f3f9                tftp_send1
                0x000000000010f50d                tftpget_mb
                0x000000000010f98e                tftpget
 .text          0x000000000010f9b1      0xa17 binaries/udp.o
                0x000000000010f9b1                udp_init
                0x000000000010f9f2                udp_in
                0x000000000010fb1b                udp_register
                0x000000000010fc2c                udp_recv
                0x000000000010fdc5                udp_recvaddr
                0x000000000010ff72                udp_send
                0x0000000000110120                udp_sendto
                0x0000000000110289                udp_release
                0x000000000011039a                udp_ntoh
                0x00000000001103b1                udp_hton
 .text          0x00000000001103c8      0x129 binaries/addargs.o
                0x00000000001103c8                addargs
 .text          0x00000000001104f1      0x1db binaries/lexan.o
                0x00000000001104f1                lexan
 .text          0x00000000001106cc      0x648 binaries/shell.o
                0x00000000001106cc                shell
 .text          0x0000000000110d14       0x59 binaries/xsh_argecho.o
                0x0000000000110d14                xsh_argecho
 .text          0x0000000000110d6d      0x1fb binaries/xsh_arp.o
                0x0000000000110d6d                xsh_arp
 .text          0x0000000000110f68      0x205 binaries/xsh_cat.o
                0x0000000000110f68                xsh_cat
 .text          0x000000000011116d       0x56 binaries/xsh_clear.o
                0x000000000011116d                xsh_clear
 .text          0x00000000001111c3      0x29e binaries/xsh_date.o
                0x00000000001111c3                xsh_date
 .text          0x0000000000111461       0x87 binaries/xsh_devdump.o
                0x0000000000111461                xsh_devdump
 .text          0x00000000001114e8       0x63 binaries/xsh_echo.o
                0x00000000001114e8                xsh_echo
 .text          0x000000000011154b        0xa binaries/xsh_exit.o
                0x000000000011154b                xsh_exit
 .text          0x0000000000111555      0x331 binaries/xsh_help.o
                0x0000000000111555                xsh_help
 .text          0x0000000000111886      0x383 binaries/xsh_ipaddr.o
                0x0000000000111886                xsh_ipaddr
 .text          0x0000000000111c09      0x1d4 binaries/xsh_kill.o
                0x0000000000111c09                xsh_kill
 .text          0x0000000000111ddd      0x3e7 binaries/xsh_memdump.o
                0x0000000000111ea3                xsh_memdump
 .text          0x00000000001121c4      0x1da binaries/xsh_memstat.o
                0x00000000001121c4                xsh_memstat
 .text          0x000000000011239e      0x2b7 binaries/xsh_ping.o
                0x000000000011239e                xsh_ping
 .text          0x0000000000112655      0x1aa binaries/xsh_ps.o
                0x0000000000112655                xsh_ps
 .text          0x00000000001127ff      0x1c6 binaries/xsh_sleep.o
                0x00000000001127ff                xsh_sleep
 .text          0x00000000001129c5      0x1d1 binaries/xsh_udpdump.o
                0x00000000001129c5                xsh_udpdump
 .text          0x0000000000112b96      0x3f3 binaries/xsh_udpecho.o
                0x0000000000112b96                xsh_udpecho
 .text          0x0000000000112f89      0x226 binaries/xsh_udpeserver.o
                0x0000000000112f89                xsh_udpeserver
 .text          0x00000000001131af      0x1be binaries/xsh_uptime.o
                0x00000000001131af                xsh_uptime
 .text          0x000000000011336d        0xe binaries/clkdisp.o
                0x000000000011336d                clkdisp
 .text          0x000000000011337b       0x19 binaries/ctxsw.o
                0x000000000011337b                ctxsw
 .text          0x0000000000113394        0xf binaries/host2netla.o
                0x0000000000113394                host2netla
 .text          0x00000000001133a3       0x2f binaries/host2netlc.o
                0x00000000001133a3                host2netlc
 .text          0x00000000001133d2      0x36b binaries/intr.o
                0x00000000001133d2                disable
                0x00000000001133db                restore
                0x00000000001133e9                enable
                0x00000000001133eb                pause
                0x00000000001133f2                halt
                0x00000000001133f8                spurious_irq7
                0x00000000001133fd                spurious_irq15
                0x000000000011340c                _Xint0
                0x0000000000113417                _Xint1
                0x0000000000113422                _Xint2
                0x000000000011342d                _Xint3
                0x0000000000113438                _Xint4
                0x0000000000113443                _Xint5
                0x000000000011344e                _Xint6
                0x0000000000113459                _Xint7
                0x0000000000113464                _Xint8
                0x000000000011346f                _Xint9
                0x000000000011347a                _Xint10
                0x0000000000113485                _Xint11
                0x0000000000113493                _Xint12
                0x00000000001134a1                _Xint13
                0x00000000001134af                _Xint14
                0x00000000001134bd                _Xint15
                0x00000000001134cb                _Xint16
                0x00000000001134d9                _Xint17
                0x00000000001134e7                _Xint18
                0x00000000001134f5                _Xint19
                0x0000000000113503                _Xint20
                0x0000000000113511                _Xint21
                0x000000000011351f                _Xint22
                0x000000000011352d                _Xint23
                0x000000000011353b                _Xint24
                0x0000000000113549                _Xint25
                0x0000000000113557                _Xint26
                0x0000000000113565                _Xint27
                0x0000000000113573                _Xint28
                0x0000000000113581                _Xint29
                0x000000000011358f                _Xint30
                0x000000000011359d                _Xint31
                0x00000000001135ab                _Xint32
                0x00000000001135b9                _Xint33
                0x00000000001135c7                _Xint34
                0x00000000001135d5                _Xint35
                0x00000000001135e3                _Xint36
                0x00000000001135f1                _Xint37
                0x00000000001135ff                _Xint38
                0x000000000011360d                _Xint39
                0x000000000011361b                _Xint40
                0x0000000000113629                _Xint41
                0x0000000000113637                _Xint42
                0x0000000000113645                _Xint43
                0x0000000000113653                _Xint44
                0x0000000000113661                _Xint45
                0x000000000011366f                _Xint46
                0x000000000011367d                defevec
 .text          0x000000000011373d        0xf binaries/ttydispatch.o
                0x000000000011373d                ttydispatch
 .text          0x000000000011374c       0x13 binaries/ethdispatch.o
                0x000000000011374c                ethdispatch
 *(.rodata .rodata.*)
 .rodata.str1.1
                0x000000000011375f       0x2a binaries/app1.o
 .rodata.str1.1
                0x0000000000113789       0x2e binaries/app2.o
 .rodata.str1.1
                0x00000000001137b7       0x78 binaries/app3.o
 .rodata.str1.1
                0x000000000011382f       0x12 binaries/app_lim.o
 *fill*         0x0000000000113841        0x3 
 .rodata.str1.4
                0x0000000000113844       0x25 binaries/app_unlim.o
 .rodata.str1.1
                0x0000000000113869       0x54 binaries/ascdate.o
 *fill*         0x00000000001138bd        0x3 
 .rodata.str1.4
                0x00000000001138c0       0x22 binaries/ascdate.o
 .rodata.str1.1
                0x00000000001138e2       0x5f binaries/conf.o
 *fill*         0x0000000000113941        0x3 
 .rodata.str1.4
                0x0000000000113944       0x9c binaries/cpubound.o
 .rodata.str1.4
                0x00000000001139e0       0x4f binaries/early_imr.o
 *fill*         0x0000000000113a2f        0x1 
 .rodata        0x0000000000113a30       0x33 binaries/early_imr.o
 .rodata.str1.1
                0x0000000000113a63      0x20c binaries/evec.o
 *fill*         0x0000000000113c6f        0x1 
 .rodata.str1.4
                0x0000000000113c70       0x23 binaries/evec.o
 .rodata.str1.1
                0x0000000000113c93       0x11 binaries/f1.o
 .rodata.str1.4
                0x0000000000113ca4       0x24 binaries/f1.o
 .rodata.str1.1
                0x0000000000113cc8        0xb binaries/getutime.o
 *fill*         0x0000000000113cd3        0x1 
 .rodata.str1.4
                0x0000000000113cd4       0x54 binaries/getutime.o
 .rodata.str1.1
                0x0000000000113d28       0x7f binaries/initialize.o
                                         0x83 (size before relaxing)
 *fill*         0x0000000000113da7        0x1 
 .rodata.str1.4
                0x0000000000113da8       0xd4 binaries/initialize.o
 .rodata.str1.4
                0x0000000000113e7c       0x74 binaries/iobound.o
 .rodata        0x0000000000113e7c       0x20 binaries/kill.o
 .rodata.str1.1
                0x0000000000113e9c       0xdf binaries/lab2q3.o
 .rodata.str1.1
                0x0000000000113f7b       0x21 binaries/lab2q4.o
 .rodata.str1.1
                0x0000000000113f9c       0x11 binaries/lab2q5.o
 .rodata        0x0000000000113f9c       0x18 binaries/lab2q5.o
 .rodata.str1.1
                0x0000000000113fb4       0x21 binaries/lab3q3.o
 .rodata.str1.1
                0x0000000000113fb4       0x1e binaries/lab3q4.o
                                         0x2f (size before relaxing)
 .rodata.str1.1
                0x0000000000113fd2       0x3c binaries/main.o
 *fill*         0x000000000011400e        0x2 
 .rodata.str1.4
                0x0000000000114010      0x17d binaries/main.o
                                        0x1a1 (size before relaxing)
 *fill*         0x000000000011418d        0x3 
 .rodata.str1.4
                0x0000000000114190       0x23 binaries/meminit.o
 .rodata.str1.1
                0x00000000001141b3       0x1b binaries/meminit.o
 .rodata.str1.1
                0x00000000001141ce       0x5a binaries/myappA.o
 .rodata.str1.4
                0x0000000000114228       0x55 binaries/myappA.o
 .rodata.str1.1
                0x000000000011427d        0xf binaries/myfuncA.o
 *fill*         0x000000000011427d        0x3 
 .rodata.str1.4
                0x0000000000114280       0x35 binaries/myfuncA.o
                                         0x6d (size before relaxing)
 *fill*         0x00000000001142b5        0x3 
 .rodata.str1.4
                0x00000000001142b8       0x50 binaries/myhacker.o
 .rodata.str1.1
                0x0000000000114308       0x15 binaries/myhacker.o
 .rodata.str1.1
                0x000000000011431d       0x15 binaries/myvictim.o
 *fill*         0x0000000000114332        0x2 
 .rodata.str1.4
                0x0000000000114334       0x29 binaries/myvictim.o
                                         0x51 (size before relaxing)
 *fill*         0x000000000011435d        0x3 
 .rodata.str1.4
                0x0000000000114360       0x4a binaries/mywelcomemsg.o
 .rodata.str1.1
                0x00000000001143aa        0xf binaries/panic.o
 .rodata.str1.1
                0x00000000001143b9       0x2c binaries/printprstate.o
 *fill*         0x00000000001143e5        0x3 
 .rodata.str1.4
                0x00000000001143e8      0x130 binaries/printprstate.o
 .rodata        0x0000000000114518       0x1c binaries/printprstate.o
 .rodata.str1.1
                0x0000000000114534       0xa5 binaries/prntsegaddr.o
 *fill*         0x00000000001145d9        0x3 
 .rodata.str1.4
                0x00000000001145dc       0x81 binaries/prntsegaddr.o
 .rodata.str1.1
                0x000000000011465d       0x1c binaries/ptinit.o
 *fill*         0x0000000000114679        0x3 
 .rodata.str1.4
                0x000000000011467c       0x25 binaries/ptsend.o
 .rodata.str1.1
                0x00000000001146a1       0x22 binaries/quark_pdat.o
 .rodata.str1.1
                0x00000000001146c3       0x19 binaries/receive.o
 .rodata.str1.1
                0x00000000001146dc       0x16 binaries/receiveex.o
 *fill*         0x00000000001146f2        0x2 
 .rodata.str1.4
                0x00000000001146f4      0x133 binaries/recv_func.o
                                        0x157 (size before relaxing)
 *fill*         0x0000000000114827        0x1 
 .rodata.str1.4
                0x0000000000114828       0x3f binaries/recvhandler.o
 *fill*         0x0000000000114867        0x1 
 .rodata.str1.4
                0x0000000000114868       0x42 binaries/send_func.o
 *fill*         0x00000000001148aa        0x2 
 .rodata.str1.4
                0x00000000001148ac       0x28 binaries/sendex.o
 .rodata.str1.1
                0x00000000001148d4       0x12 binaries/sendex.o
 .rodata.str1.1
                0x00000000001148e6       0x16 binaries/stackdepth.o
 .rodata.str1.4
                0x00000000001148fc       0x33 binaries/stackdepth.o
 *fill*         0x000000000011492f        0x1 
 .rodata.str1.4
                0x0000000000114930       0x63 binaries/stacktrace.o
 .rodata.str1.1
                0x0000000000114993       0x52 binaries/stacktrace.o
 *fill*         0x00000000001149e5        0x3 
 .rodata.str1.4
                0x00000000001149e8       0x27 binaries/xdone.o
 *fill*         0x0000000000114a0f       0x11 
 .rodata        0x0000000000114a20       0x81 binaries/ctype_.o
                0x0000000000114a20                _ctype_
 .rodata.str1.1
                0x0000000000114aa1       0x29 binaries/doprnt.o
 *fill*         0x0000000000114aca        0x2 
 .rodata        0x0000000000114acc       0xc4 binaries/doprnt.o
 .rodata        0x0000000000114b90       0x98 binaries/doscan.o
 .rodata.str1.1
                0x0000000000114c28       0x29 binaries/fdoprnt.o
 .rodata        0x0000000000114c28       0x84 binaries/fdoprnt.o
 .rodata        0x0000000000114cac       0x20 binaries/ttycontrol.o
 .rodata.str1.4
                0x0000000000114ccc       0x4c binaries/naminit.o
 .rodata.str1.1
                0x0000000000114d18       0x32 binaries/naminit.o
                                         0x35 (size before relaxing)
 .rodata.str1.1
                0x0000000000114d4a       0x15 binaries/ethinit.o
 *fill*         0x0000000000114d5f        0x1 
 .rodata.str1.4
                0x0000000000114d60       0x2e binaries/ethinit.o
 *fill*         0x0000000000114d8e        0x2 
 .rodata.str1.4
                0x0000000000114d90       0x2c binaries/rdsbufalloc.o
 .rodata.str1.4
                0x0000000000114dbc       0x76 binaries/rdscomm.o
 *fill*         0x0000000000114e32        0x2 
 .rodata.str1.4
                0x0000000000114e34       0x48 binaries/rdscontrol.o
 .rodata.str1.4
                0x0000000000114e7c       0x7e binaries/rdsinit.o
 .rodata.str1.1
                0x0000000000114efa       0x18 binaries/rdsinit.o
 *fill*         0x0000000000114f12        0x2 
 .rodata.str1.4
                0x0000000000114f14       0x22 binaries/rdsopen.o
 *fill*         0x0000000000114f36        0x2 
 .rodata.str1.4
                0x0000000000114f38       0x4d binaries/rdsprocess.o
 .rodata.str1.1
                0x0000000000114f85        0x9 binaries/raminit.o
 .rodata.str1.1
                0x0000000000114f8e       0x13 binaries/lfdballoc.o
 *fill*         0x0000000000114fa1        0x3 
 .rodata.str1.4
                0x0000000000114fa4       0x23 binaries/lfdballoc.o
 .rodata.str1.1
                0x0000000000114fc7       0x14 binaries/lfiballoc.o
 *fill*         0x0000000000114fdb        0x1 
 .rodata.str1.4
                0x0000000000114fdc       0x23 binaries/lflcontrol.o
 .rodata.str1.1
                0x0000000000114fff       0x64 binaries/lfsckfmt.o
 *fill*         0x0000000000115063        0x1 
 .rodata.str1.4
                0x0000000000115064       0x51 binaries/lfsckfmt.o
 *fill*         0x00000000001150b5        0x3 
 .rodata.str1.4
                0x00000000001150b8       0x21 binaries/rflread.o
 .rodata.str1.4
                0x00000000001150d9       0x21 binaries/rflwrite.o
 *fill*         0x00000000001150d9        0x3 
 .rodata.str1.4
                0x00000000001150dc       0x75 binaries/rfscomm.o
 *fill*         0x0000000000115151        0x3 
 .rodata.str1.4
                0x0000000000115154       0x23 binaries/rfscontrol.o
 *fill*         0x0000000000115177        0x1 
 .rodata        0x0000000000115178       0x18 binaries/rfscontrol.o
 .rodata.str1.1
                0x0000000000115190       0x10 binaries/rfsinit.o
 .rodata.str1.4
                0x0000000000115190       0x57 binaries/rfsinit.o
 *fill*         0x00000000001151e7        0x1 
 .rodata.str1.4
                0x00000000001151e8       0x2a binaries/rfsndmsg.o
 .rodata.str1.4
                0x0000000000115212       0x22 binaries/rfsopen.o
 .rodata.str1.1
                0x0000000000115212       0x19 binaries/arp.o
 *fill*         0x000000000011522b        0x1 
 .rodata.str1.4
                0x000000000011522c       0x21 binaries/arp.o
 *fill*         0x000000000011524d        0x3 
 .rodata.str1.4
                0x0000000000115250       0xa6 binaries/dhcp.o
 .rodata.str1.1
                0x00000000001152f6       0x4a binaries/dhcp.o
 .rodata.str1.1
                0x0000000000115340       0x5a binaries/hexdump.o
                                         0x61 (size before relaxing)
 *fill*         0x000000000011539a        0x2 
 .rodata.str1.4
                0x000000000011539c       0x67 binaries/hexdump.o
 *fill*         0x0000000000115403        0x1 
 .rodata.str1.4
                0x0000000000115404       0x29 binaries/icmp.o
 .rodata.str1.1
                0x000000000011542d       0x4e binaries/ip.o
 *fill*         0x000000000011547b        0x1 
 .rodata.str1.4
                0x000000000011547c       0x20 binaries/ip.o
 .rodata.str1.4
                0x000000000011549c       0x28 binaries/net.o
 .rodata.str1.1
                0x00000000001154c4       0x27 binaries/net.o
 *fill*         0x00000000001154eb        0x1 
 .rodata.str1.4
                0x00000000001154ec       0xcf binaries/netstart.o
 .rodata.str1.1
                0x00000000001155bb      0x13e binaries/pdump.o
                                        0x14b (size before relaxing)
 *fill*         0x00000000001156f9        0x3 
 .rodata.str1.4
                0x00000000001156fc      0x126 binaries/pdump.o
 *fill*         0x0000000000115822        0x2 
 .rodata.str1.4
                0x0000000000115824      0x148 binaries/tftp.o
 .rodata.str1.1
                0x000000000011596c        0x6 binaries/tftp.o
                                          0xa (size before relaxing)
 .rodata.str1.1
                0x0000000000115972       0xd1 binaries/shell.o
                                         0xed (size before relaxing)
 *fill*         0x0000000000115a43        0x1 
 .rodata.str1.4
                0x0000000000115a44      0x1c4 binaries/shell.o
                                        0x210 (size before relaxing)
 *fill*         0x0000000000115c08       0x18 
 .rodata        0x0000000000115c20       0xfc binaries/shell.o
                0x0000000000115c20                cmdtab
 .rodata.str1.1
                0x0000000000115d1c       0x26 binaries/xsh_argecho.o
                                         0x28 (size before relaxing)
 .rodata.str1.1
                0x0000000000115d42       0x70 binaries/xsh_arp.o
                                         0x72 (size before relaxing)
 *fill*         0x0000000000115db2        0x2 
 .rodata.str1.4
                0x0000000000115db4       0xb4 binaries/xsh_arp.o
 .rodata.str1.1
                0x0000000000115e68       0x2d binaries/xsh_cat.o
                                         0x4f (size before relaxing)
 *fill*         0x0000000000115e95        0x3 
 .rodata.str1.4
                0x0000000000115e98       0x52 binaries/xsh_cat.o
                                         0x79 (size before relaxing)
 .rodata.str1.1
                0x0000000000115eea       0x15 binaries/xsh_clear.o
 .rodata.str1.1
                0x0000000000115eff       0x46 binaries/xsh_date.o
                                         0x5f (size before relaxing)
 *fill*         0x0000000000115f45        0x3 
 .rodata.str1.4
                0x0000000000115f48      0x163 binaries/xsh_date.o
 .rodata.str1.1
                0x00000000001160ab       0x5d binaries/xsh_devdump.o
 .rodata.str1.1
                0x0000000000116108       0x5d binaries/xsh_echo.o
                                          0x9 (size before relaxing)
 .rodata.str1.1
                0x0000000000116108       0x65 binaries/xsh_help.o
                                         0xa3 (size before relaxing)
 *fill*         0x000000000011616d        0x3 
 .rodata.str1.4
                0x0000000000116170       0x7c binaries/xsh_help.o
                                         0xc6 (size before relaxing)
 .rodata.str1.1
                0x00000000001161ec       0x9c binaries/xsh_ipaddr.o
                                         0xf8 (size before relaxing)
 .rodata.str1.4
                0x0000000000116288       0x4d binaries/xsh_ipaddr.o
                                         0x99 (size before relaxing)
 .rodata.str1.1
                0x00000000001162d5       0x78 binaries/xsh_kill.o
                                         0x97 (size before relaxing)
 *fill*         0x000000000011634d        0x3 
 .rodata.str1.4
                0x0000000000116350       0x4a binaries/xsh_kill.o
                                         0x96 (size before relaxing)
 .rodata.str1.1
                0x000000000011639a       0x84 binaries/xsh_memdump.o
                                         0xa8 (size before relaxing)
 *fill*         0x000000000011641e        0x2 
 .rodata.str1.4
                0x0000000000116420      0x15a binaries/xsh_memdump.o
                                        0x1aa (size before relaxing)
 .rodata.str1.1
                0x000000000011657a       0x40 binaries/xsh_memstat.o
                                         0x79 (size before relaxing)
 *fill*         0x00000000001165ba        0x2 
 .rodata.str1.4
                0x00000000001165bc      0x187 binaries/xsh_memstat.o
                                        0x1af (size before relaxing)
 .rodata.str1.1
                0x0000000000116743       0x90 binaries/xsh_ping.o
                                         0xaf (size before relaxing)
 *fill*         0x00000000001167d3        0x1 
 .rodata.str1.4
                0x00000000001167d4       0x77 binaries/xsh_ping.o
                                         0xc6 (size before relaxing)
 .rodata.str1.1
                0x000000000011684b       0x74 binaries/xsh_ps.o
                                         0xd5 (size before relaxing)
 *fill*         0x00000000001168bf        0x1 
 .rodata.str1.4
                0x00000000001168c0       0x80 binaries/xsh_ps.o
                                         0xd0 (size before relaxing)
 .rodata        0x0000000000116940       0x20 binaries/xsh_ps.o
 .rodata.str1.1
                0x0000000000116960       0x31 binaries/xsh_sleep.o
                                         0x72 (size before relaxing)
 *fill*         0x0000000000116991        0x3 
 .rodata.str1.4
                0x0000000000116994       0x2a binaries/xsh_sleep.o
                                         0x7a (size before relaxing)
 .rodata.str1.1
                0x00000000001169be       0x6b binaries/xsh_udpdump.o
                                         0xd2 (size before relaxing)
 *fill*         0x0000000000116a29        0x3 
 .rodata.str1.4
                0x0000000000116a2c       0x94 binaries/xsh_udpdump.o
                                         0xe4 (size before relaxing)
 .rodata.str1.1
                0x0000000000116ac0       0xdb binaries/xsh_udpecho.o
                                         0xfa (size before relaxing)
 *fill*         0x0000000000116b9b        0x1 
 .rodata.str1.4
                0x0000000000116b9c       0xc7 binaries/xsh_udpecho.o
                                        0x116 (size before relaxing)
 .rodata.str1.1
                0x0000000000116c63       0x66 binaries/xsh_udpeserver.o
                                         0x8f (size before relaxing)
 *fill*         0x0000000000116cc9        0x3 
 .rodata.str1.4
                0x0000000000116ccc       0x29 binaries/xsh_udpeserver.o
                                         0x9f (size before relaxing)
 .rodata.str1.1
                0x0000000000116cf5       0x49 binaries/xsh_uptime.o
                                         0x8c (size before relaxing)
 *fill*         0x0000000000116d3e        0x2 
 .rodata.str1.4
                0x0000000000116d40       0x28 binaries/xsh_uptime.o
                                         0x76 (size before relaxing)
                0x0000000000116d68                etext = ABSOLUTE (.)
                0x0000000000117000                . = ALIGN (0x1000)
 *fill*         0x0000000000116d68      0x298 

.eh_frame       0x0000000000117000     0x3ae4
 .eh_frame      0x0000000000117000       0x40 binaries/alarmms.o
 .eh_frame      0x0000000000117040       0x64 binaries/alrm_getitem.o
                                         0x7c (size before relaxing)
 .eh_frame      0x00000000001170a4       0x2c binaries/alrm_insertd.o
                                         0x44 (size before relaxing)
 .eh_frame      0x00000000001170d0       0x60 binaries/alrm_queue.o
                                         0x78 (size before relaxing)
 .eh_frame      0x0000000000117130       0x24 binaries/alrm_wakeup.o
                                         0x3c (size before relaxing)
 .eh_frame      0x0000000000117154       0x20 binaries/app1.o
                                         0x38 (size before relaxing)
 .eh_frame      0x0000000000117174       0x20 binaries/app2.o
                                         0x38 (size before relaxing)
 .eh_frame      0x0000000000117194       0x20 binaries/app3.o
                                         0x38 (size before relaxing)
 .eh_frame      0x00000000001171b4       0x40 binaries/app_lim.o
                                         0x58 (size before relaxing)
 .eh_frame      0x00000000001171f4       0x1c binaries/app_unlim.o
                                         0x34 (size before relaxing)
 .eh_frame      0x0000000000117210       0x30 binaries/ascdate.o
                                         0x48 (size before relaxing)
 .eh_frame      0x0000000000117240       0x20 binaries/bufinit.o
                                         0x38 (size before relaxing)
 .eh_frame      0x0000000000117260       0x2c binaries/chprio.o
                                         0x44 (size before relaxing)
 .eh_frame      0x000000000011728c       0x2c binaries/clkhandler.o
                                         0x44 (size before relaxing)
 .eh_frame      0x00000000001172b8       0x20 binaries/clkinit.o
                                         0x38 (size before relaxing)
 .eh_frame      0x00000000001172d8       0x28 binaries/close.o
                                         0x40 (size before relaxing)
 .eh_frame      0x0000000000117300       0x28 binaries/control.o
                                         0x40 (size before relaxing)
 .eh_frame      0x0000000000117328       0x2c binaries/cpubound.o
                                         0x44 (size before relaxing)
 .eh_frame      0x0000000000117354       0x30 binaries/create.o
                                         0x48 (size before relaxing)
 .eh_frame      0x0000000000117384       0x94 binaries/early_imr.o
                                         0xac (size before relaxing)
 .eh_frame      0x0000000000117418       0x94 binaries/evec.o
                                         0xac (size before relaxing)
 .eh_frame      0x00000000001174ac       0x80 binaries/f1.o
                                         0x98 (size before relaxing)
 .eh_frame      0x000000000011752c       0x2c binaries/freebuf.o
                                         0x44 (size before relaxing)
 .eh_frame      0x0000000000117558       0x2c binaries/freemem.o
                                         0x44 (size before relaxing)
 .eh_frame      0x0000000000117584       0x2c binaries/getbuf.o
                                         0x44 (size before relaxing)
 .eh_frame      0x00000000001175b0       0x28 binaries/getc.o
                                         0x40 (size before relaxing)
 .eh_frame      0x00000000001175d8       0x2c binaries/getdev.o
                                         0x44 (size before relaxing)
 .eh_frame      0x0000000000117604       0x64 binaries/getitem.o
                                         0x7c (size before relaxing)
 .eh_frame      0x0000000000117668       0x28 binaries/getmem.o
                                         0x40 (size before relaxing)
 .eh_frame      0x0000000000117690       0x20 binaries/getpid.o
                                         0x38 (size before relaxing)
 .eh_frame      0x00000000001176b0       0x20 binaries/getppid.o
                                         0x38 (size before relaxing)
 .eh_frame      0x00000000001176d0       0x24 binaries/getprio.o
                                         0x3c (size before relaxing)
 .eh_frame      0x00000000001176f4       0x2c binaries/getstk.o
                                         0x44 (size before relaxing)
 .eh_frame      0x0000000000117720       0x20 binaries/gettime.o
                                         0x38 (size before relaxing)
 .eh_frame      0x0000000000117740       0x24 binaries/getutime.o
                                         0x3c (size before relaxing)
 .eh_frame      0x0000000000117764       0x20 binaries/host2netlb.o
                                         0x38 (size before relaxing)
 .eh_frame      0x0000000000117784       0x28 binaries/init.o
                                         0x40 (size before relaxing)
 .eh_frame      0x00000000001177ac       0x5c binaries/initialize.o
                                         0x74 (size before relaxing)
 .eh_frame      0x0000000000117808       0x28 binaries/insert.o
                                         0x40 (size before relaxing)
 .eh_frame      0x0000000000117830       0x2c binaries/insertd.o
                                         0x44 (size before relaxing)
 .eh_frame      0x000000000011785c       0x2c binaries/iobound.o
                                         0x44 (size before relaxing)
 .eh_frame      0x0000000000117888       0x20 binaries/ioerr.o
                                         0x38 (size before relaxing)
 .eh_frame      0x00000000001178a8       0x20 binaries/ionull.o
                                         0x38 (size before relaxing)
 .eh_frame      0x00000000001178c8       0x30 binaries/kill.o
                                         0x48 (size before relaxing)
 .eh_frame      0x00000000001178f8       0x80 binaries/kprintf.o
                                         0x98 (size before relaxing)
 .eh_frame      0x0000000000117978       0x30 binaries/lab2q3.o
                                         0x48 (size before relaxing)
 .eh_frame      0x00000000001179a8       0x6c binaries/lab2q4.o
                                         0x84 (size before relaxing)
 .eh_frame      0x0000000000117a14       0x2c binaries/lab2q5.o
                                         0x44 (size before relaxing)
 .eh_frame      0x0000000000117a40       0x6c binaries/lab3q3.o
                                         0x84 (size before relaxing)
 .eh_frame      0x0000000000117aac       0x90 binaries/lab3q4.o
                                         0xa8 (size before relaxing)
 .eh_frame      0x0000000000117b3c      0x1ec binaries/main.o
                                        0x204 (size before relaxing)
 .eh_frame      0x0000000000117d28       0x44 binaries/mark.o
                                         0x5c (size before relaxing)
 .eh_frame      0x0000000000117d6c       0x50 binaries/meminit.o
                                         0x68 (size before relaxing)
 .eh_frame      0x0000000000117dbc       0x30 binaries/mkbufpool.o
                                         0x48 (size before relaxing)
 .eh_frame      0x0000000000117dec       0x30 binaries/mltfbq_insert.o
                                         0x48 (size before relaxing)
 .eh_frame      0x0000000000117e1c       0x48 binaries/multilevelfbq.o
                                         0x60 (size before relaxing)
 .eh_frame      0x0000000000117e64       0x28 binaries/myappA.o
                                         0x40 (size before relaxing)
 .eh_frame      0x0000000000117e8c       0x28 binaries/myfuncA.o
                                         0x40 (size before relaxing)
 .eh_frame      0x0000000000117eb4       0x44 binaries/myhacker.o
                                         0x5c (size before relaxing)
 .eh_frame      0x0000000000117ef8       0x64 binaries/myvictim.o
                                         0x7c (size before relaxing)
 .eh_frame      0x0000000000117f5c       0x20 binaries/mywelcomemsg.o
                                         0x38 (size before relaxing)
 .eh_frame      0x0000000000117f7c       0x20 binaries/newqueue.o
                                         0x38 (size before relaxing)
 .eh_frame      0x0000000000117f9c       0x28 binaries/open.o
                                         0x40 (size before relaxing)
 .eh_frame      0x0000000000117fc4       0x1c binaries/panic.o
                                         0x34 (size before relaxing)
 .eh_frame      0x0000000000117fe0      0x12c binaries/pci.o
                                        0x144 (size before relaxing)
 .eh_frame      0x000000000011810c       0x20 binaries/platinit.o
                                         0x38 (size before relaxing)
 .eh_frame      0x000000000011812c       0x2c binaries/printprstate.o
                                         0x44 (size before relaxing)
 .eh_frame      0x0000000000118158       0x24 binaries/prntsegaddr.o
                                         0x3c (size before relaxing)
 .eh_frame      0x000000000011817c       0x2c binaries/ptclear.o
                                         0x44 (size before relaxing)
 .eh_frame      0x00000000001181a8       0x2c binaries/ptcount.o
                                         0x44 (size before relaxing)
 .eh_frame      0x00000000001181d4       0x2c binaries/ptcreate.o
                                         0x44 (size before relaxing)
 .eh_frame      0x0000000000118200       0x28 binaries/ptdelete.o
                                         0x40 (size before relaxing)
 .eh_frame      0x0000000000118228       0x28 binaries/ptinit.o
                                         0x40 (size before relaxing)
 .eh_frame      0x0000000000118250       0x2c binaries/ptrecv.o
                                         0x44 (size before relaxing)
 .eh_frame      0x000000000011827c       0x28 binaries/ptreset.o
                                         0x40 (size before relaxing)
 .eh_frame      0x00000000001182a4       0x30 binaries/ptsend.o
                                         0x48 (size before relaxing)
 .eh_frame      0x00000000001182d4       0x2c binaries/putc.o
                                         0x44 (size before relaxing)
 .eh_frame      0x0000000000118300       0x24 binaries/quark_irq.o
                                         0x3c (size before relaxing)
 .eh_frame      0x0000000000118324       0x54 binaries/quark_pdat.o
                                         0x6c (size before relaxing)
 .eh_frame      0x0000000000118378       0x40 binaries/queue.o
                                         0x58 (size before relaxing)
 .eh_frame      0x00000000001183b8       0x28 binaries/read.o
                                         0x40 (size before relaxing)
 .eh_frame      0x00000000001183e0       0x20 binaries/ready.o
                                         0x38 (size before relaxing)
 .eh_frame      0x0000000000118400       0x30 binaries/receive.o
                                         0x48 (size before relaxing)
 .eh_frame      0x0000000000118430       0x1c binaries/receiveex.o
                                         0x34 (size before relaxing)
 .eh_frame      0x000000000011844c       0x78 binaries/receiverq.o
                                         0x90 (size before relaxing)
 .eh_frame      0x00000000001184c4       0xcc binaries/recv_func.o
                                         0xe4 (size before relaxing)
 .eh_frame      0x0000000000118590       0x24 binaries/recvclr.o
                                         0x3c (size before relaxing)
 .eh_frame      0x00000000001185b4       0x20 binaries/recvhandler.o
                                         0x38 (size before relaxing)
 .eh_frame      0x00000000001185d4       0x2c binaries/recvtime.o
                                         0x44 (size before relaxing)
 .eh_frame      0x0000000000118600       0x28 binaries/registercb.o
                                         0x40 (size before relaxing)
 .eh_frame      0x0000000000118628       0x2c binaries/registercbsig.o
                                         0x44 (size before relaxing)
 .eh_frame      0x0000000000118654       0x50 binaries/resched.o
                                         0x68 (size before relaxing)
 .eh_frame      0x00000000001186a4       0x2c binaries/resume.o
                                         0x44 (size before relaxing)
 .eh_frame      0x00000000001186d0       0x28 binaries/seek.o
                                         0x40 (size before relaxing)
 .eh_frame      0x00000000001186f8       0x24 binaries/semcount.o
                                         0x3c (size before relaxing)
 .eh_frame      0x000000000011871c       0x2c binaries/semcreate.o
                                         0x44 (size before relaxing)
 .eh_frame      0x0000000000118748       0x2c binaries/semdelete.o
                                         0x44 (size before relaxing)
 .eh_frame      0x0000000000118774       0x2c binaries/semreset.o
                                         0x44 (size before relaxing)
 .eh_frame      0x00000000001187a0       0x30 binaries/senbt.o
                                         0x48 (size before relaxing)
 .eh_frame      0x00000000001187d0       0x28 binaries/send.o
                                         0x40 (size before relaxing)
 .eh_frame      0x00000000001187f8       0x50 binaries/send_func.o
                                         0x68 (size before relaxing)
 .eh_frame      0x0000000000118848       0x48 binaries/sendex.o
                                         0x60 (size before relaxing)
 .eh_frame      0x0000000000118890       0x28 binaries/signal.o
                                         0x40 (size before relaxing)
 .eh_frame      0x00000000001188b8       0x2c binaries/signaln.o
                                         0x44 (size before relaxing)
 .eh_frame      0x00000000001188e4       0x48 binaries/sleep.o
                                         0x60 (size before relaxing)
 .eh_frame      0x000000000011892c       0x2c binaries/stackdepth.o
                                         0x44 (size before relaxing)
 .eh_frame      0x0000000000118958       0x30 binaries/stacktrace.o
                                         0x48 (size before relaxing)
 .eh_frame      0x0000000000118988       0x28 binaries/suspend.o
                                         0x40 (size before relaxing)
 .eh_frame      0x00000000001189b0       0x28 binaries/unsleep.o
                                         0x40 (size before relaxing)
 .eh_frame      0x00000000001189d8       0x20 binaries/userret.o
                                         0x38 (size before relaxing)
 .eh_frame      0x00000000001189f8       0x28 binaries/wait.o
                                         0x40 (size before relaxing)
 .eh_frame      0x0000000000118a20       0x20 binaries/wakeup.o
                                         0x38 (size before relaxing)
 .eh_frame      0x0000000000118a40       0x28 binaries/write.o
                                         0x40 (size before relaxing)
 .eh_frame      0x0000000000118a68       0x20 binaries/xdone.o
                                         0x38 (size before relaxing)
 .eh_frame      0x0000000000118a88       0x24 binaries/yield.o
                                         0x3c (size before relaxing)
 .eh_frame      0x0000000000118aac       0x20 binaries/abs.o
                                         0x38 (size before relaxing)
 .eh_frame      0x0000000000118acc       0x28 binaries/atoi.o
                                         0x40 (size before relaxing)
 .eh_frame      0x0000000000118af4       0x28 binaries/atol.o
                                         0x40 (size before relaxing)
 .eh_frame      0x0000000000118b1c       0x20 binaries/bzero.o
                                         0x38 (size before relaxing)
 .eh_frame      0x0000000000118b3c       0xac binaries/doprnt.o
                                         0xc4 (size before relaxing)
 .eh_frame      0x0000000000118be8       0x30 binaries/doscan.o
                                         0x48 (size before relaxing)
 .eh_frame      0x0000000000118c18       0x5c binaries/fdoprnt.o
                                         0x74 (size before relaxing)
 .eh_frame      0x0000000000118c74       0x20 binaries/fgetc.o
                                         0x38 (size before relaxing)
 .eh_frame      0x0000000000118c94       0x2c binaries/fgets.o
                                         0x44 (size before relaxing)
 .eh_frame      0x0000000000118cc0       0x20 binaries/fprintf.o
                                         0x38 (size before relaxing)
 .eh_frame      0x0000000000118ce0       0x20 binaries/fputc.o
                                         0x38 (size before relaxing)
 .eh_frame      0x0000000000118d00       0x28 binaries/fputs.o
                                         0x40 (size before relaxing)
 .eh_frame      0x0000000000118d28       0x64 binaries/fscanf.o
                                         0x7c (size before relaxing)
 .eh_frame      0x0000000000118d8c       0x20 binaries/getchar.o
                                         0x38 (size before relaxing)
 .eh_frame      0x0000000000118dac       0x20 binaries/labs.o
                                         0x38 (size before relaxing)
 .eh_frame      0x0000000000118dcc       0x20 binaries/memchr.o
                                         0x38 (size before relaxing)
 .eh_frame      0x0000000000118dec       0x28 binaries/memcmp.o
                                         0x40 (size before relaxing)
 .eh_frame      0x0000000000118e14       0x28 binaries/memcpy.o
                                         0x40 (size before relaxing)
 .eh_frame      0x0000000000118e3c       0x24 binaries/memset.o
                                         0x3c (size before relaxing)
 .eh_frame      0x0000000000118e60       0x20 binaries/printf.o
                                         0x38 (size before relaxing)
 .eh_frame      0x0000000000118e80       0x20 binaries/putchar.o
                                         0x38 (size before relaxing)
 .eh_frame      0x0000000000118ea0       0xa4 binaries/qsort.o
                                         0xbc (size before relaxing)
 .eh_frame      0x0000000000118f44       0x40 binaries/rand.o
                                         0x58 (size before relaxing)
 .eh_frame      0x0000000000118f84       0x48 binaries/sprintf.o
                                         0x60 (size before relaxing)
 .eh_frame      0x0000000000118fcc       0x60 binaries/sscanf.o
                                         0x78 (size before relaxing)
 .eh_frame      0x000000000011902c       0x24 binaries/strchr.o
                                         0x3c (size before relaxing)
 .eh_frame      0x0000000000119050       0x24 binaries/strcmp.o
                                         0x3c (size before relaxing)
 .eh_frame      0x0000000000119074       0x20 binaries/strcpy.o
                                         0x38 (size before relaxing)
 .eh_frame      0x0000000000119094       0x20 binaries/strlen.o
                                         0x38 (size before relaxing)
 .eh_frame      0x00000000001190b4       0x2c binaries/strncat.o
                                         0x44 (size before relaxing)
 .eh_frame      0x00000000001190e0       0x24 binaries/strncmp.o
                                         0x3c (size before relaxing)
 .eh_frame      0x0000000000119104       0x2c binaries/strncpy.o
                                         0x44 (size before relaxing)
 .eh_frame      0x0000000000119130       0x24 binaries/strnlen.o
                                         0x3c (size before relaxing)
 .eh_frame      0x0000000000119154       0x24 binaries/strrchr.o
                                         0x3c (size before relaxing)
 .eh_frame      0x0000000000119178       0x2c binaries/strstr.o
                                         0x44 (size before relaxing)
 .eh_frame      0x00000000001191a4       0x30 binaries/ttycontrol.o
                                         0x48 (size before relaxing)
 .eh_frame      0x00000000001191d4       0x2c binaries/ttygetc.o
                                         0x44 (size before relaxing)
 .eh_frame      0x0000000000119200       0x84 binaries/ttyhandle_in.o
                                         0x9c (size before relaxing)
 .eh_frame      0x0000000000119284       0x30 binaries/ttyhandle_out.o
                                         0x48 (size before relaxing)
 .eh_frame      0x00000000001192b4       0x28 binaries/ttyhandler.o
                                         0x40 (size before relaxing)
 .eh_frame      0x00000000001192dc       0x30 binaries/ttyinit.o
                                         0x48 (size before relaxing)
 .eh_frame      0x000000000011930c       0x20 binaries/ttykickout.o
                                         0x38 (size before relaxing)
 .eh_frame      0x000000000011932c       0x2c binaries/ttyputc.o
                                         0x44 (size before relaxing)
 .eh_frame      0x0000000000119358       0x2c binaries/ttyread.o
                                         0x44 (size before relaxing)
 .eh_frame      0x0000000000119384       0x2c binaries/ttywrite.o
                                         0x44 (size before relaxing)
 .eh_frame      0x00000000001193b0       0x4c binaries/mount.o
                                         0x64 (size before relaxing)
 .eh_frame      0x00000000001193fc       0x30 binaries/naminit.o
                                         0x48 (size before relaxing)
 .eh_frame      0x000000000011942c       0x84 binaries/nammap.o
                                         0x9c (size before relaxing)
 .eh_frame      0x00000000001194b0       0x20 binaries/namopen.o
                                         0x38 (size before relaxing)
 .eh_frame      0x00000000001194d0       0x2c binaries/colon2mac.o
                                         0x44 (size before relaxing)
 .eh_frame      0x00000000001194fc       0x20 binaries/ethcontrol.o
                                         0x38 (size before relaxing)
 .eh_frame      0x000000000011951c       0x30 binaries/ethhandler.o
                                         0x48 (size before relaxing)
 .eh_frame      0x000000000011954c       0x98 binaries/ethinit.o
                                         0xb0 (size before relaxing)
 .eh_frame      0x00000000001195e4       0x54 binaries/ethmcast.o
                                         0x6c (size before relaxing)
 .eh_frame      0x0000000000119638       0x30 binaries/ethread.o
                                         0x48 (size before relaxing)
 .eh_frame      0x0000000000119668       0x2c binaries/ethwrite.o
                                         0x44 (size before relaxing)
 .eh_frame      0x0000000000119694       0x24 binaries/rdsbufalloc.o
                                         0x3c (size before relaxing)
 .eh_frame      0x00000000001196b8       0x2c binaries/rdsclose.o
                                         0x44 (size before relaxing)
 .eh_frame      0x00000000001196e4       0x30 binaries/rdscomm.o
                                         0x48 (size before relaxing)
 .eh_frame      0x0000000000119714       0x30 binaries/rdscontrol.o
                                         0x48 (size before relaxing)
 .eh_frame      0x0000000000119744       0x30 binaries/rdsinit.o
                                         0x48 (size before relaxing)
 .eh_frame      0x0000000000119774       0x30 binaries/rdsopen.o
                                         0x48 (size before relaxing)
 .eh_frame      0x00000000001197a4       0x20 binaries/rdsprocess.o
                                         0x38 (size before relaxing)
 .eh_frame      0x00000000001197c4       0x30 binaries/rdsread.o
                                         0x48 (size before relaxing)
 .eh_frame      0x00000000001197f4       0x30 binaries/rdswrite.o
                                         0x48 (size before relaxing)
 .eh_frame      0x0000000000119824       0x20 binaries/ramclose.o
                                         0x38 (size before relaxing)
 .eh_frame      0x0000000000119844       0x20 binaries/raminit.o
                                         0x38 (size before relaxing)
 .eh_frame      0x0000000000119864       0x20 binaries/ramopen.o
                                         0x38 (size before relaxing)
 .eh_frame      0x0000000000119884       0x20 binaries/ramread.o
                                         0x38 (size before relaxing)
 .eh_frame      0x00000000001198a4       0x20 binaries/ramwrite.o
                                         0x38 (size before relaxing)
 .eh_frame      0x00000000001198c4       0x28 binaries/lfdballoc.o
                                         0x40 (size before relaxing)
 .eh_frame      0x00000000001198ec       0x24 binaries/lfdbfree.o
                                         0x3c (size before relaxing)
 .eh_frame      0x0000000000119910       0x24 binaries/lfflush.o
                                         0x3c (size before relaxing)
 .eh_frame      0x0000000000119934       0x20 binaries/lfgetmode.o
                                         0x38 (size before relaxing)
 .eh_frame      0x0000000000119954       0x24 binaries/lfiballoc.o
                                         0x3c (size before relaxing)
 .eh_frame      0x0000000000119978       0x20 binaries/lfibclear.o
                                         0x38 (size before relaxing)
 .eh_frame      0x0000000000119998       0x2c binaries/lfibget.o
                                         0x44 (size before relaxing)
 .eh_frame      0x00000000001199c4       0x2c binaries/lfibput.o
                                         0x44 (size before relaxing)
 .eh_frame      0x00000000001199f0       0x28 binaries/lflclose.o
                                         0x40 (size before relaxing)
 .eh_frame      0x0000000000119a18       0x2c binaries/lflcontrol.o
                                         0x44 (size before relaxing)
 .eh_frame      0x0000000000119a44       0x2c binaries/lflgetc.o
                                         0x44 (size before relaxing)
 .eh_frame      0x0000000000119a70       0x2c binaries/lflinit.o
                                         0x44 (size before relaxing)
 .eh_frame      0x0000000000119a9c       0x30 binaries/lflputc.o
                                         0x48 (size before relaxing)
 .eh_frame      0x0000000000119acc       0x2c binaries/lflread.o
                                         0x44 (size before relaxing)
 .eh_frame      0x0000000000119af8       0x2c binaries/lflseek.o
                                         0x44 (size before relaxing)
 .eh_frame      0x0000000000119b24       0x2c binaries/lflwrite.o
                                         0x44 (size before relaxing)
 .eh_frame      0x0000000000119b50       0x30 binaries/lfsckfmt.o
                                         0x48 (size before relaxing)
 .eh_frame      0x0000000000119b80       0x30 binaries/lfscreate.o
                                         0x48 (size before relaxing)
 .eh_frame      0x0000000000119bb0       0x30 binaries/lfsetup.o
                                         0x48 (size before relaxing)
 .eh_frame      0x0000000000119be0       0x20 binaries/lfsinit.o
                                         0x38 (size before relaxing)
 .eh_frame      0x0000000000119c00       0x30 binaries/lfsopen.o
                                         0x48 (size before relaxing)
 .eh_frame      0x0000000000119c30       0x30 binaries/lftruncate.o
                                         0x48 (size before relaxing)
 .eh_frame      0x0000000000119c60       0x20 binaries/rflclose.o
                                         0x38 (size before relaxing)
 .eh_frame      0x0000000000119c80       0x20 binaries/rflgetc.o
                                         0x38 (size before relaxing)
 .eh_frame      0x0000000000119ca0       0x24 binaries/rflinit.o
                                         0x3c (size before relaxing)
 .eh_frame      0x0000000000119cc4       0x20 binaries/rflputc.o
                                         0x38 (size before relaxing)
 .eh_frame      0x0000000000119ce4       0x30 binaries/rflread.o
                                         0x48 (size before relaxing)
 .eh_frame      0x0000000000119d14       0x20 binaries/rflseek.o
                                         0x38 (size before relaxing)
 .eh_frame      0x0000000000119d34       0x30 binaries/rflwrite.o
                                         0x48 (size before relaxing)
 .eh_frame      0x0000000000119d64       0x30 binaries/rfscomm.o
                                         0x48 (size before relaxing)
 .eh_frame      0x0000000000119d94       0x2c binaries/rfscontrol.o
                                         0x44 (size before relaxing)
 .eh_frame      0x0000000000119dc0       0x20 binaries/rfsgetmode.o
                                         0x38 (size before relaxing)
 .eh_frame      0x0000000000119de0       0x20 binaries/rfsinit.o
                                         0x38 (size before relaxing)
 .eh_frame      0x0000000000119e00       0x20 binaries/rfsndmsg.o
                                         0x38 (size before relaxing)
 .eh_frame      0x0000000000119e20       0x2c binaries/rfsopen.o
                                         0x44 (size before relaxing)
 .eh_frame      0x0000000000119e4c       0xec binaries/arp.o
                                        0x104 (size before relaxing)
 .eh_frame      0x0000000000119f38       0xd0 binaries/dhcp.o
                                         0xe8 (size before relaxing)
 .eh_frame      0x000000000011a008       0x2c binaries/dot2ip.o
                                         0x44 (size before relaxing)
 .eh_frame      0x000000000011a034       0x60 binaries/hexdump.o
                                         0x78 (size before relaxing)
 .eh_frame      0x000000000011a094      0x198 binaries/icmp.o
                                        0x1b0 (size before relaxing)
 .eh_frame      0x000000000011a22c      0x148 binaries/ip.o
                                        0x160 (size before relaxing)
 .eh_frame      0x000000000011a374       0x7c binaries/net.o
                                         0x94 (size before relaxing)
 .eh_frame      0x000000000011a3f0       0x24 binaries/netstart.o
                                         0x3c (size before relaxing)
 .eh_frame      0x000000000011a414       0x50 binaries/pdump.o
                                         0x68 (size before relaxing)
 .eh_frame      0x000000000011a464       0x80 binaries/tftp.o
                                         0x98 (size before relaxing)
 .eh_frame      0x000000000011a4e4      0x1b0 binaries/udp.o
                                        0x1c8 (size before relaxing)
 .eh_frame      0x000000000011a694       0x30 binaries/addargs.o
                                         0x48 (size before relaxing)
 .eh_frame      0x000000000011a6c4       0x30 binaries/lexan.o
                                         0x48 (size before relaxing)
 .eh_frame      0x000000000011a6f4       0x30 binaries/shell.o
                                         0x48 (size before relaxing)
 .eh_frame      0x000000000011a724       0x2c binaries/xsh_argecho.o
                                         0x44 (size before relaxing)
 .eh_frame      0x000000000011a750       0x30 binaries/xsh_arp.o
                                         0x48 (size before relaxing)
 .eh_frame      0x000000000011a780       0x30 binaries/xsh_cat.o
                                         0x48 (size before relaxing)
 .eh_frame      0x000000000011a7b0       0x20 binaries/xsh_clear.o
                                         0x38 (size before relaxing)
 .eh_frame      0x000000000011a7d0       0x24 binaries/xsh_date.o
                                         0x3c (size before relaxing)
 .eh_frame      0x000000000011a7f4       0x28 binaries/xsh_devdump.o
                                         0x40 (size before relaxing)
 .eh_frame      0x000000000011a81c       0x2c binaries/xsh_echo.o
                                         0x44 (size before relaxing)
 .eh_frame      0x000000000011a848       0x20 binaries/xsh_exit.o
                                         0x38 (size before relaxing)
 .eh_frame      0x000000000011a868       0x30 binaries/xsh_help.o
                                         0x48 (size before relaxing)
 .eh_frame      0x000000000011a898       0x2c binaries/xsh_ipaddr.o
                                         0x44 (size before relaxing)
 .eh_frame      0x000000000011a8c4       0x2c binaries/xsh_kill.o
                                         0x44 (size before relaxing)
 .eh_frame      0x000000000011a8f0       0x58 binaries/xsh_memdump.o
                                         0x70 (size before relaxing)
 .eh_frame      0x000000000011a948       0x30 binaries/xsh_memstat.o
                                         0x48 (size before relaxing)
 .eh_frame      0x000000000011a978       0x30 binaries/xsh_ping.o
                                         0x48 (size before relaxing)
 .eh_frame      0x000000000011a9a8       0x30 binaries/xsh_ps.o
                                         0x48 (size before relaxing)
 .eh_frame      0x000000000011a9d8       0x30 binaries/xsh_sleep.o
                                         0x48 (size before relaxing)
 .eh_frame      0x000000000011aa08       0x2c binaries/xsh_udpdump.o
                                         0x44 (size before relaxing)
 .eh_frame      0x000000000011aa34       0x30 binaries/xsh_udpecho.o
                                         0x48 (size before relaxing)
 .eh_frame      0x000000000011aa64       0x30 binaries/xsh_udpeserver.o
                                         0x48 (size before relaxing)
 .eh_frame      0x000000000011aa94       0x30 binaries/xsh_uptime.o
                                         0x48 (size before relaxing)
 .eh_frame      0x000000000011aac4       0x20 binaries/host2netlc.o
                                         0x38 (size before relaxing)

.iplt           0x000000000011aaf0        0x0
 .iplt          0x000000000011aaf0        0x0 binaries/start.o

.rel.dyn        0x000000000011aae4        0x0
 .rel.iplt      0x000000000011aae4        0x0 binaries/start.o
 .rel.text      0x000000000011aae4        0x0 binaries/start.o
 .rel.data      0x000000000011aae4        0x0 binaries/start.o
 .rel.rodata    0x000000000011aae4        0x0 binaries/start.o

.data           0x000000000011ab00     0x1500
                0x000000000011ab00                data = ABSOLUTE (.)
 *(.data .data.*)
 .data          0x000000000011ab00      0x85a binaries/start.o
                0x000000000011ab00                gdt
                0x000000000011ab50                idt
                0x000000000011b356                cpudelay
 .data          0x000000000011b35a        0x0 binaries/alarmms.o
 .data          0x000000000011b35a        0x0 binaries/alrm_getitem.o
 .data          0x000000000011b35a        0x0 binaries/alrm_insertd.o
 .data          0x000000000011b35a        0x2 binaries/alrm_queue.o
 .data          0x000000000011b35c        0x0 binaries/alrm_wakeup.o
 .data          0x000000000011b35c        0x0 binaries/app1.o
 .data          0x000000000011b35c        0x0 binaries/app2.o
 .data          0x000000000011b35c        0x0 binaries/app3.o
 .data          0x000000000011b35c        0x0 binaries/app_lim.o
 .data          0x000000000011b35c        0x0 binaries/app_unlim.o
 *fill*         0x000000000011b35c        0x4 
 .data          0x000000000011b360       0x88 binaries/ascdate.o
                0x000000000011b360                Date
 .data          0x000000000011b3e8        0x0 binaries/bufinit.o
 .data          0x000000000011b3e8        0x0 binaries/chprio.o
 .data          0x000000000011b3e8        0x4 binaries/clkhandler.o
 .data          0x000000000011b3ec        0x0 binaries/clkinit.o
 .data          0x000000000011b3ec        0x0 binaries/close.o
 *fill*         0x000000000011b3ec       0x14 
 .data          0x000000000011b400      0x30c binaries/conf.o
                0x000000000011b400                devtab
 .data          0x000000000011b70c        0x0 binaries/control.o
 .data          0x000000000011b70c        0x0 binaries/cpubound.o
 .data          0x000000000011b70c        0x4 binaries/create.o
 .data          0x000000000011b710        0x0 binaries/early_imr.o
 *fill*         0x000000000011b710       0x10 
 .data          0x000000000011b720       0x40 binaries/evec.o
                0x000000000011b720                inames
 .data          0x000000000011b760        0x0 binaries/f1.o
 .data          0x000000000011b760        0x0 binaries/freebuf.o
 .data          0x000000000011b760        0x0 binaries/freemem.o
 .data          0x000000000011b760        0x0 binaries/getbuf.o
 .data          0x000000000011b760        0x0 binaries/getc.o
 .data          0x000000000011b760        0x0 binaries/getdev.o
 .data          0x000000000011b760        0x0 binaries/getitem.o
 .data          0x000000000011b760        0x0 binaries/getmem.o
 .data          0x000000000011b760        0x0 binaries/getpid.o
 .data          0x000000000011b760        0x0 binaries/getppid.o
 .data          0x000000000011b760        0x0 binaries/getprio.o
 .data          0x000000000011b760        0x0 binaries/getstk.o
 .data          0x000000000011b760        0x0 binaries/gettime.o
 .data          0x000000000011b760        0x0 binaries/getutime.o
 .data          0x000000000011b760        0x0 binaries/host2netlb.o
 .data          0x000000000011b760        0x0 binaries/init.o
 .data          0x000000000011b760        0x0 binaries/initialize.o
 .data          0x000000000011b760        0x0 binaries/insert.o
 .data          0x000000000011b760        0x0 binaries/insertd.o
 .data          0x000000000011b760        0x0 binaries/iobound.o
 .data          0x000000000011b760        0x0 binaries/ioerr.o
 .data          0x000000000011b760        0x0 binaries/ionull.o
 .data          0x000000000011b760        0x0 binaries/kill.o
 .data          0x000000000011b760        0x0 binaries/kprintf.o
 .data          0x000000000011b760        0x0 binaries/lab2q3.o
 .data          0x000000000011b760        0x0 binaries/lab2q4.o
 .data          0x000000000011b760        0x0 binaries/lab2q5.o
 .data          0x000000000011b760        0x0 binaries/lab3q3.o
 .data          0x000000000011b760        0x0 binaries/lab3q4.o
 .data          0x000000000011b760        0x4 binaries/main.o
                0x000000000011b760                lab2flag
 .data          0x000000000011b764        0x0 binaries/mark.o
 *fill*         0x000000000011b764       0x1c 
 .data          0x000000000011b780       0x48 binaries/meminit.o
                0x000000000011b780                gdt_copy
                0x000000000011b7c0                bootinfo
                0x000000000011b7c4                bootsign
 .data          0x000000000011b7c8        0x0 binaries/mkbufpool.o
 .data          0x000000000011b7c8        0x0 binaries/mltfbq_insert.o
 .data          0x000000000011b7c8        0x0 binaries/multilevelfbq.o
 .data          0x000000000011b7c8        0x0 binaries/myappA.o
 .data          0x000000000011b7c8        0x0 binaries/myfuncA.o
 .data          0x000000000011b7c8        0x0 binaries/myhacker.o
 .data          0x000000000011b7c8        0x0 binaries/myvictim.o
 .data          0x000000000011b7c8        0x0 binaries/mywelcomemsg.o
 .data          0x000000000011b7c8        0x2 binaries/newqueue.o
 .data          0x000000000011b7ca        0x0 binaries/open.o
 .data          0x000000000011b7ca        0x0 binaries/panic.o
 .data          0x000000000011b7ca        0x0 binaries/pci.o
 .data          0x000000000011b7ca        0x0 binaries/platinit.o
 .data          0x000000000011b7ca        0x0 binaries/printprstate.o
 .data          0x000000000011b7ca        0x0 binaries/prntsegaddr.o
 .data          0x000000000011b7ca        0x0 binaries/ptclear.o
 .data          0x000000000011b7ca        0x0 binaries/ptcount.o
 .data          0x000000000011b7ca        0x0 binaries/ptcreate.o
 .data          0x000000000011b7ca        0x0 binaries/ptdelete.o
 .data          0x000000000011b7ca        0x0 binaries/ptinit.o
 .data          0x000000000011b7ca        0x0 binaries/ptrecv.o
 .data          0x000000000011b7ca        0x0 binaries/ptreset.o
 .data          0x000000000011b7ca        0x0 binaries/ptsend.o
 .data          0x000000000011b7ca        0x0 binaries/putc.o
 .data          0x000000000011b7ca        0x0 binaries/quark_irq.o
 .data          0x000000000011b7ca        0x0 binaries/quark_pdat.o
 .data          0x000000000011b7ca        0x0 binaries/queue.o
 .data          0x000000000011b7ca        0x0 binaries/read.o
 .data          0x000000000011b7ca        0x0 binaries/ready.o
 .data          0x000000000011b7ca        0x0 binaries/receive.o
 .data          0x000000000011b7ca        0x0 binaries/receiveex.o
 .data          0x000000000011b7ca        0x0 binaries/receiverq.o
 .data          0x000000000011b7ca        0x0 binaries/recv_func.o
 .data          0x000000000011b7ca        0x0 binaries/recvclr.o
 .data          0x000000000011b7ca        0x0 binaries/recvhandler.o
 .data          0x000000000011b7ca        0x0 binaries/recvtime.o
 .data          0x000000000011b7ca        0x0 binaries/registercb.o
 .data          0x000000000011b7ca        0x0 binaries/registercbsig.o
 .data          0x000000000011b7ca        0x0 binaries/resched.o
 .data          0x000000000011b7ca        0x0 binaries/resume.o
 .data          0x000000000011b7ca        0x0 binaries/seek.o
 .data          0x000000000011b7ca        0x0 binaries/semcount.o
 .data          0x000000000011b7ca        0x0 binaries/semcreate.o
 .data          0x000000000011b7ca        0x0 binaries/semdelete.o
 .data          0x000000000011b7ca        0x0 binaries/semreset.o
 .data          0x000000000011b7ca        0x0 binaries/senbt.o
 .data          0x000000000011b7ca        0x0 binaries/send.o
 .data          0x000000000011b7ca        0x0 binaries/send_func.o
 .data          0x000000000011b7ca        0x0 binaries/sendex.o
 .data          0x000000000011b7ca        0x0 binaries/signal.o
 .data          0x000000000011b7ca        0x0 binaries/signaln.o
 .data          0x000000000011b7ca        0x0 binaries/sleep.o
 .data          0x000000000011b7ca        0x0 binaries/stackdepth.o
 .data          0x000000000011b7ca        0x0 binaries/stacktrace.o
 .data          0x000000000011b7ca        0x0 binaries/suspend.o
 *fill*         0x000000000011b7ca       0x16 
 .data          0x000000000011b7e0       0xf0 binaries/tsdtab.o
                0x000000000011b7e0                tsdtab
 .data          0x000000000011b8d0        0x0 binaries/unsleep.o
 .data          0x000000000011b8d0        0x0 binaries/userret.o
 .data          0x000000000011b8d0        0x0 binaries/wait.o
 .data          0x000000000011b8d0        0x0 binaries/wakeup.o
 .data          0x000000000011b8d0        0x0 binaries/write.o
 .data          0x000000000011b8d0        0x0 binaries/xdone.o
 .data          0x000000000011b8d0        0x0 binaries/yield.o
 .data          0x000000000011b8d0        0x0 binaries/abs.o
 .data          0x000000000011b8d0        0x0 binaries/atoi.o
 .data          0x000000000011b8d0        0x0 binaries/atol.o
 .data          0x000000000011b8d0        0x0 binaries/bzero.o
 .data          0x000000000011b8d0        0x0 binaries/ctype_.o
 .data          0x000000000011b8d0        0x0 binaries/doprnt.o
 *fill*         0x000000000011b8d0       0x10 
 .data          0x000000000011b8e0       0x80 binaries/doscan.o
                0x000000000011b8e0                _sctab
 .data          0x000000000011b960        0x0 binaries/fdoprnt.o
 .data          0x000000000011b960        0x0 binaries/fgetc.o
 .data          0x000000000011b960        0x0 binaries/fgets.o
 .data          0x000000000011b960        0x0 binaries/fprintf.o
 .data          0x000000000011b960        0x0 binaries/fputc.o
 .data          0x000000000011b960        0x0 binaries/fputs.o
 .data          0x000000000011b960        0x0 binaries/fscanf.o
 .data          0x000000000011b960        0x0 binaries/getchar.o
 .data          0x000000000011b960        0x0 binaries/labs.o
 .data          0x000000000011b960        0x0 binaries/memchr.o
 .data          0x000000000011b960        0x0 binaries/memcmp.o
 .data          0x000000000011b960        0x0 binaries/memcpy.o
 .data          0x000000000011b960        0x0 binaries/memset.o
 .data          0x000000000011b960        0x0 binaries/printf.o
 .data          0x000000000011b960        0x0 binaries/putchar.o
 .data          0x000000000011b960        0x0 binaries/qsort.o
 .data          0x000000000011b960        0x4 binaries/rand.o
 .data          0x000000000011b964        0x0 binaries/sprintf.o
 .data          0x000000000011b964        0x0 binaries/sscanf.o
 .data          0x000000000011b964        0x0 binaries/strchr.o
 .data          0x000000000011b964        0x0 binaries/strcmp.o
 .data          0x000000000011b964        0x0 binaries/strcpy.o
 .data          0x000000000011b964        0x0 binaries/strlen.o
 .data          0x000000000011b964        0x0 binaries/strncat.o
 .data          0x000000000011b964        0x0 binaries/strncmp.o
 .data          0x000000000011b964        0x0 binaries/strncpy.o
 .data          0x000000000011b964        0x0 binaries/strnlen.o
 .data          0x000000000011b964        0x0 binaries/strrchr.o
 .data          0x000000000011b964        0x0 binaries/strstr.o
 .data          0x000000000011b964        0x0 binaries/ttycontrol.o
 .data          0x000000000011b964        0x0 binaries/ttygetc.o
 .data          0x000000000011b964        0x0 binaries/ttyhandle_in.o
 .data          0x000000000011b964        0x0 binaries/ttyhandle_out.o
 .data          0x000000000011b964        0x0 binaries/ttyhandler.o
 .data          0x000000000011b964        0x0 binaries/ttyinit.o
 .data          0x000000000011b964        0x0 binaries/ttykickout.o
 .data          0x000000000011b964        0x0 binaries/ttyputc.o
 .data          0x000000000011b964        0x0 binaries/ttyread.o
 .data          0x000000000011b964        0x0 binaries/ttywrite.o
 .data          0x000000000011b964        0x0 binaries/mount.o
 .data          0x000000000011b964        0x0 binaries/naminit.o
 .data          0x000000000011b964        0x0 binaries/nammap.o
 .data          0x000000000011b964        0x0 binaries/namopen.o
 .data          0x000000000011b964        0x0 binaries/colon2mac.o
 .data          0x000000000011b964        0x0 binaries/ethcontrol.o
 .data          0x000000000011b964        0x0 binaries/ethhandler.o
 .data          0x000000000011b964        0x0 binaries/ethinit.o
 .data          0x000000000011b964        0x0 binaries/ethmcast.o
 .data          0x000000000011b964        0x0 binaries/ethread.o
 .data          0x000000000011b964        0x0 binaries/ethwrite.o
 .data          0x000000000011b964        0x0 binaries/rdsbufalloc.o
 .data          0x000000000011b964        0x0 binaries/rdsclose.o
 .data          0x000000000011b964        0x0 binaries/rdscomm.o
 .data          0x000000000011b964        0x0 binaries/rdscontrol.o
 .data          0x000000000011b964        0x0 binaries/rdsinit.o
 .data          0x000000000011b964        0x0 binaries/rdsopen.o
 .data          0x000000000011b964        0x0 binaries/rdsprocess.o
 .data          0x000000000011b964        0x0 binaries/rdsread.o
 .data          0x000000000011b964        0x0 binaries/rdswrite.o
 .data          0x000000000011b964        0x0 binaries/ramclose.o
 .data          0x000000000011b964        0x0 binaries/raminit.o
 .data          0x000000000011b964        0x0 binaries/ramopen.o
 .data          0x000000000011b964        0x0 binaries/ramread.o
 .data          0x000000000011b964        0x0 binaries/ramwrite.o
 .data          0x000000000011b964        0x0 binaries/lfdballoc.o
 .data          0x000000000011b964        0x0 binaries/lfdbfree.o
 .data          0x000000000011b964        0x0 binaries/lfflush.o
 .data          0x000000000011b964        0x0 binaries/lfgetmode.o
 .data          0x000000000011b964        0x0 binaries/lfiballoc.o
 .data          0x000000000011b964        0x0 binaries/lfibclear.o
 .data          0x000000000011b964        0x0 binaries/lfibget.o
 .data          0x000000000011b964        0x0 binaries/lfibput.o
 .data          0x000000000011b964        0x0 binaries/lflclose.o
 .data          0x000000000011b964        0x0 binaries/lflcontrol.o
 .data          0x000000000011b964        0x0 binaries/lflgetc.o
 .data          0x000000000011b964        0x0 binaries/lflinit.o
 .data          0x000000000011b964        0x0 binaries/lflputc.o
 .data          0x000000000011b964        0x0 binaries/lflread.o
 .data          0x000000000011b964        0x0 binaries/lflseek.o
 .data          0x000000000011b964        0x0 binaries/lflwrite.o
 .data          0x000000000011b964        0x0 binaries/lfsckfmt.o
 .data          0x000000000011b964        0x0 binaries/lfscreate.o
 .data          0x000000000011b964        0x0 binaries/lfsetup.o
 .data          0x000000000011b964        0x0 binaries/lfsinit.o
 .data          0x000000000011b964        0x0 binaries/lfsopen.o
 .data          0x000000000011b964        0x0 binaries/lftruncate.o
 .data          0x000000000011b964        0x0 binaries/rflclose.o
 .data          0x000000000011b964        0x0 binaries/rflgetc.o
 .data          0x000000000011b964        0x0 binaries/rflinit.o
 .data          0x000000000011b964        0x0 binaries/rflputc.o
 .data          0x000000000011b964        0x0 binaries/rflread.o
 .data          0x000000000011b964        0x0 binaries/rflseek.o
 .data          0x000000000011b964        0x0 binaries/rflwrite.o
 .data          0x000000000011b964        0x0 binaries/rfscomm.o
 .data          0x000000000011b964        0x0 binaries/rfscontrol.o
 .data          0x000000000011b964        0x0 binaries/rfsgetmode.o
 .data          0x000000000011b964        0x0 binaries/rfsinit.o
 .data          0x000000000011b964        0x0 binaries/rfsndmsg.o
 .data          0x000000000011b964        0x0 binaries/rfsopen.o
 .data          0x000000000011b964        0x0 binaries/arp.o
 .data          0x000000000011b964        0x0 binaries/dhcp.o
 .data          0x000000000011b964        0x0 binaries/dot2ip.o
 .data          0x000000000011b964        0x0 binaries/hexdump.o
 .data          0x000000000011b964        0x4 binaries/icmp.o
 .data          0x000000000011b968        0x0 binaries/ip.o
 .data          0x000000000011b968        0x0 binaries/net.o
 .data          0x000000000011b968        0x0 binaries/netstart.o
 .data          0x000000000011b968        0x0 binaries/pdump.o
 .data          0x000000000011b968        0x0 binaries/tftp.o
 .data          0x000000000011b968        0x4 binaries/udp.o
 .data          0x000000000011b96c        0x0 binaries/addargs.o
 .data          0x000000000011b96c        0x0 binaries/lexan.o
 .data          0x000000000011b96c        0x4 binaries/shell.o
                0x000000000011b96c                ncmd
 .data          0x000000000011b970        0x0 binaries/xsh_argecho.o
 .data          0x000000000011b970        0x0 binaries/xsh_arp.o
 .data          0x000000000011b970        0x0 binaries/xsh_cat.o
 .data          0x000000000011b970        0x0 binaries/xsh_clear.o
 .data          0x000000000011b970        0x0 binaries/xsh_date.o
 .data          0x000000000011b970        0x0 binaries/xsh_devdump.o
 .data          0x000000000011b970        0x0 binaries/xsh_echo.o
 .data          0x000000000011b970        0x0 binaries/xsh_exit.o
 .data          0x000000000011b970        0x0 binaries/xsh_help.o
 .data          0x000000000011b970        0x0 binaries/xsh_ipaddr.o
 .data          0x000000000011b970        0x0 binaries/xsh_kill.o
 .data          0x000000000011b970        0x0 binaries/xsh_memdump.o
 .data          0x000000000011b970        0x0 binaries/xsh_memstat.o
 .data          0x000000000011b970        0x0 binaries/xsh_ping.o
 .data          0x000000000011b970        0x0 binaries/xsh_ps.o
 .data          0x000000000011b970        0x0 binaries/xsh_sleep.o
 .data          0x000000000011b970        0x0 binaries/xsh_udpdump.o
 .data          0x000000000011b970        0x0 binaries/xsh_udpecho.o
 .data          0x000000000011b970        0x0 binaries/xsh_udpeserver.o
 .data          0x000000000011b970        0x0 binaries/xsh_uptime.o
 .data          0x000000000011b970        0x0 binaries/clkdisp.o
 .data          0x000000000011b970        0x0 binaries/ctxsw.o
 .data          0x000000000011b970        0x0 binaries/host2netla.o
 .data          0x000000000011b970        0x0 binaries/host2netlc.o
 .data          0x000000000011b970        0x0 binaries/intr.o
 .data          0x000000000011b970        0x0 binaries/ttydispatch.o
 .data          0x000000000011b970        0x0 binaries/ethdispatch.o
                0x000000000011b970                edata = ABSOLUTE (.)
                0x000000000011c000                . = ALIGN (0x1000)
 *fill*         0x000000000011b970      0x690 

.igot.plt       0x000000000011c000        0x0
 .igot.plt      0x000000000011c000        0x0 binaries/start.o

.bss            0x000000000011c000    0x49000
                0x000000000011c000                bss = ABSOLUTE (.)
 *(.bss .bss.*)
 .bss           0x000000000011c000        0x0 binaries/start.o
 .bss           0x000000000011c000        0x0 binaries/alarmms.o
 .bss           0x000000000011c000        0x0 binaries/alrm_getitem.o
 .bss           0x000000000011c000        0x0 binaries/alrm_insertd.o
 .bss           0x000000000011c000        0x0 binaries/alrm_queue.o
 .bss           0x000000000011c000        0x0 binaries/alrm_wakeup.o
 .bss           0x000000000011c000        0x0 binaries/app1.o
 .bss           0x000000000011c000        0x0 binaries/app2.o
 .bss           0x000000000011c000        0x0 binaries/app3.o
 .bss           0x000000000011c000        0x0 binaries/app_lim.o
 .bss           0x000000000011c000        0x0 binaries/app_unlim.o
 .bss           0x000000000011c000        0x0 binaries/ascdate.o
 .bss           0x000000000011c000        0x0 binaries/bufinit.o
 .bss           0x000000000011c000        0x0 binaries/chprio.o
 .bss           0x000000000011c000        0x0 binaries/clkhandler.o
 .bss           0x000000000011c000        0x4 binaries/clkinit.o
                0x000000000011c000                ctr1000
 .bss           0x000000000011c004        0x0 binaries/close.o
 .bss           0x000000000011c004        0x0 binaries/conf.o
 .bss           0x000000000011c004        0x0 binaries/control.o
 .bss           0x000000000011c004        0x0 binaries/cpubound.o
 .bss           0x000000000011c004        0x0 binaries/create.o
 .bss           0x000000000011c004        0x0 binaries/early_imr.o
 .bss           0x000000000011c004        0x0 binaries/evec.o
 .bss           0x000000000011c004        0x0 binaries/f1.o
 .bss           0x000000000011c004        0x0 binaries/freebuf.o
 .bss           0x000000000011c004        0x0 binaries/freemem.o
 .bss           0x000000000011c004        0x0 binaries/getbuf.o
 .bss           0x000000000011c004        0x0 binaries/getc.o
 .bss           0x000000000011c004        0x0 binaries/getdev.o
 .bss           0x000000000011c004        0x0 binaries/getitem.o
 .bss           0x000000000011c004        0x0 binaries/getmem.o
 .bss           0x000000000011c004        0x0 binaries/getpid.o
 .bss           0x000000000011c004        0x0 binaries/getppid.o
 .bss           0x000000000011c004        0x0 binaries/getprio.o
 .bss           0x000000000011c004        0x0 binaries/getstk.o
 .bss           0x000000000011c004        0x0 binaries/gettime.o
 .bss           0x000000000011c004        0x0 binaries/getutime.o
 .bss           0x000000000011c004        0x0 binaries/host2netlb.o
 .bss           0x000000000011c004        0x0 binaries/init.o
 .bss           0x000000000011c004        0x0 binaries/initialize.o
 .bss           0x000000000011c004        0x0 binaries/insert.o
 .bss           0x000000000011c004        0x0 binaries/insertd.o
 .bss           0x000000000011c004        0x0 binaries/iobound.o
 .bss           0x000000000011c004        0x0 binaries/ioerr.o
 .bss           0x000000000011c004        0x0 binaries/ionull.o
 .bss           0x000000000011c004        0x0 binaries/kill.o
 .bss           0x000000000011c004        0x0 binaries/kprintf.o
 .bss           0x000000000011c004        0x0 binaries/lab2q3.o
 .bss           0x000000000011c004        0x0 binaries/lab2q4.o
 .bss           0x000000000011c004        0x0 binaries/lab2q5.o
 .bss           0x000000000011c004        0x0 binaries/lab3q3.o
 .bss           0x000000000011c004        0x0 binaries/lab3q4.o
 .bss           0x000000000011c004        0xc binaries/main.o
                0x000000000011c004                victimglobal
                0x000000000011c008                lab2q5sol
                0x000000000011c00c                nproc
 .bss           0x000000000011c010        0x0 binaries/mark.o
 .bss           0x000000000011c010        0x0 binaries/meminit.o
 .bss           0x000000000011c010        0x0 binaries/mkbufpool.o
 .bss           0x000000000011c010        0x0 binaries/mltfbq_insert.o
 .bss           0x000000000011c010        0x0 binaries/multilevelfbq.o
 .bss           0x000000000011c010        0x4 binaries/myappA.o
 .bss           0x000000000011c014        0x4 binaries/myfuncA.o
 .bss           0x000000000011c018        0x0 binaries/myhacker.o
 .bss           0x000000000011c018        0x0 binaries/myvictim.o
 .bss           0x000000000011c018        0x0 binaries/mywelcomemsg.o
 .bss           0x000000000011c018        0x0 binaries/newqueue.o
 .bss           0x000000000011c018        0x0 binaries/open.o
 .bss           0x000000000011c018        0x0 binaries/panic.o
 .bss           0x000000000011c018        0x0 binaries/pci.o
 .bss           0x000000000011c018        0x0 binaries/platinit.o
 .bss           0x000000000011c018        0x0 binaries/printprstate.o
 .bss           0x000000000011c018        0x0 binaries/prntsegaddr.o
 .bss           0x000000000011c018        0x0 binaries/ptclear.o
 .bss           0x000000000011c018        0x0 binaries/ptcount.o
 .bss           0x000000000011c018        0x0 binaries/ptcreate.o
 .bss           0x000000000011c018        0x0 binaries/ptdelete.o
 .bss           0x000000000011c018        0x0 binaries/ptinit.o
 .bss           0x000000000011c018        0x0 binaries/ptrecv.o
 .bss           0x000000000011c018        0x0 binaries/ptreset.o
 .bss           0x000000000011c018        0x0 binaries/ptsend.o
 .bss           0x000000000011c018        0x0 binaries/putc.o
 .bss           0x000000000011c018        0x0 binaries/quark_irq.o
 .bss           0x000000000011c018        0x0 binaries/quark_pdat.o
 .bss           0x000000000011c018        0x0 binaries/queue.o
 .bss           0x000000000011c018        0x0 binaries/read.o
 .bss           0x000000000011c018        0x0 binaries/ready.o
 .bss           0x000000000011c018        0x0 binaries/receive.o
 .bss           0x000000000011c018        0x0 binaries/receiveex.o
 .bss           0x000000000011c018        0x0 binaries/receiverq.o
 .bss           0x000000000011c018        0x0 binaries/recv_func.o
 .bss           0x000000000011c018        0x0 binaries/recvclr.o
 .bss           0x000000000011c018        0x0 binaries/recvhandler.o
 .bss           0x000000000011c018        0x0 binaries/recvtime.o
 .bss           0x000000000011c018        0x0 binaries/registercb.o
 .bss           0x000000000011c018        0x0 binaries/registercbsig.o
 .bss           0x000000000011c018        0x0 binaries/resched.o
 .bss           0x000000000011c018        0x0 binaries/resume.o
 .bss           0x000000000011c018        0x0 binaries/seek.o
 .bss           0x000000000011c018        0x0 binaries/semcount.o
 .bss           0x000000000011c018        0x4 binaries/semcreate.o
 .bss           0x000000000011c01c        0x0 binaries/semdelete.o
 .bss           0x000000000011c01c        0x0 binaries/semreset.o
 .bss           0x000000000011c01c        0x0 binaries/senbt.o
 .bss           0x000000000011c01c        0x0 binaries/send.o
 .bss           0x000000000011c01c        0x0 binaries/send_func.o
 .bss           0x000000000011c01c        0x0 binaries/sendex.o
 .bss           0x000000000011c01c        0x0 binaries/signal.o
 .bss           0x000000000011c01c        0x0 binaries/signaln.o
 .bss           0x000000000011c01c        0x0 binaries/sleep.o
 .bss           0x000000000011c01c        0x8 binaries/stackdepth.o
 .bss           0x000000000011c024        0x8 binaries/stacktrace.o
 .bss           0x000000000011c02c        0x0 binaries/suspend.o
 .bss           0x000000000011c02c        0x0 binaries/tsdtab.o
 .bss           0x000000000011c02c        0x0 binaries/unsleep.o
 .bss           0x000000000011c02c        0x0 binaries/userret.o
 .bss           0x000000000011c02c        0x0 binaries/wait.o
 .bss           0x000000000011c02c        0x0 binaries/wakeup.o
 .bss           0x000000000011c02c        0x0 binaries/write.o
 .bss           0x000000000011c02c        0x0 binaries/xdone.o
 .bss           0x000000000011c02c        0x0 binaries/yield.o
 .bss           0x000000000011c02c        0x0 binaries/abs.o
 .bss           0x000000000011c02c        0x0 binaries/atoi.o
 .bss           0x000000000011c02c        0x0 binaries/atol.o
 .bss           0x000000000011c02c        0x0 binaries/bzero.o
 .bss           0x000000000011c02c        0x0 binaries/ctype_.o
 .bss           0x000000000011c02c        0x0 binaries/doprnt.o
 .bss           0x000000000011c02c        0x0 binaries/doscan.o
 .bss           0x000000000011c02c        0x0 binaries/fdoprnt.o
 .bss           0x000000000011c02c        0x0 binaries/fgetc.o
 .bss           0x000000000011c02c        0x0 binaries/fgets.o
 .bss           0x000000000011c02c        0x0 binaries/fprintf.o
 .bss           0x000000000011c02c        0x0 binaries/fputc.o
 .bss           0x000000000011c02c        0x0 binaries/fputs.o
 .bss           0x000000000011c02c        0x0 binaries/fscanf.o
 .bss           0x000000000011c02c        0x0 binaries/getchar.o
 .bss           0x000000000011c02c        0x0 binaries/labs.o
 .bss           0x000000000011c02c        0x0 binaries/memchr.o
 .bss           0x000000000011c02c        0x0 binaries/memcmp.o
 .bss           0x000000000011c02c        0x0 binaries/memcpy.o
 .bss           0x000000000011c02c        0x0 binaries/memset.o
 .bss           0x000000000011c02c        0x0 binaries/printf.o
 .bss           0x000000000011c02c        0x0 binaries/putchar.o
 .bss           0x000000000011c02c        0x8 binaries/qsort.o
 .bss           0x000000000011c034        0x0 binaries/rand.o
 .bss           0x000000000011c034        0x0 binaries/sprintf.o
 .bss           0x000000000011c034        0x0 binaries/sscanf.o
 .bss           0x000000000011c034        0x0 binaries/strchr.o
 .bss           0x000000000011c034        0x0 binaries/strcmp.o
 .bss           0x000000000011c034        0x0 binaries/strcpy.o
 .bss           0x000000000011c034        0x0 binaries/strlen.o
 .bss           0x000000000011c034        0x0 binaries/strncat.o
 .bss           0x000000000011c034        0x0 binaries/strncmp.o
 .bss           0x000000000011c034        0x0 binaries/strncpy.o
 .bss           0x000000000011c034        0x0 binaries/strnlen.o
 .bss           0x000000000011c034        0x0 binaries/strrchr.o
 .bss           0x000000000011c034        0x0 binaries/strstr.o
 .bss           0x000000000011c034        0x0 binaries/ttycontrol.o
 .bss           0x000000000011c034        0x0 binaries/ttygetc.o
 .bss           0x000000000011c034        0x0 binaries/ttyhandle_in.o
 .bss           0x000000000011c034        0x0 binaries/ttyhandle_out.o
 .bss           0x000000000011c034        0x0 binaries/ttyhandler.o
 .bss           0x000000000011c034        0x0 binaries/ttyinit.o
 .bss           0x000000000011c034        0x0 binaries/ttykickout.o
 .bss           0x000000000011c034        0x0 binaries/ttyputc.o
 .bss           0x000000000011c034        0x0 binaries/ttyread.o
 .bss           0x000000000011c034        0x0 binaries/ttywrite.o
 .bss           0x000000000011c034        0x0 binaries/mount.o
 .bss           0x000000000011c034        0x0 binaries/naminit.o
 .bss           0x000000000011c034        0x0 binaries/nammap.o
 .bss           0x000000000011c034        0x0 binaries/namopen.o
 .bss           0x000000000011c034        0x0 binaries/colon2mac.o
 .bss           0x000000000011c034        0x0 binaries/ethcontrol.o
 .bss           0x000000000011c034        0x0 binaries/ethhandler.o
 .bss           0x000000000011c034        0x0 binaries/ethinit.o
 .bss           0x000000000011c034        0x0 binaries/ethmcast.o
 .bss           0x000000000011c034        0x0 binaries/ethread.o
 .bss           0x000000000011c034        0x0 binaries/ethwrite.o
 .bss           0x000000000011c034        0x0 binaries/rdsbufalloc.o
 .bss           0x000000000011c034        0x0 binaries/rdsclose.o
 .bss           0x000000000011c034        0x0 binaries/rdscomm.o
 .bss           0x000000000011c034        0x0 binaries/rdscontrol.o
 .bss           0x000000000011c034        0x0 binaries/rdsinit.o
 .bss           0x000000000011c034        0x0 binaries/rdsopen.o
 .bss           0x000000000011c034        0x0 binaries/rdsprocess.o
 .bss           0x000000000011c034        0x0 binaries/rdsread.o
 .bss           0x000000000011c034        0x0 binaries/rdswrite.o
 .bss           0x000000000011c034        0x0 binaries/ramclose.o
 .bss           0x000000000011c034        0x0 binaries/raminit.o
 .bss           0x000000000011c034        0x0 binaries/ramopen.o
 .bss           0x000000000011c034        0x0 binaries/ramread.o
 .bss           0x000000000011c034        0x0 binaries/ramwrite.o
 .bss           0x000000000011c034        0x0 binaries/lfdballoc.o
 .bss           0x000000000011c034        0x0 binaries/lfdbfree.o
 .bss           0x000000000011c034        0x0 binaries/lfflush.o
 .bss           0x000000000011c034        0x0 binaries/lfgetmode.o
 .bss           0x000000000011c034        0x0 binaries/lfiballoc.o
 .bss           0x000000000011c034        0x0 binaries/lfibclear.o
 .bss           0x000000000011c034        0x0 binaries/lfibget.o
 .bss           0x000000000011c034        0x0 binaries/lfibput.o
 .bss           0x000000000011c034        0x0 binaries/lflclose.o
 .bss           0x000000000011c034        0x0 binaries/lflcontrol.o
 .bss           0x000000000011c034        0x0 binaries/lflgetc.o
 .bss           0x000000000011c034        0x0 binaries/lflinit.o
 .bss           0x000000000011c034        0x0 binaries/lflputc.o
 .bss           0x000000000011c034        0x0 binaries/lflread.o
 .bss           0x000000000011c034        0x0 binaries/lflseek.o
 .bss           0x000000000011c034        0x0 binaries/lflwrite.o
 .bss           0x000000000011c034        0x0 binaries/lfsckfmt.o
 .bss           0x000000000011c034        0x0 binaries/lfscreate.o
 .bss           0x000000000011c034        0x0 binaries/lfsetup.o
 .bss           0x000000000011c034        0x0 binaries/lfsinit.o
 .bss           0x000000000011c034        0x0 binaries/lfsopen.o
 .bss           0x000000000011c034        0x0 binaries/lftruncate.o
 .bss           0x000000000011c034        0x0 binaries/rflclose.o
 .bss           0x000000000011c034        0x0 binaries/rflgetc.o
 .bss           0x000000000011c034        0x0 binaries/rflinit.o
 .bss           0x000000000011c034        0x0 binaries/rflputc.o
 .bss           0x000000000011c034        0x0 binaries/rflread.o
 .bss           0x000000000011c034        0x0 binaries/rflseek.o
 .bss           0x000000000011c034        0x0 binaries/rflwrite.o
 .bss           0x000000000011c034        0x0 binaries/rfscomm.o
 .bss           0x000000000011c034        0x0 binaries/rfscontrol.o
 .bss           0x000000000011c034        0x0 binaries/rfsgetmode.o
 .bss           0x000000000011c034        0x0 binaries/rfsinit.o
 .bss           0x000000000011c034        0x0 binaries/rfsndmsg.o
 .bss           0x000000000011c034        0x0 binaries/rfsopen.o
 .bss           0x000000000011c034        0x0 binaries/arp.o
 .bss           0x000000000011c034        0x0 binaries/dhcp.o
 .bss           0x000000000011c034        0x0 binaries/dot2ip.o
 .bss           0x000000000011c034        0x0 binaries/hexdump.o
 .bss           0x000000000011c034        0x0 binaries/icmp.o
 .bss           0x000000000011c034        0x0 binaries/ip.o
 .bss           0x000000000011c034        0x0 binaries/net.o
 .bss           0x000000000011c034        0x0 binaries/netstart.o
 .bss           0x000000000011c034        0x0 binaries/pdump.o
 .bss           0x000000000011c034        0x0 binaries/tftp.o
 .bss           0x000000000011c034        0x0 binaries/udp.o
 .bss           0x000000000011c034        0x0 binaries/addargs.o
 .bss           0x000000000011c034        0x0 binaries/lexan.o
 .bss           0x000000000011c034        0x0 binaries/shell.o
 .bss           0x000000000011c034        0x0 binaries/xsh_argecho.o
 .bss           0x000000000011c034        0x0 binaries/xsh_arp.o
 .bss           0x000000000011c034        0x0 binaries/xsh_cat.o
 .bss           0x000000000011c034        0x0 binaries/xsh_clear.o
 .bss           0x000000000011c034        0x0 binaries/xsh_date.o
 .bss           0x000000000011c034        0x0 binaries/xsh_devdump.o
 .bss           0x000000000011c034        0x0 binaries/xsh_echo.o
 .bss           0x000000000011c034        0x0 binaries/xsh_exit.o
 .bss           0x000000000011c034        0x0 binaries/xsh_help.o
 .bss           0x000000000011c034        0x0 binaries/xsh_ipaddr.o
 .bss           0x000000000011c034        0x0 binaries/xsh_kill.o
 .bss           0x000000000011c034        0x0 binaries/xsh_memdump.o
 .bss           0x000000000011c034        0x0 binaries/xsh_memstat.o
 .bss           0x000000000011c034        0x4 binaries/xsh_ping.o
 .bss           0x000000000011c038        0x0 binaries/xsh_ps.o
 .bss           0x000000000011c038        0x0 binaries/xsh_sleep.o
 .bss           0x000000000011c038        0x0 binaries/xsh_udpdump.o
 .bss           0x000000000011c038        0x0 binaries/xsh_udpecho.o
 .bss           0x000000000011c038        0x0 binaries/xsh_udpeserver.o
 .bss           0x000000000011c038        0x0 binaries/xsh_uptime.o
 .bss           0x000000000011c038        0x0 binaries/clkdisp.o
 .bss           0x000000000011c038        0x0 binaries/ctxsw.o
 .bss           0x000000000011c038        0x0 binaries/host2netla.o
 .bss           0x000000000011c038        0x0 binaries/host2netlc.o
 .bss           0x000000000011c038        0x0 binaries/intr.o
 .bss           0x000000000011c038        0x0 binaries/ttydispatch.o
 .bss           0x000000000011c038        0x0 binaries/ethdispatch.o
 *(COMMON)
 *fill*         0x000000000011c038        0x8 
 COMMON         0x000000000011c040      0x980 binaries/alrm_queue.o
                0x000000000011c040                alrm_queuetab
 COMMON         0x000000000011c9c0       0xf4 binaries/bufinit.o
                0x000000000011c9c0                buftab
                0x000000000011cab0                nbpools
 COMMON         0x000000000011cab4       0x12 binaries/clkinit.o
                0x000000000011cab4                sleepq
                0x000000000011cab8                preempt
                0x000000000011cabc                clktimemsec
                0x000000000011cac0                clktime
                0x000000000011cac4                alrmq
 COMMON         0x000000000011cac6        0x2 binaries/evec.o
                0x000000000011cac6                girmask
 *fill*         0x000000000011cac8       0x18 
 COMMON         0x000000000011cae0     0x28d8 binaries/initialize.o
                0x000000000011cae0                currpid
                0x000000000011cb00                proctab
                0x000000000011eef0                prcount
                0x000000000011ef00                semtab
                0x000000000011f3b0                memlist
 COMMON         0x000000000011f3b8        0x4 binaries/main.o
                0x000000000011f3b8                sem
 *fill*         0x000000000011f3bc        0x4 
 COMMON         0x000000000011f3c0       0x58 binaries/mark.o
                0x000000000011f3c0                marks
                0x000000000011f410                nmarks
                0x000000000011f414                mkmutex
 COMMON         0x000000000011f418        0x8 binaries/meminit.o
                0x000000000011f418                minheap
                0x000000000011f41c                maxheap
 COMMON         0x000000000011f420    0x13920 binaries/multilevelfbq.o
                0x000000000011f420                multilevelfbqueue
                0x000000000011f4c0                receiverqueue
 COMMON         0x0000000000132d40      0x2d8 binaries/ptinit.o
                0x0000000000132d40                porttab
                0x0000000000133010                ptnextid
                0x0000000000133014                ptfree
 *fill*         0x0000000000133018        0x8 
 COMMON         0x0000000000133020      0x980 binaries/queue.o
                0x0000000000133020                queuetab
 COMMON         0x00000000001339a0        0x2 binaries/ready.o
                0x00000000001339a0                readylist
 *fill*         0x00000000001339a2       0x1e 
 COMMON         0x00000000001339c0    0x13ec0 binaries/receiverq.o
                0x00000000001339c0                receiverq
 COMMON         0x0000000000147880        0xc binaries/resched.o
                0x0000000000147880                Defer
                0x0000000000147888                timescliceconsumed
 *fill*         0x000000000014788c       0x14 
 COMMON         0x00000000001478a0      0x10c binaries/ttyinit.o
                0x00000000001478a0                ttytab
 *fill*         0x00000000001479ac       0x14 
 COMMON         0x00000000001479c0     0x19c0 binaries/naminit.o
                0x00000000001479c0                nnames
                0x00000000001479e0                nametab
 COMMON         0x0000000000149380      0x138 binaries/ethinit.o
                0x0000000000149380                ethertab
 *fill*         0x00000000001494b8        0x8 
 COMMON         0x00000000001494c0       0x8c binaries/rdsinit.o
                0x00000000001494c0                rdstab
 *fill*         0x000000000014954c       0x14 
 COMMON         0x0000000000149560    0x19000 binaries/raminit.o
                0x0000000000149560                Ram
 COMMON         0x0000000000162560      0xf00 binaries/lflinit.o
                0x0000000000162560                lfltab
 COMMON         0x0000000000163460      0x20c binaries/lfsinit.o
                0x0000000000163460                Lf_data
 *fill*         0x000000000016366c       0x14 
 COMMON         0x0000000000163680      0x5a0 binaries/rflinit.o
                0x0000000000163680                rfltab
 COMMON         0x0000000000163c20       0x18 binaries/rfsinit.o
                0x0000000000163c20                Rf_data
 *fill*         0x0000000000163c38        0x8 
 COMMON         0x0000000000163c40      0x140 binaries/arp.o
                0x0000000000163c40                arpcache
 COMMON         0x0000000000163d80      0x230 binaries/icmp.o
                0x0000000000163d80                icmptab
 *fill*         0x0000000000163fb0       0x10 
 COMMON         0x0000000000163fc0       0x2c binaries/ip.o
                0x0000000000163fc0                ipoqueue
 *fill*         0x0000000000163fec       0x14 
 COMMON         0x0000000000164000       0xc8 binaries/net.o
                0x0000000000164000                netbufpool
                0x0000000000164020                NetData
 *fill*         0x00000000001640c8       0x18 
 COMMON         0x00000000001640e0      0x168 binaries/udp.o
                0x00000000001640e0                udptab
                0x0000000000164248                ebss = ABSOLUTE (.)
                0x0000000000165000                . = ALIGN (0x1000)
 *fill*         0x0000000000164248      0xdb8 
 */()
                0x0000000000165000                end = ABSOLUTE (.)
                0x0000000000165000                _end = ABSOLUTE (.)
                0x0000000000165000                . = ALIGN (0x1000)
LOAD binaries/start.o
LOAD binaries/alarmms.o
LOAD binaries/alrm_getitem.o
LOAD binaries/alrm_insertd.o
LOAD binaries/alrm_queue.o
LOAD binaries/alrm_wakeup.o
LOAD binaries/app1.o
LOAD binaries/app2.o
LOAD binaries/app3.o
LOAD binaries/app_lim.o
LOAD binaries/app_unlim.o
LOAD binaries/ascdate.o
LOAD binaries/bufinit.o
LOAD binaries/chprio.o
LOAD binaries/clkhandler.o
LOAD binaries/clkinit.o
LOAD binaries/close.o
LOAD binaries/conf.o
LOAD binaries/control.o
LOAD binaries/cpubound.o
LOAD binaries/create.o
LOAD binaries/early_imr.o
LOAD binaries/evec.o
LOAD binaries/f1.o
LOAD binaries/freebuf.o
LOAD binaries/freemem.o
LOAD binaries/getbuf.o
LOAD binaries/getc.o
LOAD binaries/getdev.o
LOAD binaries/getitem.o
LOAD binaries/getmem.o
LOAD binaries/getpid.o
LOAD binaries/getppid.o
LOAD binaries/getprio.o
LOAD binaries/getstk.o
LOAD binaries/gettime.o
LOAD binaries/getutime.o
LOAD binaries/host2netlb.o
LOAD binaries/init.o
LOAD binaries/initialize.o
LOAD binaries/insert.o
LOAD binaries/insertd.o
LOAD binaries/iobound.o
LOAD binaries/ioerr.o
LOAD binaries/ionull.o
LOAD binaries/kill.o
LOAD binaries/kprintf.o
LOAD binaries/lab2q3.o
LOAD binaries/lab2q4.o
LOAD binaries/lab2q5.o
LOAD binaries/lab3q3.o
LOAD binaries/lab3q4.o
LOAD binaries/main.o
LOAD binaries/mark.o
LOAD binaries/meminit.o
LOAD binaries/mkbufpool.o
LOAD binaries/mltfbq_insert.o
LOAD binaries/multilevelfbq.o
LOAD binaries/myappA.o
LOAD binaries/myfuncA.o
LOAD binaries/myhacker.o
LOAD binaries/myvictim.o
LOAD binaries/mywelcomemsg.o
LOAD binaries/newqueue.o
LOAD binaries/open.o
LOAD binaries/panic.o
LOAD binaries/pci.o
LOAD binaries/platinit.o
LOAD binaries/printprstate.o
LOAD binaries/prntsegaddr.o
LOAD binaries/ptclear.o
LOAD binaries/ptcount.o
LOAD binaries/ptcreate.o
LOAD binaries/ptdelete.o
LOAD binaries/ptinit.o
LOAD binaries/ptrecv.o
LOAD binaries/ptreset.o
LOAD binaries/ptsend.o
LOAD binaries/putc.o
LOAD binaries/quark_irq.o
LOAD binaries/quark_pdat.o
LOAD binaries/queue.o
LOAD binaries/read.o
LOAD binaries/ready.o
LOAD binaries/receive.o
LOAD binaries/receiveex.o
LOAD binaries/receiverq.o
LOAD binaries/recv_func.o
LOAD binaries/recvclr.o
LOAD binaries/recvhandler.o
LOAD binaries/recvtime.o
LOAD binaries/registercb.o
LOAD binaries/registercbsig.o
LOAD binaries/resched.o
LOAD binaries/resume.o
LOAD binaries/seek.o
LOAD binaries/semcount.o
LOAD binaries/semcreate.o
LOAD binaries/semdelete.o
LOAD binaries/semreset.o
LOAD binaries/senbt.o
LOAD binaries/send.o
LOAD binaries/send_func.o
LOAD binaries/sendex.o
LOAD binaries/signal.o
LOAD binaries/signaln.o
LOAD binaries/sleep.o
LOAD binaries/stackdepth.o
LOAD binaries/stacktrace.o
LOAD binaries/suspend.o
LOAD binaries/tsdtab.o
LOAD binaries/unsleep.o
LOAD binaries/userret.o
LOAD binaries/wait.o
LOAD binaries/wakeup.o
LOAD binaries/write.o
LOAD binaries/xdone.o
LOAD binaries/yield.o
LOAD binaries/abs.o
LOAD binaries/atoi.o
LOAD binaries/atol.o
LOAD binaries/bzero.o
LOAD binaries/ctype_.o
LOAD binaries/doprnt.o
LOAD binaries/doscan.o
LOAD binaries/fdoprnt.o
LOAD binaries/fgetc.o
LOAD binaries/fgets.o
LOAD binaries/fprintf.o
LOAD binaries/fputc.o
LOAD binaries/fputs.o
LOAD binaries/fscanf.o
LOAD binaries/getchar.o
LOAD binaries/labs.o
LOAD binaries/memchr.o
LOAD binaries/memcmp.o
LOAD binaries/memcpy.o
LOAD binaries/memset.o
LOAD binaries/printf.o
LOAD binaries/putchar.o
LOAD binaries/qsort.o
LOAD binaries/rand.o
LOAD binaries/sprintf.o
LOAD binaries/sscanf.o
LOAD binaries/strchr.o
LOAD binaries/strcmp.o
LOAD binaries/strcpy.o
LOAD binaries/strlen.o
LOAD binaries/strncat.o
LOAD binaries/strncmp.o
LOAD binaries/strncpy.o
LOAD binaries/strnlen.o
LOAD binaries/strrchr.o
LOAD binaries/strstr.o
LOAD binaries/ttycontrol.o
LOAD binaries/ttygetc.o
LOAD binaries/ttyhandle_in.o
LOAD binaries/ttyhandle_out.o
LOAD binaries/ttyhandler.o
LOAD binaries/ttyinit.o
LOAD binaries/ttykickout.o
LOAD binaries/ttyputc.o
LOAD binaries/ttyread.o
LOAD binaries/ttywrite.o
LOAD binaries/mount.o
LOAD binaries/naminit.o
LOAD binaries/nammap.o
LOAD binaries/namopen.o
LOAD binaries/colon2mac.o
LOAD binaries/ethcontrol.o
LOAD binaries/ethhandler.o
LOAD binaries/ethinit.o
LOAD binaries/ethmcast.o
LOAD binaries/ethread.o
LOAD binaries/ethwrite.o
LOAD binaries/rdsbufalloc.o
LOAD binaries/rdsclose.o
LOAD binaries/rdscomm.o
LOAD binaries/rdscontrol.o
LOAD binaries/rdsinit.o
LOAD binaries/rdsopen.o
LOAD binaries/rdsprocess.o
LOAD binaries/rdsread.o
LOAD binaries/rdswrite.o
LOAD binaries/ramclose.o
LOAD binaries/raminit.o
LOAD binaries/ramopen.o
LOAD binaries/ramread.o
LOAD binaries/ramwrite.o
LOAD binaries/lfdballoc.o
LOAD binaries/lfdbfree.o
LOAD binaries/lfflush.o
LOAD binaries/lfgetmode.o
LOAD binaries/lfiballoc.o
LOAD binaries/lfibclear.o
LOAD binaries/lfibget.o
LOAD binaries/lfibput.o
LOAD binaries/lflclose.o
LOAD binaries/lflcontrol.o
LOAD binaries/lflgetc.o
LOAD binaries/lflinit.o
LOAD binaries/lflputc.o
LOAD binaries/lflread.o
LOAD binaries/lflseek.o
LOAD binaries/lflwrite.o
LOAD binaries/lfsckfmt.o
LOAD binaries/lfscreate.o
LOAD binaries/lfsetup.o
LOAD binaries/lfsinit.o
LOAD binaries/lfsopen.o
LOAD binaries/lftruncate.o
LOAD binaries/rflclose.o
LOAD binaries/rflgetc.o
LOAD binaries/rflinit.o
LOAD binaries/rflputc.o
LOAD binaries/rflread.o
LOAD binaries/rflseek.o
LOAD binaries/rflwrite.o
LOAD binaries/rfscomm.o
LOAD binaries/rfscontrol.o
LOAD binaries/rfsgetmode.o
LOAD binaries/rfsinit.o
LOAD binaries/rfsndmsg.o
LOAD binaries/rfsopen.o
LOAD binaries/arp.o
LOAD binaries/dhcp.o
LOAD binaries/dot2ip.o
LOAD binaries/hexdump.o
LOAD binaries/icmp.o
LOAD binaries/ip.o
LOAD binaries/net.o
LOAD binaries/netstart.o
LOAD binaries/pdump.o
LOAD binaries/tftp.o
LOAD binaries/udp.o
LOAD binaries/addargs.o
LOAD binaries/lexan.o
LOAD binaries/shell.o
LOAD binaries/xsh_argecho.o
LOAD binaries/xsh_arp.o
LOAD binaries/xsh_cat.o
LOAD binaries/xsh_clear.o
LOAD binaries/xsh_date.o
LOAD binaries/xsh_devdump.o
LOAD binaries/xsh_echo.o
LOAD binaries/xsh_exit.o
LOAD binaries/xsh_help.o
LOAD binaries/xsh_ipaddr.o
LOAD binaries/xsh_kill.o
LOAD binaries/xsh_memdump.o
LOAD binaries/xsh_memstat.o
LOAD binaries/xsh_ping.o
LOAD binaries/xsh_ps.o
LOAD binaries/xsh_sleep.o
LOAD binaries/xsh_udpdump.o
LOAD binaries/xsh_udpecho.o
LOAD binaries/xsh_udpeserver.o
LOAD binaries/xsh_uptime.o
LOAD binaries/clkdisp.o
LOAD binaries/ctxsw.o
LOAD binaries/host2netla.o
LOAD binaries/host2netlc.o
LOAD binaries/intr.o
LOAD binaries/ttydispatch.o
LOAD binaries/ethdispatch.o
OUTPUT(../compile/xinu elf32-i386)

.comment        0x0000000000000000       0x2a
 .comment       0x0000000000000000       0x2a binaries/alarmms.o
                                         0x2b (size before relaxing)
 .comment       0x000000000000002a       0x2b binaries/alrm_getitem.o
 .comment       0x000000000000002a       0x2b binaries/alrm_insertd.o
 .comment       0x000000000000002a       0x2b binaries/alrm_queue.o
 .comment       0x000000000000002a       0x2b binaries/alrm_wakeup.o
 .comment       0x000000000000002a       0x2b binaries/app1.o
 .comment       0x000000000000002a       0x2b binaries/app2.o
 .comment       0x000000000000002a       0x2b binaries/app3.o
 .comment       0x000000000000002a       0x2b binaries/app_lim.o
 .comment       0x000000000000002a       0x2b binaries/app_unlim.o
 .comment       0x000000000000002a       0x2b binaries/ascdate.o
 .comment       0x000000000000002a       0x2b binaries/bufinit.o
 .comment       0x000000000000002a       0x2b binaries/chprio.o
 .comment       0x000000000000002a       0x2b binaries/clkhandler.o
 .comment       0x000000000000002a       0x2b binaries/clkinit.o
 .comment       0x000000000000002a       0x2b binaries/close.o
 .comment       0x000000000000002a       0x2b binaries/conf.o
 .comment       0x000000000000002a       0x2b binaries/control.o
 .comment       0x000000000000002a       0x2b binaries/cpubound.o
 .comment       0x000000000000002a       0x2b binaries/create.o
 .comment       0x000000000000002a       0x2b binaries/early_imr.o
 .comment       0x000000000000002a       0x2b binaries/evec.o
 .comment       0x000000000000002a       0x2b binaries/f1.o
 .comment       0x000000000000002a       0x2b binaries/freebuf.o
 .comment       0x000000000000002a       0x2b binaries/freemem.o
 .comment       0x000000000000002a       0x2b binaries/getbuf.o
 .comment       0x000000000000002a       0x2b binaries/getc.o
 .comment       0x000000000000002a       0x2b binaries/getdev.o
 .comment       0x000000000000002a       0x2b binaries/getitem.o
 .comment       0x000000000000002a       0x2b binaries/getmem.o
 .comment       0x000000000000002a       0x2b binaries/getpid.o
 .comment       0x000000000000002a       0x2b binaries/getppid.o
 .comment       0x000000000000002a       0x2b binaries/getprio.o
 .comment       0x000000000000002a       0x2b binaries/getstk.o
 .comment       0x000000000000002a       0x2b binaries/gettime.o
 .comment       0x000000000000002a       0x2b binaries/getutime.o
 .comment       0x000000000000002a       0x2b binaries/host2netlb.o
 .comment       0x000000000000002a       0x2b binaries/init.o
 .comment       0x000000000000002a       0x2b binaries/initialize.o
 .comment       0x000000000000002a       0x2b binaries/insert.o
 .comment       0x000000000000002a       0x2b binaries/insertd.o
 .comment       0x000000000000002a       0x2b binaries/iobound.o
 .comment       0x000000000000002a       0x2b binaries/ioerr.o
 .comment       0x000000000000002a       0x2b binaries/ionull.o
 .comment       0x000000000000002a       0x2b binaries/kill.o
 .comment       0x000000000000002a       0x2b binaries/kprintf.o
 .comment       0x000000000000002a       0x2b binaries/lab2q3.o
 .comment       0x000000000000002a       0x2b binaries/lab2q4.o
 .comment       0x000000000000002a       0x2b binaries/lab2q5.o
 .comment       0x000000000000002a       0x2b binaries/lab3q3.o
 .comment       0x000000000000002a       0x2b binaries/lab3q4.o
 .comment       0x000000000000002a       0x2b binaries/main.o
 .comment       0x000000000000002a       0x2b binaries/mark.o
 .comment       0x000000000000002a       0x2b binaries/meminit.o
 .comment       0x000000000000002a       0x2b binaries/mkbufpool.o
 .comment       0x000000000000002a       0x2b binaries/mltfbq_insert.o
 .comment       0x000000000000002a       0x2b binaries/multilevelfbq.o
 .comment       0x000000000000002a       0x2b binaries/myappA.o
 .comment       0x000000000000002a       0x2b binaries/myfuncA.o
 .comment       0x000000000000002a       0x2b binaries/myhacker.o
 .comment       0x000000000000002a       0x2b binaries/myvictim.o
 .comment       0x000000000000002a       0x2b binaries/mywelcomemsg.o
 .comment       0x000000000000002a       0x2b binaries/newqueue.o
 .comment       0x000000000000002a       0x2b binaries/open.o
 .comment       0x000000000000002a       0x2b binaries/panic.o
 .comment       0x000000000000002a       0x2b binaries/pci.o
 .comment       0x000000000000002a       0x2b binaries/platinit.o
 .comment       0x000000000000002a       0x2b binaries/printprstate.o
 .comment       0x000000000000002a       0x2b binaries/prntsegaddr.o
 .comment       0x000000000000002a       0x2b binaries/ptclear.o
 .comment       0x000000000000002a       0x2b binaries/ptcount.o
 .comment       0x000000000000002a       0x2b binaries/ptcreate.o
 .comment       0x000000000000002a       0x2b binaries/ptdelete.o
 .comment       0x000000000000002a       0x2b binaries/ptinit.o
 .comment       0x000000000000002a       0x2b binaries/ptrecv.o
 .comment       0x000000000000002a       0x2b binaries/ptreset.o
 .comment       0x000000000000002a       0x2b binaries/ptsend.o
 .comment       0x000000000000002a       0x2b binaries/putc.o
 .comment       0x000000000000002a       0x2b binaries/quark_irq.o
 .comment       0x000000000000002a       0x2b binaries/quark_pdat.o
 .comment       0x000000000000002a       0x2b binaries/queue.o
 .comment       0x000000000000002a       0x2b binaries/read.o
 .comment       0x000000000000002a       0x2b binaries/ready.o
 .comment       0x000000000000002a       0x2b binaries/receive.o
 .comment       0x000000000000002a       0x2b binaries/receiveex.o
 .comment       0x000000000000002a       0x2b binaries/receiverq.o
 .comment       0x000000000000002a       0x2b binaries/recv_func.o
 .comment       0x000000000000002a       0x2b binaries/recvclr.o
 .comment       0x000000000000002a       0x2b binaries/recvhandler.o
 .comment       0x000000000000002a       0x2b binaries/recvtime.o
 .comment       0x000000000000002a       0x2b binaries/registercb.o
 .comment       0x000000000000002a       0x2b binaries/registercbsig.o
 .comment       0x000000000000002a       0x2b binaries/resched.o
 .comment       0x000000000000002a       0x2b binaries/resume.o
 .comment       0x000000000000002a       0x2b binaries/seek.o
 .comment       0x000000000000002a       0x2b binaries/semcount.o
 .comment       0x000000000000002a       0x2b binaries/semcreate.o
 .comment       0x000000000000002a       0x2b binaries/semdelete.o
 .comment       0x000000000000002a       0x2b binaries/semreset.o
 .comment       0x000000000000002a       0x2b binaries/senbt.o
 .comment       0x000000000000002a       0x2b binaries/send.o
 .comment       0x000000000000002a       0x2b binaries/send_func.o
 .comment       0x000000000000002a       0x2b binaries/sendex.o
 .comment       0x000000000000002a       0x2b binaries/signal.o
 .comment       0x000000000000002a       0x2b binaries/signaln.o
 .comment       0x000000000000002a       0x2b binaries/sleep.o
 .comment       0x000000000000002a       0x2b binaries/stackdepth.o
 .comment       0x000000000000002a       0x2b binaries/stacktrace.o
 .comment       0x000000000000002a       0x2b binaries/suspend.o
 .comment       0x000000000000002a       0x2b binaries/tsdtab.o
 .comment       0x000000000000002a       0x2b binaries/unsleep.o
 .comment       0x000000000000002a       0x2b binaries/userret.o
 .comment       0x000000000000002a       0x2b binaries/wait.o
 .comment       0x000000000000002a       0x2b binaries/wakeup.o
 .comment       0x000000000000002a       0x2b binaries/write.o
 .comment       0x000000000000002a       0x2b binaries/xdone.o
 .comment       0x000000000000002a       0x2b binaries/yield.o
 .comment       0x000000000000002a       0x2b binaries/abs.o
 .comment       0x000000000000002a       0x2b binaries/atoi.o
 .comment       0x000000000000002a       0x2b binaries/atol.o
 .comment       0x000000000000002a       0x2b binaries/bzero.o
 .comment       0x000000000000002a       0x2b binaries/ctype_.o
 .comment       0x000000000000002a       0x2b binaries/doprnt.o
 .comment       0x000000000000002a       0x2b binaries/doscan.o
 .comment       0x000000000000002a       0x2b binaries/fdoprnt.o
 .comment       0x000000000000002a       0x2b binaries/fgetc.o
 .comment       0x000000000000002a       0x2b binaries/fgets.o
 .comment       0x000000000000002a       0x2b binaries/fprintf.o
 .comment       0x000000000000002a       0x2b binaries/fputc.o
 .comment       0x000000000000002a       0x2b binaries/fputs.o
 .comment       0x000000000000002a       0x2b binaries/fscanf.o
 .comment       0x000000000000002a       0x2b binaries/getchar.o
 .comment       0x000000000000002a       0x2b binaries/labs.o
 .comment       0x000000000000002a       0x2b binaries/memchr.o
 .comment       0x000000000000002a       0x2b binaries/memcmp.o
 .comment       0x000000000000002a       0x2b binaries/memcpy.o
 .comment       0x000000000000002a       0x2b binaries/memset.o
 .comment       0x000000000000002a       0x2b binaries/printf.o
 .comment       0x000000000000002a       0x2b binaries/putchar.o
 .comment       0x000000000000002a       0x2b binaries/qsort.o
 .comment       0x000000000000002a       0x2b binaries/rand.o
 .comment       0x000000000000002a       0x2b binaries/sprintf.o
 .comment       0x000000000000002a       0x2b binaries/sscanf.o
 .comment       0x000000000000002a       0x2b binaries/strchr.o
 .comment       0x000000000000002a       0x2b binaries/strcmp.o
 .comment       0x000000000000002a       0x2b binaries/strcpy.o
 .comment       0x000000000000002a       0x2b binaries/strlen.o
 .comment       0x000000000000002a       0x2b binaries/strncat.o
 .comment       0x000000000000002a       0x2b binaries/strncmp.o
 .comment       0x000000000000002a       0x2b binaries/strncpy.o
 .comment       0x000000000000002a       0x2b binaries/strnlen.o
 .comment       0x000000000000002a       0x2b binaries/strrchr.o
 .comment       0x000000000000002a       0x2b binaries/strstr.o
 .comment       0x000000000000002a       0x2b binaries/ttycontrol.o
 .comment       0x000000000000002a       0x2b binaries/ttygetc.o
 .comment       0x000000000000002a       0x2b binaries/ttyhandle_in.o
 .comment       0x000000000000002a       0x2b binaries/ttyhandle_out.o
 .comment       0x000000000000002a       0x2b binaries/ttyhandler.o
 .comment       0x000000000000002a       0x2b binaries/ttyinit.o
 .comment       0x000000000000002a       0x2b binaries/ttykickout.o
 .comment       0x000000000000002a       0x2b binaries/ttyputc.o
 .comment       0x000000000000002a       0x2b binaries/ttyread.o
 .comment       0x000000000000002a       0x2b binaries/ttywrite.o
 .comment       0x000000000000002a       0x2b binaries/mount.o
 .comment       0x000000000000002a       0x2b binaries/naminit.o
 .comment       0x000000000000002a       0x2b binaries/nammap.o
 .comment       0x000000000000002a       0x2b binaries/namopen.o
 .comment       0x000000000000002a       0x2b binaries/colon2mac.o
 .comment       0x000000000000002a       0x2b binaries/ethcontrol.o
 .comment       0x000000000000002a       0x2b binaries/ethhandler.o
 .comment       0x000000000000002a       0x2b binaries/ethinit.o
 .comment       0x000000000000002a       0x2b binaries/ethmcast.o
 .comment       0x000000000000002a       0x2b binaries/ethread.o
 .comment       0x000000000000002a       0x2b binaries/ethwrite.o
 .comment       0x000000000000002a       0x2b binaries/rdsbufalloc.o
 .comment       0x000000000000002a       0x2b binaries/rdsclose.o
 .comment       0x000000000000002a       0x2b binaries/rdscomm.o
 .comment       0x000000000000002a       0x2b binaries/rdscontrol.o
 .comment       0x000000000000002a       0x2b binaries/rdsinit.o
 .comment       0x000000000000002a       0x2b binaries/rdsopen.o
 .comment       0x000000000000002a       0x2b binaries/rdsprocess.o
 .comment       0x000000000000002a       0x2b binaries/rdsread.o
 .comment       0x000000000000002a       0x2b binaries/rdswrite.o
 .comment       0x000000000000002a       0x2b binaries/ramclose.o
 .comment       0x000000000000002a       0x2b binaries/raminit.o
 .comment       0x000000000000002a       0x2b binaries/ramopen.o
 .comment       0x000000000000002a       0x2b binaries/ramread.o
 .comment       0x000000000000002a       0x2b binaries/ramwrite.o
 .comment       0x000000000000002a       0x2b binaries/lfdballoc.o
 .comment       0x000000000000002a       0x2b binaries/lfdbfree.o
 .comment       0x000000000000002a       0x2b binaries/lfflush.o
 .comment       0x000000000000002a       0x2b binaries/lfgetmode.o
 .comment       0x000000000000002a       0x2b binaries/lfiballoc.o
 .comment       0x000000000000002a       0x2b binaries/lfibclear.o
 .comment       0x000000000000002a       0x2b binaries/lfibget.o
 .comment       0x000000000000002a       0x2b binaries/lfibput.o
 .comment       0x000000000000002a       0x2b binaries/lflclose.o
 .comment       0x000000000000002a       0x2b binaries/lflcontrol.o
 .comment       0x000000000000002a       0x2b binaries/lflgetc.o
 .comment       0x000000000000002a       0x2b binaries/lflinit.o
 .comment       0x000000000000002a       0x2b binaries/lflputc.o
 .comment       0x000000000000002a       0x2b binaries/lflread.o
 .comment       0x000000000000002a       0x2b binaries/lflseek.o
 .comment       0x000000000000002a       0x2b binaries/lflwrite.o
 .comment       0x000000000000002a       0x2b binaries/lfsckfmt.o
 .comment       0x000000000000002a       0x2b binaries/lfscreate.o
 .comment       0x000000000000002a       0x2b binaries/lfsetup.o
 .comment       0x000000000000002a       0x2b binaries/lfsinit.o
 .comment       0x000000000000002a       0x2b binaries/lfsopen.o
 .comment       0x000000000000002a       0x2b binaries/lftruncate.o
 .comment       0x000000000000002a       0x2b binaries/rflclose.o
 .comment       0x000000000000002a       0x2b binaries/rflgetc.o
 .comment       0x000000000000002a       0x2b binaries/rflinit.o
 .comment       0x000000000000002a       0x2b binaries/rflputc.o
 .comment       0x000000000000002a       0x2b binaries/rflread.o
 .comment       0x000000000000002a       0x2b binaries/rflseek.o
 .comment       0x000000000000002a       0x2b binaries/rflwrite.o
 .comment       0x000000000000002a       0x2b binaries/rfscomm.o
 .comment       0x000000000000002a       0x2b binaries/rfscontrol.o
 .comment       0x000000000000002a       0x2b binaries/rfsgetmode.o
 .comment       0x000000000000002a       0x2b binaries/rfsinit.o
 .comment       0x000000000000002a       0x2b binaries/rfsndmsg.o
 .comment       0x000000000000002a       0x2b binaries/rfsopen.o
 .comment       0x000000000000002a       0x2b binaries/arp.o
 .comment       0x000000000000002a       0x2b binaries/dhcp.o
 .comment       0x000000000000002a       0x2b binaries/dot2ip.o
 .comment       0x000000000000002a       0x2b binaries/hexdump.o
 .comment       0x000000000000002a       0x2b binaries/icmp.o
 .comment       0x000000000000002a       0x2b binaries/ip.o
 .comment       0x000000000000002a       0x2b binaries/net.o
 .comment       0x000000000000002a       0x2b binaries/netstart.o
 .comment       0x000000000000002a       0x2b binaries/pdump.o
 .comment       0x000000000000002a       0x2b binaries/tftp.o
 .comment       0x000000000000002a       0x2b binaries/udp.o
 .comment       0x000000000000002a       0x2b binaries/addargs.o
 .comment       0x000000000000002a       0x2b binaries/lexan.o
 .comment       0x000000000000002a       0x2b binaries/shell.o
 .comment       0x000000000000002a       0x2b binaries/xsh_argecho.o
 .comment       0x000000000000002a       0x2b binaries/xsh_arp.o
 .comment       0x000000000000002a       0x2b binaries/xsh_cat.o
 .comment       0x000000000000002a       0x2b binaries/xsh_clear.o
 .comment       0x000000000000002a       0x2b binaries/xsh_date.o
 .comment       0x000000000000002a       0x2b binaries/xsh_devdump.o
 .comment       0x000000000000002a       0x2b binaries/xsh_echo.o
 .comment       0x000000000000002a       0x2b binaries/xsh_exit.o
 .comment       0x000000000000002a       0x2b binaries/xsh_help.o
 .comment       0x000000000000002a       0x2b binaries/xsh_ipaddr.o
 .comment       0x000000000000002a       0x2b binaries/xsh_kill.o
 .comment       0x000000000000002a       0x2b binaries/xsh_memdump.o
 .comment       0x000000000000002a       0x2b binaries/xsh_memstat.o
 .comment       0x000000000000002a       0x2b binaries/xsh_ping.o
 .comment       0x000000000000002a       0x2b binaries/xsh_ps.o
 .comment       0x000000000000002a       0x2b binaries/xsh_sleep.o
 .comment       0x000000000000002a       0x2b binaries/xsh_udpdump.o
 .comment       0x000000000000002a       0x2b binaries/xsh_udpecho.o
 .comment       0x000000000000002a       0x2b binaries/xsh_udpeserver.o
 .comment       0x000000000000002a       0x2b binaries/xsh_uptime.o
 .comment       0x000000000000002a       0x2b binaries/host2netlc.o

.note.GNU-stack
                0x0000000000000000        0x0
 .note.GNU-stack
                0x0000000000000000        0x0 binaries/alarmms.o
 .note.GNU-stack
                0x0000000000000000        0x0 binaries/alrm_getitem.o
 .note.GNU-stack
                0x0000000000000000        0x0 binaries/alrm_insertd.o
 .note.GNU-stack
                0x0000000000000000        0x0 binaries/alrm_queue.o
 .note.GNU-stack
                0x0000000000000000        0x0 binaries/alrm_wakeup.o
 .note.GNU-stack
                0x0000000000000000        0x0 binaries/app1.o
 .note.GNU-stack
                0x0000000000000000        0x0 binaries/app2.o
 .note.GNU-stack
                0x0000000000000000        0x0 binaries/app3.o
 .note.GNU-stack
                0x0000000000000000        0x0 binaries/app_lim.o
 .note.GNU-stack
                0x0000000000000000        0x0 binaries/app_unlim.o
 .note.GNU-stack
                0x0000000000000000        0x0 binaries/ascdate.o
 .note.GNU-stack
                0x0000000000000000        0x0 binaries/bufinit.o
 .note.GNU-stack
                0x0000000000000000        0x0 binaries/chprio.o
 .note.GNU-stack
                0x0000000000000000        0x0 binaries/clkhandler.o
 .note.GNU-stack
                0x0000000000000000        0x0 binaries/clkinit.o
 .note.GNU-stack
                0x0000000000000000        0x0 binaries/close.o
 .note.GNU-stack
                0x0000000000000000        0x0 binaries/conf.o
 .note.GNU-stack
                0x0000000000000000        0x0 binaries/control.o
 .note.GNU-stack
                0x0000000000000000        0x0 binaries/cpubound.o
 .note.GNU-stack
                0x0000000000000000        0x0 binaries/create.o
 .note.GNU-stack
                0x0000000000000000        0x0 binaries/early_imr.o
 .note.GNU-stack
                0x0000000000000000        0x0 binaries/evec.o
 .note.GNU-stack
                0x0000000000000000        0x0 binaries/f1.o
 .note.GNU-stack
                0x0000000000000000        0x0 binaries/freebuf.o
 .note.GNU-stack
                0x0000000000000000        0x0 binaries/freemem.o
 .note.GNU-stack
                0x0000000000000000        0x0 binaries/getbuf.o
 .note.GNU-stack
                0x0000000000000000        0x0 binaries/getc.o
 .note.GNU-stack
                0x0000000000000000        0x0 binaries/getdev.o
 .note.GNU-stack
                0x0000000000000000        0x0 binaries/getitem.o
 .note.GNU-stack
                0x0000000000000000        0x0 binaries/getmem.o
 .note.GNU-stack
                0x0000000000000000        0x0 binaries/getpid.o
 .note.GNU-stack
                0x0000000000000000        0x0 binaries/getppid.o
 .note.GNU-stack
                0x0000000000000000        0x0 binaries/getprio.o
 .note.GNU-stack
                0x0000000000000000        0x0 binaries/getstk.o
 .note.GNU-stack
                0x0000000000000000        0x0 binaries/gettime.o
 .note.GNU-stack
                0x0000000000000000        0x0 binaries/getutime.o
 .note.GNU-stack
                0x0000000000000000        0x0 binaries/host2netlb.o
 .note.GNU-stack
                0x0000000000000000        0x0 binaries/init.o
 .note.GNU-stack
                0x0000000000000000        0x0 binaries/initialize.o
 .note.GNU-stack
                0x0000000000000000        0x0 binaries/insert.o
 .note.GNU-stack
                0x0000000000000000        0x0 binaries/insertd.o
 .note.GNU-stack
                0x0000000000000000        0x0 binaries/iobound.o
 .note.GNU-stack
                0x0000000000000000        0x0 binaries/ioerr.o
 .note.GNU-stack
                0x0000000000000000        0x0 binaries/ionull.o
 .note.GNU-stack
                0x0000000000000000        0x0 binaries/kill.o
 .note.GNU-stack
                0x0000000000000000        0x0 binaries/kprintf.o
 .note.GNU-stack
                0x0000000000000000        0x0 binaries/lab2q3.o
 .note.GNU-stack
                0x0000000000000000        0x0 binaries/lab2q4.o
 .note.GNU-stack
                0x0000000000000000        0x0 binaries/lab2q5.o
 .note.GNU-stack
                0x0000000000000000        0x0 binaries/lab3q3.o
 .note.GNU-stack
                0x0000000000000000        0x0 binaries/lab3q4.o
 .note.GNU-stack
                0x0000000000000000        0x0 binaries/main.o
 .note.GNU-stack
                0x0000000000000000        0x0 binaries/mark.o
 .note.GNU-stack
                0x0000000000000000        0x0 binaries/meminit.o
 .note.GNU-stack
                0x0000000000000000        0x0 binaries/mkbufpool.o
 .note.GNU-stack
                0x0000000000000000        0x0 binaries/mltfbq_insert.o
 .note.GNU-stack
                0x0000000000000000        0x0 binaries/multilevelfbq.o
 .note.GNU-stack
                0x0000000000000000        0x0 binaries/myappA.o
 .note.GNU-stack
                0x0000000000000000        0x0 binaries/myfuncA.o
 .note.GNU-stack
                0x0000000000000000        0x0 binaries/myhacker.o
 .note.GNU-stack
                0x0000000000000000        0x0 binaries/myvictim.o
 .note.GNU-stack
                0x0000000000000000        0x0 binaries/mywelcomemsg.o
 .note.GNU-stack
                0x0000000000000000        0x0 binaries/newqueue.o
 .note.GNU-stack
                0x0000000000000000        0x0 binaries/open.o
 .note.GNU-stack
                0x0000000000000000        0x0 binaries/panic.o
 .note.GNU-stack
                0x0000000000000000        0x0 binaries/pci.o
 .note.GNU-stack
                0x0000000000000000        0x0 binaries/platinit.o
 .note.GNU-stack
                0x0000000000000000        0x0 binaries/printprstate.o
 .note.GNU-stack
                0x0000000000000000        0x0 binaries/prntsegaddr.o
 .note.GNU-stack
                0x0000000000000000        0x0 binaries/ptclear.o
 .note.GNU-stack
                0x0000000000000000        0x0 binaries/ptcount.o
 .note.GNU-stack
                0x0000000000000000        0x0 binaries/ptcreate.o
 .note.GNU-stack
                0x0000000000000000        0x0 binaries/ptdelete.o
 .note.GNU-stack
                0x0000000000000000        0x0 binaries/ptinit.o
 .note.GNU-stack
                0x0000000000000000        0x0 binaries/ptrecv.o
 .note.GNU-stack
                0x0000000000000000        0x0 binaries/ptreset.o
 .note.GNU-stack
                0x0000000000000000        0x0 binaries/ptsend.o
 .note.GNU-stack
                0x0000000000000000        0x0 binaries/putc.o
 .note.GNU-stack
                0x0000000000000000        0x0 binaries/quark_irq.o
 .note.GNU-stack
                0x0000000000000000        0x0 binaries/quark_pdat.o
 .note.GNU-stack
                0x0000000000000000        0x0 binaries/queue.o
 .note.GNU-stack
                0x0000000000000000        0x0 binaries/read.o
 .note.GNU-stack
                0x0000000000000000        0x0 binaries/ready.o
 .note.GNU-stack
                0x0000000000000000        0x0 binaries/receive.o
 .note.GNU-stack
                0x0000000000000000        0x0 binaries/receiveex.o
 .note.GNU-stack
                0x0000000000000000        0x0 binaries/receiverq.o
 .note.GNU-stack
                0x0000000000000000        0x0 binaries/recv_func.o
 .note.GNU-stack
                0x0000000000000000        0x0 binaries/recvclr.o
 .note.GNU-stack
                0x0000000000000000        0x0 binaries/recvhandler.o
 .note.GNU-stack
                0x0000000000000000        0x0 binaries/recvtime.o
 .note.GNU-stack
                0x0000000000000000        0x0 binaries/registercb.o
 .note.GNU-stack
                0x0000000000000000        0x0 binaries/registercbsig.o
 .note.GNU-stack
                0x0000000000000000        0x0 binaries/resched.o
 .note.GNU-stack
                0x0000000000000000        0x0 binaries/resume.o
 .note.GNU-stack
                0x0000000000000000        0x0 binaries/seek.o
 .note.GNU-stack
                0x0000000000000000        0x0 binaries/semcount.o
 .note.GNU-stack
                0x0000000000000000        0x0 binaries/semcreate.o
 .note.GNU-stack
                0x0000000000000000        0x0 binaries/semdelete.o
 .note.GNU-stack
                0x0000000000000000        0x0 binaries/semreset.o
 .note.GNU-stack
                0x0000000000000000        0x0 binaries/senbt.o
 .note.GNU-stack
                0x0000000000000000        0x0 binaries/send.o
 .note.GNU-stack
                0x0000000000000000        0x0 binaries/send_func.o
 .note.GNU-stack
                0x0000000000000000        0x0 binaries/sendex.o
 .note.GNU-stack
                0x0000000000000000        0x0 binaries/signal.o
 .note.GNU-stack
                0x0000000000000000        0x0 binaries/signaln.o
 .note.GNU-stack
                0x0000000000000000        0x0 binaries/sleep.o
 .note.GNU-stack
                0x0000000000000000        0x0 binaries/stackdepth.o
 .note.GNU-stack
                0x0000000000000000        0x0 binaries/stacktrace.o
 .note.GNU-stack
                0x0000000000000000        0x0 binaries/suspend.o
 .note.GNU-stack
                0x0000000000000000        0x0 binaries/tsdtab.o
 .note.GNU-stack
                0x0000000000000000        0x0 binaries/unsleep.o
 .note.GNU-stack
                0x0000000000000000        0x0 binaries/userret.o
 .note.GNU-stack
                0x0000000000000000        0x0 binaries/wait.o
 .note.GNU-stack
                0x0000000000000000        0x0 binaries/wakeup.o
 .note.GNU-stack
                0x0000000000000000        0x0 binaries/write.o
 .note.GNU-stack
                0x0000000000000000        0x0 binaries/xdone.o
 .note.GNU-stack
                0x0000000000000000        0x0 binaries/yield.o
 .note.GNU-stack
                0x0000000000000000        0x0 binaries/abs.o
 .note.GNU-stack
                0x0000000000000000        0x0 binaries/atoi.o
 .note.GNU-stack
                0x0000000000000000        0x0 binaries/atol.o
 .note.GNU-stack
                0x0000000000000000        0x0 binaries/bzero.o
 .note.GNU-stack
                0x0000000000000000        0x0 binaries/ctype_.o
 .note.GNU-stack
                0x0000000000000000        0x0 binaries/doprnt.o
 .note.GNU-stack
                0x0000000000000000        0x0 binaries/doscan.o
 .note.GNU-stack
                0x0000000000000000        0x0 binaries/fdoprnt.o
 .note.GNU-stack
                0x0000000000000000        0x0 binaries/fgetc.o
 .note.GNU-stack
                0x0000000000000000        0x0 binaries/fgets.o
 .note.GNU-stack
                0x0000000000000000        0x0 binaries/fprintf.o
 .note.GNU-stack
                0x0000000000000000        0x0 binaries/fputc.o
 .note.GNU-stack
                0x0000000000000000        0x0 binaries/fputs.o
 .note.GNU-stack
                0x0000000000000000        0x0 binaries/fscanf.o
 .note.GNU-stack
                0x0000000000000000        0x0 binaries/getchar.o
 .note.GNU-stack
                0x0000000000000000        0x0 binaries/labs.o
 .note.GNU-stack
                0x0000000000000000        0x0 binaries/memchr.o
 .note.GNU-stack
                0x0000000000000000        0x0 binaries/memcmp.o
 .note.GNU-stack
                0x0000000000000000        0x0 binaries/memcpy.o
 .note.GNU-stack
                0x0000000000000000        0x0 binaries/memset.o
 .note.GNU-stack
                0x0000000000000000        0x0 binaries/printf.o
 .note.GNU-stack
                0x0000000000000000        0x0 binaries/putchar.o
 .note.GNU-stack
                0x0000000000000000        0x0 binaries/qsort.o
 .note.GNU-stack
                0x0000000000000000        0x0 binaries/rand.o
 .note.GNU-stack
                0x0000000000000000        0x0 binaries/sprintf.o
 .note.GNU-stack
                0x0000000000000000        0x0 binaries/sscanf.o
 .note.GNU-stack
                0x0000000000000000        0x0 binaries/strchr.o
 .note.GNU-stack
                0x0000000000000000        0x0 binaries/strcmp.o
 .note.GNU-stack
                0x0000000000000000        0x0 binaries/strcpy.o
 .note.GNU-stack
                0x0000000000000000        0x0 binaries/strlen.o
 .note.GNU-stack
                0x0000000000000000        0x0 binaries/strncat.o
 .note.GNU-stack
                0x0000000000000000        0x0 binaries/strncmp.o
 .note.GNU-stack
                0x0000000000000000        0x0 binaries/strncpy.o
 .note.GNU-stack
                0x0000000000000000        0x0 binaries/strnlen.o
 .note.GNU-stack
                0x0000000000000000        0x0 binaries/strrchr.o
 .note.GNU-stack
                0x0000000000000000        0x0 binaries/strstr.o
 .note.GNU-stack
                0x0000000000000000        0x0 binaries/ttycontrol.o
 .note.GNU-stack
                0x0000000000000000        0x0 binaries/ttygetc.o
 .note.GNU-stack
                0x0000000000000000        0x0 binaries/ttyhandle_in.o
 .note.GNU-stack
                0x0000000000000000        0x0 binaries/ttyhandle_out.o
 .note.GNU-stack
                0x0000000000000000        0x0 binaries/ttyhandler.o
 .note.GNU-stack
                0x0000000000000000        0x0 binaries/ttyinit.o
 .note.GNU-stack
                0x0000000000000000        0x0 binaries/ttykickout.o
 .note.GNU-stack
                0x0000000000000000        0x0 binaries/ttyputc.o
 .note.GNU-stack
                0x0000000000000000        0x0 binaries/ttyread.o
 .note.GNU-stack
                0x0000000000000000        0x0 binaries/ttywrite.o
 .note.GNU-stack
                0x0000000000000000        0x0 binaries/mount.o
 .note.GNU-stack
                0x0000000000000000        0x0 binaries/naminit.o
 .note.GNU-stack
                0x0000000000000000        0x0 binaries/nammap.o
 .note.GNU-stack
                0x0000000000000000        0x0 binaries/namopen.o
 .note.GNU-stack
                0x0000000000000000        0x0 binaries/colon2mac.o
 .note.GNU-stack
                0x0000000000000000        0x0 binaries/ethcontrol.o
 .note.GNU-stack
                0x0000000000000000        0x0 binaries/ethhandler.o
 .note.GNU-stack
                0x0000000000000000        0x0 binaries/ethinit.o
 .note.GNU-stack
                0x0000000000000000        0x0 binaries/ethmcast.o
 .note.GNU-stack
                0x0000000000000000        0x0 binaries/ethread.o
 .note.GNU-stack
                0x0000000000000000        0x0 binaries/ethwrite.o
 .note.GNU-stack
                0x0000000000000000        0x0 binaries/rdsbufalloc.o
 .note.GNU-stack
                0x0000000000000000        0x0 binaries/rdsclose.o
 .note.GNU-stack
                0x0000000000000000        0x0 binaries/rdscomm.o
 .note.GNU-stack
                0x0000000000000000        0x0 binaries/rdscontrol.o
 .note.GNU-stack
                0x0000000000000000        0x0 binaries/rdsinit.o
 .note.GNU-stack
                0x0000000000000000        0x0 binaries/rdsopen.o
 .note.GNU-stack
                0x0000000000000000        0x0 binaries/rdsprocess.o
 .note.GNU-stack
                0x0000000000000000        0x0 binaries/rdsread.o
 .note.GNU-stack
                0x0000000000000000        0x0 binaries/rdswrite.o
 .note.GNU-stack
                0x0000000000000000        0x0 binaries/ramclose.o
 .note.GNU-stack
                0x0000000000000000        0x0 binaries/raminit.o
 .note.GNU-stack
                0x0000000000000000        0x0 binaries/ramopen.o
 .note.GNU-stack
                0x0000000000000000        0x0 binaries/ramread.o
 .note.GNU-stack
                0x0000000000000000        0x0 binaries/ramwrite.o
 .note.GNU-stack
                0x0000000000000000        0x0 binaries/lfdballoc.o
 .note.GNU-stack
                0x0000000000000000        0x0 binaries/lfdbfree.o
 .note.GNU-stack
                0x0000000000000000        0x0 binaries/lfflush.o
 .note.GNU-stack
                0x0000000000000000        0x0 binaries/lfgetmode.o
 .note.GNU-stack
                0x0000000000000000        0x0 binaries/lfiballoc.o
 .note.GNU-stack
                0x0000000000000000        0x0 binaries/lfibclear.o
 .note.GNU-stack
                0x0000000000000000        0x0 binaries/lfibget.o
 .note.GNU-stack
                0x0000000000000000        0x0 binaries/lfibput.o
 .note.GNU-stack
                0x0000000000000000        0x0 binaries/lflclose.o
 .note.GNU-stack
                0x0000000000000000        0x0 binaries/lflcontrol.o
 .note.GNU-stack
                0x0000000000000000        0x0 binaries/lflgetc.o
 .note.GNU-stack
                0x0000000000000000        0x0 binaries/lflinit.o
 .note.GNU-stack
                0x0000000000000000        0x0 binaries/lflputc.o
 .note.GNU-stack
                0x0000000000000000        0x0 binaries/lflread.o
 .note.GNU-stack
                0x0000000000000000        0x0 binaries/lflseek.o
 .note.GNU-stack
                0x0000000000000000        0x0 binaries/lflwrite.o
 .note.GNU-stack
                0x0000000000000000        0x0 binaries/lfsckfmt.o
 .note.GNU-stack
                0x0000000000000000        0x0 binaries/lfscreate.o
 .note.GNU-stack
                0x0000000000000000        0x0 binaries/lfsetup.o
 .note.GNU-stack
                0x0000000000000000        0x0 binaries/lfsinit.o
 .note.GNU-stack
                0x0000000000000000        0x0 binaries/lfsopen.o
 .note.GNU-stack
                0x0000000000000000        0x0 binaries/lftruncate.o
 .note.GNU-stack
                0x0000000000000000        0x0 binaries/rflclose.o
 .note.GNU-stack
                0x0000000000000000        0x0 binaries/rflgetc.o
 .note.GNU-stack
                0x0000000000000000        0x0 binaries/rflinit.o
 .note.GNU-stack
                0x0000000000000000        0x0 binaries/rflputc.o
 .note.GNU-stack
                0x0000000000000000        0x0 binaries/rflread.o
 .note.GNU-stack
                0x0000000000000000        0x0 binaries/rflseek.o
 .note.GNU-stack
                0x0000000000000000        0x0 binaries/rflwrite.o
 .note.GNU-stack
                0x0000000000000000        0x0 binaries/rfscomm.o
 .note.GNU-stack
                0x0000000000000000        0x0 binaries/rfscontrol.o
 .note.GNU-stack
                0x0000000000000000        0x0 binaries/rfsgetmode.o
 .note.GNU-stack
                0x0000000000000000        0x0 binaries/rfsinit.o
 .note.GNU-stack
                0x0000000000000000        0x0 binaries/rfsndmsg.o
 .note.GNU-stack
                0x0000000000000000        0x0 binaries/rfsopen.o
 .note.GNU-stack
                0x0000000000000000        0x0 binaries/arp.o
 .note.GNU-stack
                0x0000000000000000        0x0 binaries/dhcp.o
 .note.GNU-stack
                0x0000000000000000        0x0 binaries/dot2ip.o
 .note.GNU-stack
                0x0000000000000000        0x0 binaries/hexdump.o
 .note.GNU-stack
                0x0000000000000000        0x0 binaries/icmp.o
 .note.GNU-stack
                0x0000000000000000        0x0 binaries/ip.o
 .note.GNU-stack
                0x0000000000000000        0x0 binaries/net.o
 .note.GNU-stack
                0x0000000000000000        0x0 binaries/netstart.o
 .note.GNU-stack
                0x0000000000000000        0x0 binaries/pdump.o
 .note.GNU-stack
                0x0000000000000000        0x0 binaries/tftp.o
 .note.GNU-stack
                0x0000000000000000        0x0 binaries/udp.o
 .note.GNU-stack
                0x0000000000000000        0x0 binaries/addargs.o
 .note.GNU-stack
                0x0000000000000000        0x0 binaries/lexan.o
 .note.GNU-stack
                0x0000000000000000        0x0 binaries/shell.o
 .note.GNU-stack
                0x0000000000000000        0x0 binaries/xsh_argecho.o
 .note.GNU-stack
                0x0000000000000000        0x0 binaries/xsh_arp.o
 .note.GNU-stack
                0x0000000000000000        0x0 binaries/xsh_cat.o
 .note.GNU-stack
                0x0000000000000000        0x0 binaries/xsh_clear.o
 .note.GNU-stack
                0x0000000000000000        0x0 binaries/xsh_date.o
 .note.GNU-stack
                0x0000000000000000        0x0 binaries/xsh_devdump.o
 .note.GNU-stack
                0x0000000000000000        0x0 binaries/xsh_echo.o
 .note.GNU-stack
                0x0000000000000000        0x0 binaries/xsh_exit.o
 .note.GNU-stack
                0x0000000000000000        0x0 binaries/xsh_help.o
 .note.GNU-stack
                0x0000000000000000        0x0 binaries/xsh_ipaddr.o
 .note.GNU-stack
                0x0000000000000000        0x0 binaries/xsh_kill.o
 .note.GNU-stack
                0x0000000000000000        0x0 binaries/xsh_memdump.o
 .note.GNU-stack
                0x0000000000000000        0x0 binaries/xsh_memstat.o
 .note.GNU-stack
                0x0000000000000000        0x0 binaries/xsh_ping.o
 .note.GNU-stack
                0x0000000000000000        0x0 binaries/xsh_ps.o
 .note.GNU-stack
                0x0000000000000000        0x0 binaries/xsh_sleep.o
 .note.GNU-stack
                0x0000000000000000        0x0 binaries/xsh_udpdump.o
 .note.GNU-stack
                0x0000000000000000        0x0 binaries/xsh_udpecho.o
 .note.GNU-stack
                0x0000000000000000        0x0 binaries/xsh_udpeserver.o
 .note.GNU-stack
                0x0000000000000000        0x0 binaries/xsh_uptime.o
 .note.GNU-stack
                0x0000000000000000        0x0 binaries/host2netlc.o
