
Allocating common symbols
Common symbol       size              file

netbufpool          0x4               binaries/net.o
readylist           0x2               binaries/ready.o
rfltab              0x5a0             binaries/rflinit.o
sleepq              0x2               binaries/clkinit.o
nnames              0x4               binaries/naminit.o
udptab              0x168             binaries/udp.o
minheap             0x4               binaries/meminit.o
marks               0x50              binaries/mark.o
currpid             0x4               binaries/initialize.o
Lf_data             0x20c             binaries/lfsinit.o
porttab             0x2d0             binaries/ptinit.o
girmask             0x2               binaries/evec.o
ttytab              0x10c             binaries/ttyinit.o
proctab             0x1c20            binaries/initialize.o
prcount             0x4               binaries/initialize.o
lfltab              0xf00             binaries/lflinit.o
rdstab              0x8c              binaries/rdsinit.o
ethertab            0x138             binaries/ethinit.o
NetData             0xa8              binaries/net.o
nmarks              0x4               binaries/mark.o
Defer               0x8               binaries/resched.o
semtab              0x4b0             binaries/initialize.o
maxheap             0x4               binaries/meminit.o
preempt             0x4               binaries/clkinit.o
buftab              0xf0              binaries/bufinit.o
Rf_data             0x18              binaries/rfsinit.o
mkmutex             0x4               binaries/mark.o
clktimemsec         0x4               binaries/clkinit.o
clktime             0x4               binaries/clkinit.o
arpcache            0x140             binaries/arp.o
icmptab             0x230             binaries/icmp.o
nbpools             0x4               binaries/bufinit.o
queuetab            0x980             binaries/queue.o
ptnextid            0x4               binaries/ptinit.o
Ram                 0x19000           binaries/raminit.o
ipoqueue            0x2c              binaries/ip.o
memlist             0x8               binaries/initialize.o
nametab             0x19a0            binaries/naminit.o
ptfree              0x4               binaries/ptinit.o

Memory Configuration

Name             Origin             Length             Attributes
*default*        0x0000000000000000 0xffffffffffffffff

Linker script and memory map

                0x0000000000100000                physbase = 0x100000
                0x0000000000100000                . = physbase
                0x0000000000100000                . = ALIGN (0x1000)

.text           0x0000000000100000    0x15000
                0x0000000000100000                text = ABSOLUTE (.)
 *(.text .text.*)
 .text          0x0000000000100000      0x1ac binaries/start.o
                0x0000000000100028                start
                0x00000000001000fa                inb
                0x0000000000100102                inw
                0x000000000010010b                inl
                0x0000000000100113                outb
                0x000000000010011d                outw
                0x0000000000100128                outl
                0x0000000000100132                _rtcin
                0x000000000010013d                ___udivsi3
                0x0000000000100148                ___divsi3
                0x0000000000100154                sbzero
                0x0000000000100164                bcopy
                0x0000000000100178                insw
                0x000000000010018e                outsw
                0x00000000001001a4                lidt
 .text          0x00000000001001ac       0x28 binaries/app1.o
                0x00000000001001ac                app1
 .text          0x00000000001001d4       0x63 binaries/app2.o
                0x00000000001001d4                app2
 .text          0x0000000000100237       0x80 binaries/app3.o
                0x0000000000100237                app3
 .text          0x00000000001002b7       0x36 binaries/app_lim.o
                0x00000000001002b7                app_lim
                0x00000000001002cc                app_sleep
 .text          0x00000000001002ed       0x1b binaries/app_unlim.o
                0x00000000001002ed                app_unlim
 .text          0x0000000000100308      0x2b9 binaries/ascdate.o
                0x0000000000100308                ascdate
 .text          0x00000000001005c1       0x14 binaries/bufinit.o
                0x00000000001005c1                bufinit
 .text          0x00000000001005d5       0x6a binaries/chprio.o
                0x00000000001005d5                chprio
 .text          0x000000000010063f       0x7a binaries/clkhandler.o
                0x000000000010063f                clkhandler
 .text          0x00000000001006b9       0x67 binaries/clkinit.o
                0x00000000001006b9                clkinit
 .text          0x0000000000100720       0x56 binaries/close.o
                0x0000000000100720                close
 .text          0x0000000000100776        0x0 binaries/conf.o
 .text          0x0000000000100776       0x5c binaries/control.o
                0x0000000000100776                control
 .text          0x00000000001007d2       0x8a binaries/cpubound.o
                0x00000000001007d2                cpubound
 .text          0x000000000010085c      0x272 binaries/create.o
                0x000000000010085c                create
 .text          0x0000000000100ace      0x20e binaries/early_imr.o
                0x0000000000100ace                intel_cln_early_sb_read_reg
                0x0000000000100b25                intel_cln_early_sb_write_reg
                0x0000000000100bdf                remove_irm_protections
 .text          0x0000000000100cdc      0x2e0 binaries/evec.o
                0x0000000000100cdc                setirmask
                0x0000000000100d14                set_evec
                0x0000000000100d6f                initevec
                0x0000000000100e41                trap
 .text          0x0000000000100fbc       0xf7 binaries/f1.o
                0x0000000000100fbc                f4
                0x0000000000100ff6                f3
                0x0000000000101035                f2
                0x0000000000101074                f1
 .text          0x00000000001010b3       0x7f binaries/freebuf.o
                0x00000000001010b3                freebuf
 .text          0x0000000000101132      0x108 binaries/freemem.o
                0x0000000000101132                freemem
 .text          0x000000000010123a       0x6e binaries/getbuf.o
                0x000000000010123a                getbuf
 .text          0x00000000001012a8       0x56 binaries/getc.o
                0x00000000001012a8                getc
 .text          0x00000000001012fe       0x69 binaries/getdev.o
                0x00000000001012fe                getdev
 .text          0x0000000000101367       0x82 binaries/getitem.o
                0x0000000000101367                getitem
                0x0000000000101396                getfirst
                0x00000000001013bd                getlast
 .text          0x00000000001013e9       0xc2 binaries/getmem.o
                0x00000000001013e9                getmem
 .text          0x00000000001014ab        0xa binaries/getpid.o
                0x00000000001014ab                getpid
 .text          0x00000000001014b5       0x14 binaries/getppid.o
                0x00000000001014b5                getppid
 .text          0x00000000001014c9       0x54 binaries/getprio.o
                0x00000000001014c9                getprio
 .text          0x000000000010151d       0xac binaries/getstk.o
                0x000000000010151d                getstk
 .text          0x00000000001015c9       0x32 binaries/gettime.o
                0x00000000001015c9                gettime
 .text          0x00000000001015fb      0x188 binaries/getutime.o
                0x00000000001015fb                getutime
 .text          0x0000000000101783       0x13 binaries/host2netlb.o
                0x0000000000101783                host2netlb
 .text          0x0000000000101796       0x56 binaries/init.o
                0x0000000000101796                init
 .text          0x00000000001017ec      0x276 binaries/initialize.o
                0x00000000001017ec                nulluser
                0x0000000000101a18                stop
                0x0000000000101a3c                delay
 .text          0x0000000000101a62       0xd7 binaries/insert.o
                0x0000000000101a62                insert
 .text          0x0000000000101b39       0xe7 binaries/insertd.o
                0x0000000000101b39                insertd
 .text          0x0000000000101c20       0x83 binaries/iobound.o
                0x0000000000101c20                iobound
 .text          0x0000000000101ca3        0xa binaries/ioerr.o
                0x0000000000101ca3                ioerr
 .text          0x0000000000101cad        0xa binaries/ionull.o
                0x0000000000101cad                ionull
 .text          0x0000000000101cb7      0x158 binaries/kill.o
                0x0000000000101cb7                kill
 .text          0x0000000000101e0f       0xa9 binaries/kprintf.o
                0x0000000000101e0f                kputc
                0x0000000000101e41                console_init
                0x0000000000101e74                kgetc
                0x0000000000101e9a                kprintf
 .text          0x0000000000101eb8      0x154 binaries/lab2q3.o
                0x0000000000101eb8                lab2q3t1
 .text          0x000000000010200c       0xf5 binaries/lab2q4.o
                0x000000000010200c                lab2q4t1
                0x0000000000102051                lab2q4t2
                0x0000000000102092                lab2q4t3
 .text          0x0000000000102101       0x68 binaries/lab2q5.o
                0x0000000000102101                lab2q5t1
 .text          0x0000000000102169       0x87 binaries/main.o
                0x0000000000102169                homework3
                0x0000000000102176                main
 .text          0x00000000001021f0       0x99 binaries/mark.o
                0x00000000001021f0                markinit
                0x0000000000102211                mark
 .text          0x0000000000102289      0x1ff binaries/meminit.o
                0x0000000000102289                meminit
                0x0000000000102418                setsegs
 .text          0x0000000000102488      0x122 binaries/mkbufpool.o
                0x0000000000102488                mkbufpool
 .text          0x00000000001025aa       0xa3 binaries/myappA.o
                0x00000000001025aa                myappA
 .text          0x000000000010264d       0x77 binaries/myfuncA.o
                0x000000000010264d                myfuncA
 .text          0x00000000001026c4       0x73 binaries/myhacker.o
                0x00000000001026c4                myhackermalware
                0x00000000001026f5                myhacker
 .text          0x0000000000102737       0x7b binaries/myvictim.o
                0x0000000000102737                myvictim2
                0x000000000010275f                myvictim1
                0x000000000010276a                myvictim
 .text          0x00000000001027b2       0x15 binaries/mywelcomemsg.o
                0x00000000001027b2                mywelcomemsg
 .text          0x00000000001027c7       0xa0 binaries/newqueue.o
                0x00000000001027c7                newqueue
 .text          0x0000000000102867       0x5c binaries/open.o
                0x0000000000102867                open
 .text          0x00000000001028c3       0x20 binaries/panic.o
                0x00000000001028c3                panic
 .text          0x00000000001028e3      0x282 binaries/pci.o
                0x00000000001028e3                pci_init
                0x00000000001028ed                find_pci_device
                0x00000000001029ac                pci_read_config_byte
                0x00000000001029ea                pci_read_config_word
                0x0000000000102a2a                pci_read_config_dword
                0x0000000000102a68                pci_write_config_byte
                0x0000000000102aa4                pci_write_config_word
                0x0000000000102ae1                pci_write_config_dword
                0x0000000000102b1d                pci_get_dev_mmio_base_addr
 .text          0x0000000000102b65       0x50 binaries/platinit.o
                0x0000000000102b65                platinit
 .text          0x0000000000102bb5      0x10a binaries/printprstate.o
                0x0000000000102bb5                prtprstate
 .text          0x0000000000102cbf      0x122 binaries/prntsegaddr.o
                0x0000000000102cbf                prntsegaddr
 .text          0x0000000000102de1       0xa9 binaries/ptclear.o
                0x0000000000102de1                _ptclear
 .text          0x0000000000102e8a       0x85 binaries/ptcount.o
                0x0000000000102e8a                ptcount
 .text          0x0000000000102f0f       0xfe binaries/ptcreate.o
                0x0000000000102f0f                ptcreate
 .text          0x000000000010300d       0x63 binaries/ptdelete.o
                0x000000000010300d                ptdelete
 .text          0x0000000000103070       0x91 binaries/ptinit.o
                0x0000000000103070                ptinit
 .text          0x0000000000103101       0xf5 binaries/ptrecv.o
                0x0000000000103101                ptrecv
 .text          0x00000000001031f6       0x66 binaries/ptreset.o
                0x00000000001031f6                ptreset
 .text          0x000000000010325c      0x115 binaries/ptsend.o
                0x000000000010325c                ptsend
 .text          0x0000000000103371       0x64 binaries/putc.o
                0x0000000000103371                putc
 .text          0x00000000001033d5       0xb3 binaries/quark_irq.o
                0x00000000001033d5                quark_irq_routing
 .text          0x0000000000103488      0x19a binaries/quark_pdat.o
                0x0000000000103488                get_quark_pdat_entry_data_by_id
                0x0000000000103552                get_quark_pdat_entry_data_by_desc
 .text          0x0000000000103622       0xad binaries/queue.o
                0x0000000000103622                enqueue
                0x0000000000103684                dequeue
 .text          0x00000000001036cf       0x5c binaries/read.o
                0x00000000001036cf                read
 .text          0x000000000010372b       0x5e binaries/ready.o
                0x000000000010372b                ready
 .text          0x0000000000103789       0x5e binaries/receive.o
                0x0000000000103789                receive
 .text          0x00000000001037e7       0x4f binaries/recvclr.o
                0x00000000001037e7                recvclr
 .text          0x0000000000103836       0xb6 binaries/recvtime.o
                0x0000000000103836                recvtime
 .text          0x00000000001038ec      0x278 binaries/resched.o
                0x00000000001038ec                resched
                0x0000000000103af2                resched_cntl
 .text          0x0000000000103b64       0x7c binaries/resume.o
                0x0000000000103b64                resume
 .text          0x0000000000103be0       0x59 binaries/seek.o
                0x0000000000103be0                seek
 .text          0x0000000000103c39       0x51 binaries/semcount.o
                0x0000000000103c39                semcount
 .text          0x0000000000103c8a       0x93 binaries/semcreate.o
                0x0000000000103c8a                semcreate
 .text          0x0000000000103d1d       0xd1 binaries/semdelete.o
                0x0000000000103d1d                semdelete
 .text          0x0000000000103dee       0xa8 binaries/semreset.o
                0x0000000000103dee                semreset
 .text          0x0000000000103e96       0xb0 binaries/send.o
                0x0000000000103e96                send
 .text          0x0000000000103f46       0x95 binaries/signal.o
                0x0000000000103f46                signal
 .text          0x0000000000103fdb       0xc2 binaries/signaln.o
                0x0000000000103fdb                signaln
 .text          0x000000000010409d       0xbe binaries/sleep.o
                0x000000000010409d                sleepms
                0x0000000000104125                sleep
 .text          0x000000000010415b       0x7f binaries/stackdepth.o
                0x000000000010415b                stackdepth
 .text          0x00000000001041da      0x17e binaries/stacktrace.o
                0x00000000001041da                stacktrace
 .text          0x0000000000104358       0xaa binaries/suspend.o
                0x0000000000104358                suspend
 .text          0x0000000000104402       0x90 binaries/unsleep.o
                0x0000000000104402                unsleep
 .text          0x0000000000104492       0x19 binaries/userret.o
                0x0000000000104492                userret
 .text          0x00000000001044ab       0xb1 binaries/wait.o
                0x00000000001044ab                wait
 .text          0x000000000010455c       0x71 binaries/wakeup.o
                0x000000000010455c                wakeup
 .text          0x00000000001045cd       0x5c binaries/write.o
                0x00000000001045cd                write
 .text          0x0000000000104629       0x1a binaries/xdone.o
                0x0000000000104629                xdone
 .text          0x0000000000104643       0x26 binaries/yield.o
                0x0000000000104643                yield
 .text          0x0000000000104669       0x11 binaries/abs.o
                0x0000000000104669                abs
 .text          0x000000000010467a       0x84 binaries/atoi.o
                0x000000000010467a                atoi
 .text          0x00000000001046fe       0x84 binaries/atol.o
                0x00000000001046fe                atol
 .text          0x0000000000104782       0x1a binaries/bzero.o
                0x0000000000104782                bzero
 .text          0x000000000010479c        0x0 binaries/ctype_.o
 .text          0x000000000010479c      0x6bf binaries/doprnt.o
                0x00000000001048ef                _doprnt
 .text          0x0000000000104e5b      0x5f2 binaries/doscan.o
                0x0000000000104e5b                _doscan
 .text          0x000000000010544d      0x64e binaries/fdoprnt.o
                0x00000000001054d2                _fdoprnt
 .text          0x0000000000105a9b       0x1c binaries/fgetc.o
                0x0000000000105a9b                fgetc
 .text          0x0000000000105ab7       0x61 binaries/fgets.o
                0x0000000000105ab7                fgets
 .text          0x0000000000105b18       0x21 binaries/fprintf.o
                0x0000000000105b18                fprintf
 .text          0x0000000000105b39       0x27 binaries/fputc.o
                0x0000000000105b39                fputc
 .text          0x0000000000105b60       0x3a binaries/fputs.o
                0x0000000000105b60                fputs
 .text          0x0000000000105b9a       0x6a binaries/fscanf.o
                0x0000000000105bd8                fscanf
 .text          0x0000000000105c04       0x1e binaries/getchar.o
                0x0000000000105c04                getchar
 .text          0x0000000000105c22       0x11 binaries/labs.o
                0x0000000000105c22                labs
 .text          0x0000000000105c33       0x36 binaries/memchr.o
                0x0000000000105c33                memchr
 .text          0x0000000000105c69       0x4a binaries/memcmp.o
                0x0000000000105c69                memcmp
 .text          0x0000000000105cb3       0x26 binaries/memcpy.o
                0x0000000000105cb3                memcpy
 .text          0x0000000000105cd9       0x1f binaries/memset.o
                0x0000000000105cd9                memset
 .text          0x0000000000105cf8       0x2f binaries/printf.o
                0x0000000000105cf8                printf
 .text          0x0000000000105d27       0x21 binaries/putchar.o
                0x0000000000105d27                putchar
 .text          0x0000000000105d48      0x1cc binaries/qsort.o
                0x0000000000105eec                qsort
 .text          0x0000000000105f14       0x4c binaries/rand.o
                0x0000000000105f14                srand
                0x0000000000105f21                rand
 .text          0x0000000000105f60       0x48 binaries/sprintf.o
                0x0000000000105f79                sprintf
 .text          0x0000000000105fa8       0x5a binaries/sscanf.o
                0x0000000000105fd8                sscanf
 .text          0x0000000000106002       0x2f binaries/strchr.o
                0x0000000000106002                strchr
 .text          0x0000000000106031       0x45 binaries/strcmp.o
                0x0000000000106031                strcmp
 .text          0x0000000000106076       0x1c binaries/strcpy.o
                0x0000000000106076                strcpy
 .text          0x0000000000106092       0x20 binaries/strlen.o
                0x0000000000106092                strlen
 .text          0x00000000001060b2       0x3d binaries/strncat.o
                0x00000000001060b2                strncat
 .text          0x00000000001060ef       0x3b binaries/strncmp.o
                0x00000000001060ef                strncmp
 .text          0x000000000010612a       0x59 binaries/strncpy.o
                0x000000000010612a                strncpy
 .text          0x0000000000106183       0x38 binaries/strnlen.o
                0x0000000000106183                strnlen
 .text          0x00000000001061bb       0x32 binaries/strrchr.o
                0x00000000001061bb                strrchr
 .text          0x00000000001061ed       0x68 binaries/strstr.o
                0x00000000001061ed                strstr
 .text          0x0000000000106255      0x112 binaries/ttycontrol.o
                0x0000000000106255                ttycontrol
 .text          0x0000000000106367       0xb0 binaries/ttygetc.o
                0x0000000000106367                ttygetc
 .text          0x0000000000106417      0x4a3 binaries/ttyhandle_in.o
                0x00000000001064db                ttyhandle_in
 .text          0x00000000001068ba      0x178 binaries/ttyhandle_out.o
                0x00000000001068ba                ttyhandle_out
 .text          0x0000000000106a32       0x85 binaries/ttyhandler.o
                0x0000000000106a32                ttyhandler
 .text          0x0000000000106ab7      0x15d binaries/ttyinit.o
                0x0000000000106ab7                ttyinit
 .text          0x0000000000106c14        0xf binaries/ttykickout.o
                0x0000000000106c14                ttykickout
 .text          0x0000000000106c23       0xb2 binaries/ttyputc.o
                0x0000000000106c23                ttyputc
 .text          0x0000000000106cd5       0xff binaries/ttyread.o
                0x0000000000106cd5                ttyread
 .text          0x0000000000106dd4       0x4d binaries/ttywrite.o
                0x0000000000106dd4                ttywrite
 .text          0x0000000000106e21      0x129 binaries/mount.o
                0x0000000000106e21                namlen
                0x0000000000106e5d                mount
 .text          0x0000000000106f4a      0x1c4 binaries/naminit.o
                0x0000000000106f4a                naminit
 .text          0x000000000010710e      0x1fe binaries/nammap.o
                0x000000000010710e                namrepl
                0x0000000000107231                namcpy
                0x000000000010727f                nammap
 .text          0x000000000010730c       0x44 binaries/namopen.o
                0x000000000010730c                namopen
 .text          0x0000000000107350       0xd4 binaries/colon2mac.o
                0x0000000000107350                colon2mac
 .text          0x0000000000107424       0x7d binaries/ethcontrol.o
                0x0000000000107424                ethcontrol
 .text          0x00000000001074a1      0x17e binaries/ethhandler.o
                0x00000000001074a1                ethhandler
 .text          0x000000000010761f      0x548 binaries/ethinit.o
                0x000000000010761f                eth_phy_read
                0x000000000010765f                eth_phy_write
                0x00000000001076a0                eth_phy_reset
                0x000000000010777a                ethinit
 .text          0x0000000000107b67      0x107 binaries/ethmcast.o
                0x0000000000107b67                ethmcast_add
                0x0000000000107bb3                ethmcast_remove
 .text          0x0000000000107c6e      0x172 binaries/ethread.o
                0x0000000000107c6e                ethread
 .text          0x0000000000107de0       0xc1 binaries/ethwrite.o
                0x0000000000107de0                ethwrite
 .text          0x0000000000107ea1       0x68 binaries/rdsbufalloc.o
                0x0000000000107ea1                rdsbufalloc
 .text          0x0000000000107f09       0xd6 binaries/rdsclose.o
                0x0000000000107f09                rdsclose
 .text          0x0000000000107fdf      0x1df binaries/rdscomm.o
                0x0000000000107fdf                rdscomm
 .text          0x00000000001081be      0x1c4 binaries/rdscontrol.o
                0x00000000001081be                rdscontrol
 .text          0x0000000000108382      0x1f7 binaries/rdsinit.o
                0x0000000000108382                rdsinit
 .text          0x0000000000108579      0x199 binaries/rdsopen.o
                0x0000000000108579                rdsopen
 .text          0x0000000000108712      0x2c5 binaries/rdsprocess.o
                0x0000000000108712                rdsprocess
 .text          0x00000000001089d7      0x1d8 binaries/rdsread.o
                0x00000000001089d7                rdsread
 .text          0x0000000000108baf      0x1ae binaries/rdswrite.o
                0x0000000000108baf                rdswrite
 .text          0x0000000000108d5d        0xa binaries/ramclose.o
                0x0000000000108d5d                ramclose
 .text          0x0000000000108d67       0x35 binaries/raminit.o
                0x0000000000108d67                raminit
 .text          0x0000000000108d9c        0xa binaries/ramopen.o
                0x0000000000108d9c                ramopen
 .text          0x0000000000108da6       0x26 binaries/ramread.o
                0x0000000000108da6                ramread
 .text          0x0000000000108dcc       0x26 binaries/ramwrite.o
                0x0000000000108dcc                ramwrite
 .text          0x0000000000108df2       0x87 binaries/lfdballoc.o
                0x0000000000108df2                lfdballoc
 .text          0x0000000000108e79       0x49 binaries/lfdbfree.o
                0x0000000000108e79                lfdbfree
 .text          0x0000000000108ec2       0xa1 binaries/lfflush.o
                0x0000000000108ec2                lfflush
 .text          0x0000000000108f63       0x82 binaries/lfgetmode.o
                0x0000000000108f63                lfgetmode
 .text          0x0000000000108fe5       0x60 binaries/lfiballoc.o
                0x0000000000108fe5                lfiballoc
 .text          0x0000000000109045       0x27 binaries/lfibclear.o
                0x0000000000109045                lfibclear
 .text          0x000000000010906c       0x6c binaries/lfibget.o
                0x000000000010906c                lfibget
 .text          0x00000000001090d8       0x88 binaries/lfibput.o
                0x00000000001090d8                lfibput
 .text          0x0000000000109160       0xa4 binaries/lflclose.o
                0x0000000000109160                lflclose
 .text          0x0000000000109204       0xc2 binaries/lflcontrol.o
                0x0000000000109204                lflcontrol
 .text          0x00000000001092c6       0xfd binaries/lflgetc.o
                0x00000000001092c6                lflgetc
 .text          0x00000000001093c3       0xe7 binaries/lflinit.o
                0x00000000001093c3                lflinit
 .text          0x00000000001094aa      0x12f binaries/lflputc.o
                0x00000000001094aa                lflputc
 .text          0x00000000001095d9       0x6b binaries/lflread.o
                0x00000000001095d9                lflread
 .text          0x0000000000109644       0xbd binaries/lflseek.o
                0x0000000000109644                lflseek
 .text          0x0000000000109701       0x52 binaries/lflwrite.o
                0x0000000000109701                lflwrite
 .text          0x0000000000109753      0x114 binaries/lfsckfmt.o
                0x0000000000109753                lfsckfmt
 .text          0x0000000000109867      0x1e6 binaries/lfscreate.o
                0x0000000000109867                lfscreate
 .text          0x0000000000109a4d      0x1b1 binaries/lfsetup.o
                0x0000000000109a4d                lfsetup
 .text          0x0000000000109bfe       0x45 binaries/lfsinit.o
                0x0000000000109bfe                lfsinit
 .text          0x0000000000109c43      0x302 binaries/lfsopen.o
                0x0000000000109c43                lfsopen
 .text          0x0000000000109f45      0x112 binaries/lftruncate.o
                0x0000000000109f45                lftruncate
 .text          0x000000000010a057       0x69 binaries/rflclose.o
                0x000000000010a057                rflclose
 .text          0x000000000010a0c0       0x29 binaries/rflgetc.o
                0x000000000010a0c0                rflgetc
 .text          0x000000000010a0e9       0x6c binaries/rflinit.o
                0x000000000010a0e9                rflinit
 .text          0x000000000010a155       0x29 binaries/rflputc.o
                0x000000000010a155                rflputc
 .text          0x000000000010a17e      0x2b6 binaries/rflread.o
                0x000000000010a17e                rflread
 .text          0x000000000010a434       0x68 binaries/rflseek.o
                0x000000000010a434                rflseek
 .text          0x000000000010a49c      0x2fa binaries/rflwrite.o
                0x000000000010a49c                rflwrite
 .text          0x000000000010a796      0x17d binaries/rfscomm.o
                0x000000000010a796                rfscomm
 .text          0x000000000010a913      0x22b binaries/rfscontrol.o
                0x000000000010a913                rfscontrol
 .text          0x000000000010ab3e       0x82 binaries/rfsgetmode.o
                0x000000000010ab3e                rfsgetmode
 .text          0x000000000010abc0       0x7e binaries/rfsinit.o
                0x000000000010abc0                rfsinit
 .text          0x000000000010ac3e       0xad binaries/rfsndmsg.o
                0x000000000010ac3e                rfsndmsg
 .text          0x000000000010aceb      0x243 binaries/rfsopen.o
                0x000000000010aceb                rfsopen
 .text          0x000000000010af2e      0x626 binaries/arp.o
                0x000000000010af2e                arp_init
                0x000000000010af4a                arp_alloc
                0x000000000010aff1                arp_ntoh
                0x000000000010b05e                arp_hton
                0x000000000010b0cb                arp_resolve
                0x000000000010b31c                arp_in
 .text          0x000000000010b554      0x5ed binaries/dhcp.o
                0x000000000010b554                dhcp_get_opt_val
                0x000000000010b5a8                dhcp_bld_bootp_msg
                0x000000000010b67a                dhcp_bld_disc
                0x000000000010b6cc                dhcp_bld_req
                0x000000000010b767                getlocalip
 .text          0x000000000010bb41       0xda binaries/dot2ip.o
                0x000000000010bb41                dot2ip
 .text          0x000000000010bc1b      0x38c binaries/hexdump.o
                0x000000000010bc1b                hexdump
                0x000000000010bd75                hexadump
 .text          0x000000000010bfa7      0x6f6 binaries/icmp.o
                0x000000000010bfa7                icmp_init
                0x000000000010bfc3                icmp_register
                0x000000000010c081                icmp_recv
                0x000000000010c224                icmp_mkpkt
                0x000000000010c2f1                icmp_in
                0x000000000010c48b                icmp_send
                0x000000000010c4fa                icmp_release
                0x000000000010c615                icmp_cksum
                0x000000000010c66f                icmp_hton
                0x000000000010c686                icmp_ntoh
 .text          0x000000000010c69d      0x5e2 binaries/ip.o
                0x000000000010c69d                ip_local
                0x000000000010c6dd                ipcksum
                0x000000000010c733                ip_ntoh
                0x000000000010c7a0                ip_in
                0x000000000010c8c5                ip_hton
                0x000000000010c932                ip_out
                0x000000000010c9e8                ip_send
                0x000000000010caf3                ipout
                0x000000000010cbe6                ip_enqueue
 .text          0x000000000010cc7f      0x1b2 binaries/net.o
                0x000000000010cc7f                net_init
                0x000000000010cd76                eth_hton
                0x000000000010cd83                eth_ntoh
                0x000000000010cd90                netin
 .text          0x000000000010ce31       0xb9 binaries/netstart.o
                0x000000000010ce31                netstart
 .text          0x000000000010ceea      0xa30 binaries/pdump.o
                0x000000000010ceea                pdump
                0x000000000010d4cf                pdumph
 .text          0x000000000010d91a      0x5b8 binaries/tftp.o
                0x000000000010d91a                tftp_send1
                0x000000000010da2e                tftpget_mb
                0x000000000010deaf                tftpget
 .text          0x000000000010ded2      0xa17 binaries/udp.o
                0x000000000010ded2                udp_init
                0x000000000010df13                udp_in
                0x000000000010e03c                udp_register
                0x000000000010e14d                udp_recv
                0x000000000010e2e6                udp_recvaddr
                0x000000000010e493                udp_send
                0x000000000010e641                udp_sendto
                0x000000000010e7aa                udp_release
                0x000000000010e8bb                udp_ntoh
                0x000000000010e8d2                udp_hton
 .text          0x000000000010e8e9      0x11b binaries/addargs.o
                0x000000000010e8e9                addargs
 .text          0x000000000010ea04      0x1db binaries/lexan.o
                0x000000000010ea04                lexan
 .text          0x000000000010ebdf      0x643 binaries/shell.o
                0x000000000010ebdf                shell
 .text          0x000000000010f222       0x59 binaries/xsh_argecho.o
                0x000000000010f222                xsh_argecho
 .text          0x000000000010f27b      0x1fb binaries/xsh_arp.o
                0x000000000010f27b                xsh_arp
 .text          0x000000000010f476      0x1e1 binaries/xsh_cat.o
                0x000000000010f476                xsh_cat
 .text          0x000000000010f657       0x50 binaries/xsh_clear.o
                0x000000000010f657                xsh_clear
 .text          0x000000000010f6a7      0x27d binaries/xsh_date.o
                0x000000000010f6a7                xsh_date
 .text          0x000000000010f924       0x81 binaries/xsh_devdump.o
                0x000000000010f924                xsh_devdump
 .text          0x000000000010f9a5       0x63 binaries/xsh_echo.o
                0x000000000010f9a5                xsh_echo
 .text          0x000000000010fa08        0xa binaries/xsh_exit.o
                0x000000000010fa08                xsh_exit
 .text          0x000000000010fa12      0x325 binaries/xsh_help.o
                0x000000000010fa12                xsh_help
 .text          0x000000000010fd37      0x36b binaries/xsh_ipaddr.o
                0x000000000010fd37                xsh_ipaddr
 .text          0x00000000001100a2      0x1b6 binaries/xsh_kill.o
                0x00000000001100a2                xsh_kill
 .text          0x0000000000110258      0x3c3 binaries/xsh_memdump.o
                0x000000000011031e                xsh_memdump
 .text          0x000000000011061b      0x1ce binaries/xsh_memstat.o
                0x000000000011061b                xsh_memstat
 .text          0x00000000001107e9      0x287 binaries/xsh_ping.o
                0x00000000001107e9                xsh_ping
 .text          0x0000000000110a70      0x19e binaries/xsh_ps.o
                0x0000000000110a70                xsh_ps
 .text          0x0000000000110c0e      0x1a8 binaries/xsh_sleep.o
                0x0000000000110c0e                xsh_sleep
 .text          0x0000000000110db6      0x1c5 binaries/xsh_udpdump.o
                0x0000000000110db6                xsh_udpdump
 .text          0x0000000000110f7b      0x3b7 binaries/xsh_udpecho.o
                0x0000000000110f7b                xsh_udpecho
 .text          0x0000000000111332      0x202 binaries/xsh_udpeserver.o
                0x0000000000111332                xsh_udpeserver
 .text          0x0000000000111534      0x1b2 binaries/xsh_uptime.o
                0x0000000000111534                xsh_uptime
 .text          0x00000000001116e6        0xe binaries/clkdisp.o
                0x00000000001116e6                clkdisp
 .text          0x00000000001116f4       0x19 binaries/ctxsw.o
                0x00000000001116f4                ctxsw
 .text          0x000000000011170d        0xf binaries/host2netla.o
                0x000000000011170d                host2netla
 .text          0x000000000011171c       0x2f binaries/host2netlc.o
                0x000000000011171c                host2netlc
 .text          0x000000000011174b      0x36b binaries/intr.o
                0x000000000011174b                disable
                0x0000000000111754                restore
                0x0000000000111762                enable
                0x0000000000111764                pause
                0x000000000011176b                halt
                0x0000000000111771                spurious_irq7
                0x0000000000111776                spurious_irq15
                0x0000000000111785                _Xint0
                0x0000000000111790                _Xint1
                0x000000000011179b                _Xint2
                0x00000000001117a6                _Xint3
                0x00000000001117b1                _Xint4
                0x00000000001117bc                _Xint5
                0x00000000001117c7                _Xint6
                0x00000000001117d2                _Xint7
                0x00000000001117dd                _Xint8
                0x00000000001117e8                _Xint9
                0x00000000001117f3                _Xint10
                0x00000000001117fe                _Xint11
                0x000000000011180c                _Xint12
                0x000000000011181a                _Xint13
                0x0000000000111828                _Xint14
                0x0000000000111836                _Xint15
                0x0000000000111844                _Xint16
                0x0000000000111852                _Xint17
                0x0000000000111860                _Xint18
                0x000000000011186e                _Xint19
                0x000000000011187c                _Xint20
                0x000000000011188a                _Xint21
                0x0000000000111898                _Xint22
                0x00000000001118a6                _Xint23
                0x00000000001118b4                _Xint24
                0x00000000001118c2                _Xint25
                0x00000000001118d0                _Xint26
                0x00000000001118de                _Xint27
                0x00000000001118ec                _Xint28
                0x00000000001118fa                _Xint29
                0x0000000000111908                _Xint30
                0x0000000000111916                _Xint31
                0x0000000000111924                _Xint32
                0x0000000000111932                _Xint33
                0x0000000000111940                _Xint34
                0x000000000011194e                _Xint35
                0x000000000011195c                _Xint36
                0x000000000011196a                _Xint37
                0x0000000000111978                _Xint38
                0x0000000000111986                _Xint39
                0x0000000000111994                _Xint40
                0x00000000001119a2                _Xint41
                0x00000000001119b0                _Xint42
                0x00000000001119be                _Xint43
                0x00000000001119cc                _Xint44
                0x00000000001119da                _Xint45
                0x00000000001119e8                _Xint46
                0x00000000001119f6                defevec
 .text          0x0000000000111ab6        0xf binaries/ttydispatch.o
                0x0000000000111ab6                ttydispatch
 .text          0x0000000000111ac5       0x13 binaries/ethdispatch.o
                0x0000000000111ac5                ethdispatch
 *(.rodata .rodata.*)
 .rodata.str1.1
                0x0000000000111ad8       0x2a binaries/app1.o
 .rodata.str1.1
                0x0000000000111b02       0x2e binaries/app2.o
 .rodata.str1.1
                0x0000000000111b30       0x78 binaries/app3.o
 .rodata.str1.1
                0x0000000000111ba8       0x12 binaries/app_lim.o
 *fill*         0x0000000000111bba        0x2 
 .rodata.str1.4
                0x0000000000111bbc       0x25 binaries/app_unlim.o
 .rodata.str1.1
                0x0000000000111be1       0x54 binaries/ascdate.o
 *fill*         0x0000000000111c35        0x3 
 .rodata.str1.4
                0x0000000000111c38       0x22 binaries/ascdate.o
 .rodata.str1.1
                0x0000000000111c5a       0x5f binaries/conf.o
 *fill*         0x0000000000111cb9        0x3 
 .rodata.str1.4
                0x0000000000111cbc       0x9c binaries/cpubound.o
 .rodata.str1.4
                0x0000000000111d58       0x4f binaries/early_imr.o
 *fill*         0x0000000000111da7        0x1 
 .rodata        0x0000000000111da8       0x33 binaries/early_imr.o
 .rodata.str1.1
                0x0000000000111ddb      0x20c binaries/evec.o
 *fill*         0x0000000000111fe7        0x1 
 .rodata.str1.4
                0x0000000000111fe8       0x23 binaries/evec.o
 .rodata.str1.1
                0x000000000011200b       0x11 binaries/f1.o
 .rodata.str1.4
                0x000000000011201c       0x24 binaries/f1.o
 .rodata.str1.1
                0x0000000000112040        0xb binaries/getutime.o
 *fill*         0x000000000011204b        0x1 
 .rodata.str1.4
                0x000000000011204c       0x54 binaries/getutime.o
 .rodata.str1.1
                0x00000000001120a0       0x63 binaries/initialize.o
                                         0x67 (size before relaxing)
 *fill*         0x0000000000112103        0x1 
 .rodata.str1.4
                0x0000000000112104       0xd4 binaries/initialize.o
 .rodata.str1.4
                0x00000000001121d8       0x74 binaries/iobound.o
 .rodata        0x00000000001121d8       0x20 binaries/kill.o
 .rodata.str1.1
                0x00000000001121f8       0xdf binaries/lab2q3.o
 .rodata.str1.1
                0x00000000001122d7       0x21 binaries/lab2q4.o
 .rodata.str1.1
                0x00000000001122f8       0x11 binaries/lab2q5.o
 .rodata        0x00000000001122f8       0x18 binaries/lab2q5.o
 .rodata.str1.1
                0x0000000000112310       0x25 binaries/main.o
 *fill*         0x0000000000112335        0x3 
 .rodata.str1.4
                0x0000000000112338      0x16b binaries/main.o
 *fill*         0x00000000001124a3        0x1 
 .rodata.str1.4
                0x00000000001124a4       0x23 binaries/meminit.o
 .rodata.str1.1
                0x00000000001124c7       0x1b binaries/meminit.o
 .rodata.str1.1
                0x00000000001124e2       0x5a binaries/myappA.o
 .rodata.str1.4
                0x000000000011253c       0x55 binaries/myappA.o
 .rodata.str1.1
                0x0000000000112591        0xf binaries/myfuncA.o
 *fill*         0x0000000000112591        0x3 
 .rodata.str1.4
                0x0000000000112594       0x35 binaries/myfuncA.o
                                         0x6d (size before relaxing)
 *fill*         0x00000000001125c9        0x3 
 .rodata.str1.4
                0x00000000001125cc       0x50 binaries/myhacker.o
 .rodata.str1.1
                0x000000000011261c       0x15 binaries/myhacker.o
 .rodata.str1.1
                0x0000000000112631       0x15 binaries/myvictim.o
 *fill*         0x0000000000112646        0x2 
 .rodata.str1.4
                0x0000000000112648       0x29 binaries/myvictim.o
                                         0x51 (size before relaxing)
 *fill*         0x0000000000112671        0x3 
 .rodata.str1.4
                0x0000000000112674       0x4a binaries/mywelcomemsg.o
 .rodata.str1.1
                0x00000000001126be        0xf binaries/panic.o
 .rodata.str1.1
                0x00000000001126cd       0x2c binaries/printprstate.o
 *fill*         0x00000000001126f9        0x3 
 .rodata.str1.4
                0x00000000001126fc      0x130 binaries/printprstate.o
 .rodata        0x000000000011282c       0x1c binaries/printprstate.o
 .rodata.str1.1
                0x0000000000112848       0xa5 binaries/prntsegaddr.o
 *fill*         0x00000000001128ed        0x3 
 .rodata.str1.4
                0x00000000001128f0       0x81 binaries/prntsegaddr.o
 .rodata.str1.1
                0x0000000000112971       0x1c binaries/ptinit.o
 *fill*         0x000000000011298d        0x3 
 .rodata.str1.4
                0x0000000000112990       0x25 binaries/ptsend.o
 .rodata.str1.1
                0x00000000001129b5       0x22 binaries/quark_pdat.o
 .rodata.str1.1
                0x00000000001129d7       0x16 binaries/stackdepth.o
 *fill*         0x00000000001129ed        0x3 
 .rodata.str1.4
                0x00000000001129f0       0x33 binaries/stackdepth.o
 *fill*         0x0000000000112a23        0x1 
 .rodata.str1.4
                0x0000000000112a24       0x63 binaries/stacktrace.o
 .rodata.str1.1
                0x0000000000112a87       0x52 binaries/stacktrace.o
 *fill*         0x0000000000112ad9        0x3 
 .rodata.str1.4
                0x0000000000112adc       0x27 binaries/xdone.o
 *fill*         0x0000000000112b03       0x1d 
 .rodata        0x0000000000112b20       0x81 binaries/ctype_.o
                0x0000000000112b20                _ctype_
 .rodata.str1.1
                0x0000000000112ba1       0x29 binaries/doprnt.o
 *fill*         0x0000000000112bca        0x2 
 .rodata        0x0000000000112bcc       0xc4 binaries/doprnt.o
 .rodata        0x0000000000112c90       0x98 binaries/doscan.o
 .rodata.str1.1
                0x0000000000112d28       0x29 binaries/fdoprnt.o
 .rodata        0x0000000000112d28       0x84 binaries/fdoprnt.o
 .rodata        0x0000000000112dac       0x20 binaries/ttycontrol.o
 .rodata.str1.4
                0x0000000000112dcc       0x4c binaries/naminit.o
 .rodata.str1.1
                0x0000000000112e18       0x32 binaries/naminit.o
                                         0x35 (size before relaxing)
 .rodata.str1.1
                0x0000000000112e4a       0x15 binaries/ethinit.o
 *fill*         0x0000000000112e5f        0x1 
 .rodata.str1.4
                0x0000000000112e60       0x2e binaries/ethinit.o
 *fill*         0x0000000000112e8e        0x2 
 .rodata.str1.4
                0x0000000000112e90       0x2c binaries/rdsbufalloc.o
 .rodata.str1.4
                0x0000000000112ebc       0x76 binaries/rdscomm.o
 *fill*         0x0000000000112f32        0x2 
 .rodata.str1.4
                0x0000000000112f34       0x48 binaries/rdscontrol.o
 .rodata.str1.4
                0x0000000000112f7c       0x7e binaries/rdsinit.o
 .rodata.str1.1
                0x0000000000112ffa       0x18 binaries/rdsinit.o
 *fill*         0x0000000000113012        0x2 
 .rodata.str1.4
                0x0000000000113014       0x22 binaries/rdsopen.o
 *fill*         0x0000000000113036        0x2 
 .rodata.str1.4
                0x0000000000113038       0x4d binaries/rdsprocess.o
 .rodata.str1.1
                0x0000000000113085        0x9 binaries/raminit.o
 .rodata.str1.1
                0x000000000011308e       0x13 binaries/lfdballoc.o
 *fill*         0x00000000001130a1        0x3 
 .rodata.str1.4
                0x00000000001130a4       0x23 binaries/lfdballoc.o
 .rodata.str1.1
                0x00000000001130c7       0x14 binaries/lfiballoc.o
 *fill*         0x00000000001130db        0x1 
 .rodata.str1.4
                0x00000000001130dc       0x23 binaries/lflcontrol.o
 .rodata.str1.1
                0x00000000001130ff       0x64 binaries/lfsckfmt.o
 *fill*         0x0000000000113163        0x1 
 .rodata.str1.4
                0x0000000000113164       0x51 binaries/lfsckfmt.o
 *fill*         0x00000000001131b5        0x3 
 .rodata.str1.4
                0x00000000001131b8       0x21 binaries/rflread.o
 .rodata.str1.4
                0x00000000001131d9       0x21 binaries/rflwrite.o
 *fill*         0x00000000001131d9        0x3 
 .rodata.str1.4
                0x00000000001131dc       0x75 binaries/rfscomm.o
 *fill*         0x0000000000113251        0x3 
 .rodata.str1.4
                0x0000000000113254       0x23 binaries/rfscontrol.o
 *fill*         0x0000000000113277        0x1 
 .rodata        0x0000000000113278       0x18 binaries/rfscontrol.o
 .rodata.str1.1
                0x0000000000113290       0x10 binaries/rfsinit.o
 .rodata.str1.4
                0x0000000000113290       0x57 binaries/rfsinit.o
 *fill*         0x00000000001132e7        0x1 
 .rodata.str1.4
                0x00000000001132e8       0x2a binaries/rfsndmsg.o
 .rodata.str1.4
                0x0000000000113312       0x22 binaries/rfsopen.o
 .rodata.str1.1
                0x0000000000113312       0x19 binaries/arp.o
 *fill*         0x000000000011332b        0x1 
 .rodata.str1.4
                0x000000000011332c       0x21 binaries/arp.o
 *fill*         0x000000000011334d        0x3 
 .rodata.str1.4
                0x0000000000113350       0xa6 binaries/dhcp.o
 .rodata.str1.1
                0x00000000001133f6       0x4a binaries/dhcp.o
 .rodata.str1.1
                0x0000000000113440       0x5a binaries/hexdump.o
                                         0x61 (size before relaxing)
 *fill*         0x000000000011349a        0x2 
 .rodata.str1.4
                0x000000000011349c       0x67 binaries/hexdump.o
 *fill*         0x0000000000113503        0x1 
 .rodata.str1.4
                0x0000000000113504       0x29 binaries/icmp.o
 .rodata.str1.1
                0x000000000011352d       0x4e binaries/ip.o
 *fill*         0x000000000011357b        0x1 
 .rodata.str1.4
                0x000000000011357c       0x20 binaries/ip.o
 .rodata.str1.4
                0x000000000011359c       0x28 binaries/net.o
 .rodata.str1.1
                0x00000000001135c4       0x27 binaries/net.o
 *fill*         0x00000000001135eb        0x1 
 .rodata.str1.4
                0x00000000001135ec       0xcf binaries/netstart.o
 .rodata.str1.1
                0x00000000001136bb      0x13e binaries/pdump.o
                                        0x14b (size before relaxing)
 *fill*         0x00000000001137f9        0x3 
 .rodata.str1.4
                0x00000000001137fc      0x126 binaries/pdump.o
 *fill*         0x0000000000113922        0x2 
 .rodata.str1.4
                0x0000000000113924      0x148 binaries/tftp.o
 .rodata.str1.1
                0x0000000000113a6c        0x6 binaries/tftp.o
                                          0xa (size before relaxing)
 .rodata.str1.1
                0x0000000000113a72       0xd1 binaries/shell.o
                                         0xed (size before relaxing)
 *fill*         0x0000000000113b43        0x1 
 .rodata.str1.4
                0x0000000000113b44      0x1c4 binaries/shell.o
                                        0x210 (size before relaxing)
 *fill*         0x0000000000113d08       0x18 
 .rodata        0x0000000000113d20       0xfc binaries/shell.o
                0x0000000000113d20                cmdtab
 .rodata.str1.1
                0x0000000000113e1c       0x26 binaries/xsh_argecho.o
                                         0x28 (size before relaxing)
 .rodata.str1.1
                0x0000000000113e42       0x70 binaries/xsh_arp.o
                                         0x72 (size before relaxing)
 *fill*         0x0000000000113eb2        0x2 
 .rodata.str1.4
                0x0000000000113eb4       0xb4 binaries/xsh_arp.o
 .rodata.str1.1
                0x0000000000113f68       0x2d binaries/xsh_cat.o
                                         0x4f (size before relaxing)
 *fill*         0x0000000000113f95        0x3 
 .rodata.str1.4
                0x0000000000113f98       0x52 binaries/xsh_cat.o
                                         0x79 (size before relaxing)
 .rodata.str1.1
                0x0000000000113fea       0x15 binaries/xsh_clear.o
 .rodata.str1.1
                0x0000000000113fff       0x46 binaries/xsh_date.o
                                         0x5f (size before relaxing)
 *fill*         0x0000000000114045        0x3 
 .rodata.str1.4
                0x0000000000114048      0x163 binaries/xsh_date.o
 .rodata.str1.1
                0x00000000001141ab       0x5d binaries/xsh_devdump.o
 .rodata.str1.1
                0x0000000000114208       0x5d binaries/xsh_echo.o
                                          0x9 (size before relaxing)
 .rodata.str1.1
                0x0000000000114208       0x65 binaries/xsh_help.o
                                         0xa3 (size before relaxing)
 *fill*         0x000000000011426d        0x3 
 .rodata.str1.4
                0x0000000000114270       0x7c binaries/xsh_help.o
                                         0xc6 (size before relaxing)
 .rodata.str1.1
                0x00000000001142ec       0x9c binaries/xsh_ipaddr.o
                                         0xf8 (size before relaxing)
 .rodata.str1.4
                0x0000000000114388       0x4d binaries/xsh_ipaddr.o
                                         0x99 (size before relaxing)
 .rodata.str1.1
                0x00000000001143d5       0x78 binaries/xsh_kill.o
                                         0x97 (size before relaxing)
 *fill*         0x000000000011444d        0x3 
 .rodata.str1.4
                0x0000000000114450       0x4a binaries/xsh_kill.o
                                         0x96 (size before relaxing)
 .rodata.str1.1
                0x000000000011449a       0x84 binaries/xsh_memdump.o
                                         0xa8 (size before relaxing)
 *fill*         0x000000000011451e        0x2 
 .rodata.str1.4
                0x0000000000114520      0x15a binaries/xsh_memdump.o
                                        0x1aa (size before relaxing)
 .rodata.str1.1
                0x000000000011467a       0x40 binaries/xsh_memstat.o
                                         0x79 (size before relaxing)
 *fill*         0x00000000001146ba        0x2 
 .rodata.str1.4
                0x00000000001146bc      0x187 binaries/xsh_memstat.o
                                        0x1af (size before relaxing)
 .rodata.str1.1
                0x0000000000114843       0x90 binaries/xsh_ping.o
                                         0xaf (size before relaxing)
 *fill*         0x00000000001148d3        0x1 
 .rodata.str1.4
                0x00000000001148d4       0x77 binaries/xsh_ping.o
                                         0xc6 (size before relaxing)
 .rodata.str1.1
                0x000000000011494b       0x74 binaries/xsh_ps.o
                                         0xd5 (size before relaxing)
 *fill*         0x00000000001149bf        0x1 
 .rodata.str1.4
                0x00000000001149c0       0x80 binaries/xsh_ps.o
                                         0xd0 (size before relaxing)
 .rodata        0x0000000000114a40       0x20 binaries/xsh_ps.o
 .rodata.str1.1
                0x0000000000114a60       0x31 binaries/xsh_sleep.o
                                         0x72 (size before relaxing)
 *fill*         0x0000000000114a91        0x3 
 .rodata.str1.4
                0x0000000000114a94       0x2a binaries/xsh_sleep.o
                                         0x7a (size before relaxing)
 .rodata.str1.1
                0x0000000000114abe       0x6b binaries/xsh_udpdump.o
                                         0xd2 (size before relaxing)
 *fill*         0x0000000000114b29        0x3 
 .rodata.str1.4
                0x0000000000114b2c       0x94 binaries/xsh_udpdump.o
                                         0xe4 (size before relaxing)
 .rodata.str1.1
                0x0000000000114bc0       0xdb binaries/xsh_udpecho.o
                                         0xfa (size before relaxing)
 *fill*         0x0000000000114c9b        0x1 
 .rodata.str1.4
                0x0000000000114c9c       0xc7 binaries/xsh_udpecho.o
                                        0x116 (size before relaxing)
 .rodata.str1.1
                0x0000000000114d63       0x66 binaries/xsh_udpeserver.o
                                         0x8f (size before relaxing)
 *fill*         0x0000000000114dc9        0x3 
 .rodata.str1.4
                0x0000000000114dcc       0x29 binaries/xsh_udpeserver.o
                                         0x9f (size before relaxing)
 .rodata.str1.1
                0x0000000000114df5       0x49 binaries/xsh_uptime.o
                                         0x8c (size before relaxing)
 *fill*         0x0000000000114e3e        0x2 
 .rodata.str1.4
                0x0000000000114e40       0x28 binaries/xsh_uptime.o
                                         0x76 (size before relaxing)
                0x0000000000114e68                etext = ABSOLUTE (.)
                0x0000000000115000                . = ALIGN (0x1000)
 *fill*         0x0000000000114e68      0x198 

.eh_frame       0x0000000000115000     0x33e8
 .eh_frame      0x0000000000115000       0x38 binaries/app1.o
 .eh_frame      0x0000000000115038       0x20 binaries/app2.o
                                         0x38 (size before relaxing)
 .eh_frame      0x0000000000115058       0x20 binaries/app3.o
                                         0x38 (size before relaxing)
 .eh_frame      0x0000000000115078       0x40 binaries/app_lim.o
                                         0x58 (size before relaxing)
 .eh_frame      0x00000000001150b8       0x1c binaries/app_unlim.o
                                         0x34 (size before relaxing)
 .eh_frame      0x00000000001150d4       0x30 binaries/ascdate.o
                                         0x48 (size before relaxing)
 .eh_frame      0x0000000000115104       0x20 binaries/bufinit.o
                                         0x38 (size before relaxing)
 .eh_frame      0x0000000000115124       0x2c binaries/chprio.o
                                         0x44 (size before relaxing)
 .eh_frame      0x0000000000115150       0x20 binaries/clkhandler.o
                                         0x38 (size before relaxing)
 .eh_frame      0x0000000000115170       0x20 binaries/clkinit.o
                                         0x38 (size before relaxing)
 .eh_frame      0x0000000000115190       0x28 binaries/close.o
                                         0x40 (size before relaxing)
 .eh_frame      0x00000000001151b8       0x28 binaries/control.o
                                         0x40 (size before relaxing)
 .eh_frame      0x00000000001151e0       0x2c binaries/cpubound.o
                                         0x44 (size before relaxing)
 .eh_frame      0x000000000011520c       0x30 binaries/create.o
                                         0x48 (size before relaxing)
 .eh_frame      0x000000000011523c       0x94 binaries/early_imr.o
                                         0xac (size before relaxing)
 .eh_frame      0x00000000001152d0       0x94 binaries/evec.o
                                         0xac (size before relaxing)
 .eh_frame      0x0000000000115364       0x80 binaries/f1.o
                                         0x98 (size before relaxing)
 .eh_frame      0x00000000001153e4       0x2c binaries/freebuf.o
                                         0x44 (size before relaxing)
 .eh_frame      0x0000000000115410       0x2c binaries/freemem.o
                                         0x44 (size before relaxing)
 .eh_frame      0x000000000011543c       0x2c binaries/getbuf.o
                                         0x44 (size before relaxing)
 .eh_frame      0x0000000000115468       0x28 binaries/getc.o
                                         0x40 (size before relaxing)
 .eh_frame      0x0000000000115490       0x2c binaries/getdev.o
                                         0x44 (size before relaxing)
 .eh_frame      0x00000000001154bc       0x64 binaries/getitem.o
                                         0x7c (size before relaxing)
 .eh_frame      0x0000000000115520       0x28 binaries/getmem.o
                                         0x40 (size before relaxing)
 .eh_frame      0x0000000000115548       0x20 binaries/getpid.o
                                         0x38 (size before relaxing)
 .eh_frame      0x0000000000115568       0x20 binaries/getppid.o
                                         0x38 (size before relaxing)
 .eh_frame      0x0000000000115588       0x24 binaries/getprio.o
                                         0x3c (size before relaxing)
 .eh_frame      0x00000000001155ac       0x2c binaries/getstk.o
                                         0x44 (size before relaxing)
 .eh_frame      0x00000000001155d8       0x20 binaries/gettime.o
                                         0x38 (size before relaxing)
 .eh_frame      0x00000000001155f8       0x24 binaries/getutime.o
                                         0x3c (size before relaxing)
 .eh_frame      0x000000000011561c       0x20 binaries/host2netlb.o
                                         0x38 (size before relaxing)
 .eh_frame      0x000000000011563c       0x28 binaries/init.o
                                         0x40 (size before relaxing)
 .eh_frame      0x0000000000115664       0x5c binaries/initialize.o
                                         0x74 (size before relaxing)
 .eh_frame      0x00000000001156c0       0x28 binaries/insert.o
                                         0x40 (size before relaxing)
 .eh_frame      0x00000000001156e8       0x2c binaries/insertd.o
                                         0x44 (size before relaxing)
 .eh_frame      0x0000000000115714       0x2c binaries/iobound.o
                                         0x44 (size before relaxing)
 .eh_frame      0x0000000000115740       0x20 binaries/ioerr.o
                                         0x38 (size before relaxing)
 .eh_frame      0x0000000000115760       0x20 binaries/ionull.o
                                         0x38 (size before relaxing)
 .eh_frame      0x0000000000115780       0x30 binaries/kill.o
                                         0x48 (size before relaxing)
 .eh_frame      0x00000000001157b0       0x80 binaries/kprintf.o
                                         0x98 (size before relaxing)
 .eh_frame      0x0000000000115830       0x30 binaries/lab2q3.o
                                         0x48 (size before relaxing)
 .eh_frame      0x0000000000115860       0x6c binaries/lab2q4.o
                                         0x84 (size before relaxing)
 .eh_frame      0x00000000001158cc       0x2c binaries/lab2q5.o
                                         0x44 (size before relaxing)
 .eh_frame      0x00000000001158f8       0x4c binaries/main.o
                                         0x64 (size before relaxing)
 .eh_frame      0x0000000000115944       0x44 binaries/mark.o
                                         0x5c (size before relaxing)
 .eh_frame      0x0000000000115988       0x50 binaries/meminit.o
                                         0x68 (size before relaxing)
 .eh_frame      0x00000000001159d8       0x30 binaries/mkbufpool.o
                                         0x48 (size before relaxing)
 .eh_frame      0x0000000000115a08       0x28 binaries/myappA.o
                                         0x40 (size before relaxing)
 .eh_frame      0x0000000000115a30       0x28 binaries/myfuncA.o
                                         0x40 (size before relaxing)
 .eh_frame      0x0000000000115a58       0x44 binaries/myhacker.o
                                         0x5c (size before relaxing)
 .eh_frame      0x0000000000115a9c       0x64 binaries/myvictim.o
                                         0x7c (size before relaxing)
 .eh_frame      0x0000000000115b00       0x20 binaries/mywelcomemsg.o
                                         0x38 (size before relaxing)
 .eh_frame      0x0000000000115b20       0x20 binaries/newqueue.o
                                         0x38 (size before relaxing)
 .eh_frame      0x0000000000115b40       0x28 binaries/open.o
                                         0x40 (size before relaxing)
 .eh_frame      0x0000000000115b68       0x1c binaries/panic.o
                                         0x34 (size before relaxing)
 .eh_frame      0x0000000000115b84      0x12c binaries/pci.o
                                        0x144 (size before relaxing)
 .eh_frame      0x0000000000115cb0       0x20 binaries/platinit.o
                                         0x38 (size before relaxing)
 .eh_frame      0x0000000000115cd0       0x2c binaries/printprstate.o
                                         0x44 (size before relaxing)
 .eh_frame      0x0000000000115cfc       0x24 binaries/prntsegaddr.o
                                         0x3c (size before relaxing)
 .eh_frame      0x0000000000115d20       0x2c binaries/ptclear.o
                                         0x44 (size before relaxing)
 .eh_frame      0x0000000000115d4c       0x2c binaries/ptcount.o
                                         0x44 (size before relaxing)
 .eh_frame      0x0000000000115d78       0x2c binaries/ptcreate.o
                                         0x44 (size before relaxing)
 .eh_frame      0x0000000000115da4       0x28 binaries/ptdelete.o
                                         0x40 (size before relaxing)
 .eh_frame      0x0000000000115dcc       0x28 binaries/ptinit.o
                                         0x40 (size before relaxing)
 .eh_frame      0x0000000000115df4       0x2c binaries/ptrecv.o
                                         0x44 (size before relaxing)
 .eh_frame      0x0000000000115e20       0x28 binaries/ptreset.o
                                         0x40 (size before relaxing)
 .eh_frame      0x0000000000115e48       0x30 binaries/ptsend.o
                                         0x48 (size before relaxing)
 .eh_frame      0x0000000000115e78       0x2c binaries/putc.o
                                         0x44 (size before relaxing)
 .eh_frame      0x0000000000115ea4       0x24 binaries/quark_irq.o
                                         0x3c (size before relaxing)
 .eh_frame      0x0000000000115ec8       0x54 binaries/quark_pdat.o
                                         0x6c (size before relaxing)
 .eh_frame      0x0000000000115f1c       0x40 binaries/queue.o
                                         0x58 (size before relaxing)
 .eh_frame      0x0000000000115f5c       0x28 binaries/read.o
                                         0x40 (size before relaxing)
 .eh_frame      0x0000000000115f84       0x20 binaries/ready.o
                                         0x38 (size before relaxing)
 .eh_frame      0x0000000000115fa4       0x2c binaries/receive.o
                                         0x44 (size before relaxing)
 .eh_frame      0x0000000000115fd0       0x24 binaries/recvclr.o
                                         0x3c (size before relaxing)
 .eh_frame      0x0000000000115ff4       0x2c binaries/recvtime.o
                                         0x44 (size before relaxing)
 .eh_frame      0x0000000000116020       0x50 binaries/resched.o
                                         0x68 (size before relaxing)
 .eh_frame      0x0000000000116070       0x2c binaries/resume.o
                                         0x44 (size before relaxing)
 .eh_frame      0x000000000011609c       0x28 binaries/seek.o
                                         0x40 (size before relaxing)
 .eh_frame      0x00000000001160c4       0x24 binaries/semcount.o
                                         0x3c (size before relaxing)
 .eh_frame      0x00000000001160e8       0x2c binaries/semcreate.o
                                         0x44 (size before relaxing)
 .eh_frame      0x0000000000116114       0x2c binaries/semdelete.o
                                         0x44 (size before relaxing)
 .eh_frame      0x0000000000116140       0x2c binaries/semreset.o
                                         0x44 (size before relaxing)
 .eh_frame      0x000000000011616c       0x28 binaries/send.o
                                         0x40 (size before relaxing)
 .eh_frame      0x0000000000116194       0x28 binaries/signal.o
                                         0x40 (size before relaxing)
 .eh_frame      0x00000000001161bc       0x2c binaries/signaln.o
                                         0x44 (size before relaxing)
 .eh_frame      0x00000000001161e8       0x48 binaries/sleep.o
                                         0x60 (size before relaxing)
 .eh_frame      0x0000000000116230       0x2c binaries/stackdepth.o
                                         0x44 (size before relaxing)
 .eh_frame      0x000000000011625c       0x30 binaries/stacktrace.o
                                         0x48 (size before relaxing)
 .eh_frame      0x000000000011628c       0x28 binaries/suspend.o
                                         0x40 (size before relaxing)
 .eh_frame      0x00000000001162b4       0x28 binaries/unsleep.o
                                         0x40 (size before relaxing)
 .eh_frame      0x00000000001162dc       0x20 binaries/userret.o
                                         0x38 (size before relaxing)
 .eh_frame      0x00000000001162fc       0x28 binaries/wait.o
                                         0x40 (size before relaxing)
 .eh_frame      0x0000000000116324       0x20 binaries/wakeup.o
                                         0x38 (size before relaxing)
 .eh_frame      0x0000000000116344       0x28 binaries/write.o
                                         0x40 (size before relaxing)
 .eh_frame      0x000000000011636c       0x20 binaries/xdone.o
                                         0x38 (size before relaxing)
 .eh_frame      0x000000000011638c       0x24 binaries/yield.o
                                         0x3c (size before relaxing)
 .eh_frame      0x00000000001163b0       0x20 binaries/abs.o
                                         0x38 (size before relaxing)
 .eh_frame      0x00000000001163d0       0x28 binaries/atoi.o
                                         0x40 (size before relaxing)
 .eh_frame      0x00000000001163f8       0x28 binaries/atol.o
                                         0x40 (size before relaxing)
 .eh_frame      0x0000000000116420       0x20 binaries/bzero.o
                                         0x38 (size before relaxing)
 .eh_frame      0x0000000000116440       0xac binaries/doprnt.o
                                         0xc4 (size before relaxing)
 .eh_frame      0x00000000001164ec       0x30 binaries/doscan.o
                                         0x48 (size before relaxing)
 .eh_frame      0x000000000011651c       0x5c binaries/fdoprnt.o
                                         0x74 (size before relaxing)
 .eh_frame      0x0000000000116578       0x20 binaries/fgetc.o
                                         0x38 (size before relaxing)
 .eh_frame      0x0000000000116598       0x2c binaries/fgets.o
                                         0x44 (size before relaxing)
 .eh_frame      0x00000000001165c4       0x20 binaries/fprintf.o
                                         0x38 (size before relaxing)
 .eh_frame      0x00000000001165e4       0x20 binaries/fputc.o
                                         0x38 (size before relaxing)
 .eh_frame      0x0000000000116604       0x28 binaries/fputs.o
                                         0x40 (size before relaxing)
 .eh_frame      0x000000000011662c       0x64 binaries/fscanf.o
                                         0x7c (size before relaxing)
 .eh_frame      0x0000000000116690       0x20 binaries/getchar.o
                                         0x38 (size before relaxing)
 .eh_frame      0x00000000001166b0       0x20 binaries/labs.o
                                         0x38 (size before relaxing)
 .eh_frame      0x00000000001166d0       0x20 binaries/memchr.o
                                         0x38 (size before relaxing)
 .eh_frame      0x00000000001166f0       0x28 binaries/memcmp.o
                                         0x40 (size before relaxing)
 .eh_frame      0x0000000000116718       0x28 binaries/memcpy.o
                                         0x40 (size before relaxing)
 .eh_frame      0x0000000000116740       0x24 binaries/memset.o
                                         0x3c (size before relaxing)
 .eh_frame      0x0000000000116764       0x20 binaries/printf.o
                                         0x38 (size before relaxing)
 .eh_frame      0x0000000000116784       0x20 binaries/putchar.o
                                         0x38 (size before relaxing)
 .eh_frame      0x00000000001167a4       0xa4 binaries/qsort.o
                                         0xbc (size before relaxing)
 .eh_frame      0x0000000000116848       0x40 binaries/rand.o
                                         0x58 (size before relaxing)
 .eh_frame      0x0000000000116888       0x48 binaries/sprintf.o
                                         0x60 (size before relaxing)
 .eh_frame      0x00000000001168d0       0x60 binaries/sscanf.o
                                         0x78 (size before relaxing)
 .eh_frame      0x0000000000116930       0x24 binaries/strchr.o
                                         0x3c (size before relaxing)
 .eh_frame      0x0000000000116954       0x24 binaries/strcmp.o
                                         0x3c (size before relaxing)
 .eh_frame      0x0000000000116978       0x20 binaries/strcpy.o
                                         0x38 (size before relaxing)
 .eh_frame      0x0000000000116998       0x20 binaries/strlen.o
                                         0x38 (size before relaxing)
 .eh_frame      0x00000000001169b8       0x2c binaries/strncat.o
                                         0x44 (size before relaxing)
 .eh_frame      0x00000000001169e4       0x24 binaries/strncmp.o
                                         0x3c (size before relaxing)
 .eh_frame      0x0000000000116a08       0x2c binaries/strncpy.o
                                         0x44 (size before relaxing)
 .eh_frame      0x0000000000116a34       0x24 binaries/strnlen.o
                                         0x3c (size before relaxing)
 .eh_frame      0x0000000000116a58       0x24 binaries/strrchr.o
                                         0x3c (size before relaxing)
 .eh_frame      0x0000000000116a7c       0x2c binaries/strstr.o
                                         0x44 (size before relaxing)
 .eh_frame      0x0000000000116aa8       0x30 binaries/ttycontrol.o
                                         0x48 (size before relaxing)
 .eh_frame      0x0000000000116ad8       0x2c binaries/ttygetc.o
                                         0x44 (size before relaxing)
 .eh_frame      0x0000000000116b04       0x84 binaries/ttyhandle_in.o
                                         0x9c (size before relaxing)
 .eh_frame      0x0000000000116b88       0x30 binaries/ttyhandle_out.o
                                         0x48 (size before relaxing)
 .eh_frame      0x0000000000116bb8       0x28 binaries/ttyhandler.o
                                         0x40 (size before relaxing)
 .eh_frame      0x0000000000116be0       0x30 binaries/ttyinit.o
                                         0x48 (size before relaxing)
 .eh_frame      0x0000000000116c10       0x20 binaries/ttykickout.o
                                         0x38 (size before relaxing)
 .eh_frame      0x0000000000116c30       0x2c binaries/ttyputc.o
                                         0x44 (size before relaxing)
 .eh_frame      0x0000000000116c5c       0x2c binaries/ttyread.o
                                         0x44 (size before relaxing)
 .eh_frame      0x0000000000116c88       0x2c binaries/ttywrite.o
                                         0x44 (size before relaxing)
 .eh_frame      0x0000000000116cb4       0x4c binaries/mount.o
                                         0x64 (size before relaxing)
 .eh_frame      0x0000000000116d00       0x30 binaries/naminit.o
                                         0x48 (size before relaxing)
 .eh_frame      0x0000000000116d30       0x84 binaries/nammap.o
                                         0x9c (size before relaxing)
 .eh_frame      0x0000000000116db4       0x20 binaries/namopen.o
                                         0x38 (size before relaxing)
 .eh_frame      0x0000000000116dd4       0x2c binaries/colon2mac.o
                                         0x44 (size before relaxing)
 .eh_frame      0x0000000000116e00       0x20 binaries/ethcontrol.o
                                         0x38 (size before relaxing)
 .eh_frame      0x0000000000116e20       0x30 binaries/ethhandler.o
                                         0x48 (size before relaxing)
 .eh_frame      0x0000000000116e50       0x98 binaries/ethinit.o
                                         0xb0 (size before relaxing)
 .eh_frame      0x0000000000116ee8       0x54 binaries/ethmcast.o
                                         0x6c (size before relaxing)
 .eh_frame      0x0000000000116f3c       0x30 binaries/ethread.o
                                         0x48 (size before relaxing)
 .eh_frame      0x0000000000116f6c       0x2c binaries/ethwrite.o
                                         0x44 (size before relaxing)
 .eh_frame      0x0000000000116f98       0x24 binaries/rdsbufalloc.o
                                         0x3c (size before relaxing)
 .eh_frame      0x0000000000116fbc       0x2c binaries/rdsclose.o
                                         0x44 (size before relaxing)
 .eh_frame      0x0000000000116fe8       0x30 binaries/rdscomm.o
                                         0x48 (size before relaxing)
 .eh_frame      0x0000000000117018       0x30 binaries/rdscontrol.o
                                         0x48 (size before relaxing)
 .eh_frame      0x0000000000117048       0x30 binaries/rdsinit.o
                                         0x48 (size before relaxing)
 .eh_frame      0x0000000000117078       0x30 binaries/rdsopen.o
                                         0x48 (size before relaxing)
 .eh_frame      0x00000000001170a8       0x20 binaries/rdsprocess.o
                                         0x38 (size before relaxing)
 .eh_frame      0x00000000001170c8       0x30 binaries/rdsread.o
                                         0x48 (size before relaxing)
 .eh_frame      0x00000000001170f8       0x30 binaries/rdswrite.o
                                         0x48 (size before relaxing)
 .eh_frame      0x0000000000117128       0x20 binaries/ramclose.o
                                         0x38 (size before relaxing)
 .eh_frame      0x0000000000117148       0x20 binaries/raminit.o
                                         0x38 (size before relaxing)
 .eh_frame      0x0000000000117168       0x20 binaries/ramopen.o
                                         0x38 (size before relaxing)
 .eh_frame      0x0000000000117188       0x20 binaries/ramread.o
                                         0x38 (size before relaxing)
 .eh_frame      0x00000000001171a8       0x20 binaries/ramwrite.o
                                         0x38 (size before relaxing)
 .eh_frame      0x00000000001171c8       0x28 binaries/lfdballoc.o
                                         0x40 (size before relaxing)
 .eh_frame      0x00000000001171f0       0x24 binaries/lfdbfree.o
                                         0x3c (size before relaxing)
 .eh_frame      0x0000000000117214       0x24 binaries/lfflush.o
                                         0x3c (size before relaxing)
 .eh_frame      0x0000000000117238       0x20 binaries/lfgetmode.o
                                         0x38 (size before relaxing)
 .eh_frame      0x0000000000117258       0x24 binaries/lfiballoc.o
                                         0x3c (size before relaxing)
 .eh_frame      0x000000000011727c       0x20 binaries/lfibclear.o
                                         0x38 (size before relaxing)
 .eh_frame      0x000000000011729c       0x2c binaries/lfibget.o
                                         0x44 (size before relaxing)
 .eh_frame      0x00000000001172c8       0x2c binaries/lfibput.o
                                         0x44 (size before relaxing)
 .eh_frame      0x00000000001172f4       0x28 binaries/lflclose.o
                                         0x40 (size before relaxing)
 .eh_frame      0x000000000011731c       0x2c binaries/lflcontrol.o
                                         0x44 (size before relaxing)
 .eh_frame      0x0000000000117348       0x2c binaries/lflgetc.o
                                         0x44 (size before relaxing)
 .eh_frame      0x0000000000117374       0x2c binaries/lflinit.o
                                         0x44 (size before relaxing)
 .eh_frame      0x00000000001173a0       0x30 binaries/lflputc.o
                                         0x48 (size before relaxing)
 .eh_frame      0x00000000001173d0       0x2c binaries/lflread.o
                                         0x44 (size before relaxing)
 .eh_frame      0x00000000001173fc       0x2c binaries/lflseek.o
                                         0x44 (size before relaxing)
 .eh_frame      0x0000000000117428       0x2c binaries/lflwrite.o
                                         0x44 (size before relaxing)
 .eh_frame      0x0000000000117454       0x30 binaries/lfsckfmt.o
                                         0x48 (size before relaxing)
 .eh_frame      0x0000000000117484       0x30 binaries/lfscreate.o
                                         0x48 (size before relaxing)
 .eh_frame      0x00000000001174b4       0x30 binaries/lfsetup.o
                                         0x48 (size before relaxing)
 .eh_frame      0x00000000001174e4       0x20 binaries/lfsinit.o
                                         0x38 (size before relaxing)
 .eh_frame      0x0000000000117504       0x30 binaries/lfsopen.o
                                         0x48 (size before relaxing)
 .eh_frame      0x0000000000117534       0x30 binaries/lftruncate.o
                                         0x48 (size before relaxing)
 .eh_frame      0x0000000000117564       0x20 binaries/rflclose.o
                                         0x38 (size before relaxing)
 .eh_frame      0x0000000000117584       0x20 binaries/rflgetc.o
                                         0x38 (size before relaxing)
 .eh_frame      0x00000000001175a4       0x24 binaries/rflinit.o
                                         0x3c (size before relaxing)
 .eh_frame      0x00000000001175c8       0x20 binaries/rflputc.o
                                         0x38 (size before relaxing)
 .eh_frame      0x00000000001175e8       0x30 binaries/rflread.o
                                         0x48 (size before relaxing)
 .eh_frame      0x0000000000117618       0x20 binaries/rflseek.o
                                         0x38 (size before relaxing)
 .eh_frame      0x0000000000117638       0x30 binaries/rflwrite.o
                                         0x48 (size before relaxing)
 .eh_frame      0x0000000000117668       0x30 binaries/rfscomm.o
                                         0x48 (size before relaxing)
 .eh_frame      0x0000000000117698       0x2c binaries/rfscontrol.o
                                         0x44 (size before relaxing)
 .eh_frame      0x00000000001176c4       0x20 binaries/rfsgetmode.o
                                         0x38 (size before relaxing)
 .eh_frame      0x00000000001176e4       0x20 binaries/rfsinit.o
                                         0x38 (size before relaxing)
 .eh_frame      0x0000000000117704       0x20 binaries/rfsndmsg.o
                                         0x38 (size before relaxing)
 .eh_frame      0x0000000000117724       0x2c binaries/rfsopen.o
                                         0x44 (size before relaxing)
 .eh_frame      0x0000000000117750       0xec binaries/arp.o
                                        0x104 (size before relaxing)
 .eh_frame      0x000000000011783c       0xd0 binaries/dhcp.o
                                         0xe8 (size before relaxing)
 .eh_frame      0x000000000011790c       0x2c binaries/dot2ip.o
                                         0x44 (size before relaxing)
 .eh_frame      0x0000000000117938       0x60 binaries/hexdump.o
                                         0x78 (size before relaxing)
 .eh_frame      0x0000000000117998      0x198 binaries/icmp.o
                                        0x1b0 (size before relaxing)
 .eh_frame      0x0000000000117b30      0x148 binaries/ip.o
                                        0x160 (size before relaxing)
 .eh_frame      0x0000000000117c78       0x7c binaries/net.o
                                         0x94 (size before relaxing)
 .eh_frame      0x0000000000117cf4       0x24 binaries/netstart.o
                                         0x3c (size before relaxing)
 .eh_frame      0x0000000000117d18       0x50 binaries/pdump.o
                                         0x68 (size before relaxing)
 .eh_frame      0x0000000000117d68       0x80 binaries/tftp.o
                                         0x98 (size before relaxing)
 .eh_frame      0x0000000000117de8      0x1b0 binaries/udp.o
                                        0x1c8 (size before relaxing)
 .eh_frame      0x0000000000117f98       0x30 binaries/addargs.o
                                         0x48 (size before relaxing)
 .eh_frame      0x0000000000117fc8       0x30 binaries/lexan.o
                                         0x48 (size before relaxing)
 .eh_frame      0x0000000000117ff8       0x30 binaries/shell.o
                                         0x48 (size before relaxing)
 .eh_frame      0x0000000000118028       0x2c binaries/xsh_argecho.o
                                         0x44 (size before relaxing)
 .eh_frame      0x0000000000118054       0x30 binaries/xsh_arp.o
                                         0x48 (size before relaxing)
 .eh_frame      0x0000000000118084       0x30 binaries/xsh_cat.o
                                         0x48 (size before relaxing)
 .eh_frame      0x00000000001180b4       0x20 binaries/xsh_clear.o
                                         0x38 (size before relaxing)
 .eh_frame      0x00000000001180d4       0x24 binaries/xsh_date.o
                                         0x3c (size before relaxing)
 .eh_frame      0x00000000001180f8       0x28 binaries/xsh_devdump.o
                                         0x40 (size before relaxing)
 .eh_frame      0x0000000000118120       0x2c binaries/xsh_echo.o
                                         0x44 (size before relaxing)
 .eh_frame      0x000000000011814c       0x20 binaries/xsh_exit.o
                                         0x38 (size before relaxing)
 .eh_frame      0x000000000011816c       0x30 binaries/xsh_help.o
                                         0x48 (size before relaxing)
 .eh_frame      0x000000000011819c       0x2c binaries/xsh_ipaddr.o
                                         0x44 (size before relaxing)
 .eh_frame      0x00000000001181c8       0x2c binaries/xsh_kill.o
                                         0x44 (size before relaxing)
 .eh_frame      0x00000000001181f4       0x58 binaries/xsh_memdump.o
                                         0x70 (size before relaxing)
 .eh_frame      0x000000000011824c       0x30 binaries/xsh_memstat.o
                                         0x48 (size before relaxing)
 .eh_frame      0x000000000011827c       0x30 binaries/xsh_ping.o
                                         0x48 (size before relaxing)
 .eh_frame      0x00000000001182ac       0x30 binaries/xsh_ps.o
                                         0x48 (size before relaxing)
 .eh_frame      0x00000000001182dc       0x30 binaries/xsh_sleep.o
                                         0x48 (size before relaxing)
 .eh_frame      0x000000000011830c       0x2c binaries/xsh_udpdump.o
                                         0x44 (size before relaxing)
 .eh_frame      0x0000000000118338       0x30 binaries/xsh_udpecho.o
                                         0x48 (size before relaxing)
 .eh_frame      0x0000000000118368       0x30 binaries/xsh_udpeserver.o
                                         0x48 (size before relaxing)
 .eh_frame      0x0000000000118398       0x30 binaries/xsh_uptime.o
                                         0x48 (size before relaxing)
 .eh_frame      0x00000000001183c8       0x20 binaries/host2netlc.o
                                         0x38 (size before relaxing)

.iplt           0x00000000001183f0        0x0
 .iplt          0x00000000001183f0        0x0 binaries/start.o

.rel.dyn        0x00000000001183e8        0x0
 .rel.iplt      0x00000000001183e8        0x0 binaries/start.o
 .rel.text      0x00000000001183e8        0x0 binaries/start.o
 .rel.data      0x00000000001183e8        0x0 binaries/start.o
 .rel.rodata    0x00000000001183e8        0x0 binaries/start.o

.data           0x0000000000118400     0x1c00
                0x0000000000118400                data = ABSOLUTE (.)
 *(.data .data.*)
 .data          0x0000000000118400      0x85a binaries/start.o
                0x0000000000118400                gdt
                0x0000000000118450                idt
                0x0000000000118c56                cpudelay
 .data          0x0000000000118c5a        0x0 binaries/app1.o
 .data          0x0000000000118c5a        0x0 binaries/app2.o
 .data          0x0000000000118c5a        0x0 binaries/app3.o
 .data          0x0000000000118c5a        0x0 binaries/app_lim.o
 .data          0x0000000000118c5a        0x0 binaries/app_unlim.o
 *fill*         0x0000000000118c5a        0x6 
 .data          0x0000000000118c60       0x88 binaries/ascdate.o
                0x0000000000118c60                Date
 .data          0x0000000000118ce8        0x0 binaries/bufinit.o
 .data          0x0000000000118ce8        0x0 binaries/chprio.o
 .data          0x0000000000118ce8        0x4 binaries/clkhandler.o
 .data          0x0000000000118cec        0x0 binaries/clkinit.o
 .data          0x0000000000118cec        0x0 binaries/close.o
 *fill*         0x0000000000118cec       0x14 
 .data          0x0000000000118d00      0x30c binaries/conf.o
                0x0000000000118d00                devtab
 .data          0x000000000011900c        0x0 binaries/control.o
 .data          0x000000000011900c        0x0 binaries/cpubound.o
 .data          0x000000000011900c        0x4 binaries/create.o
 .data          0x0000000000119010        0x0 binaries/early_imr.o
 *fill*         0x0000000000119010       0x10 
 .data          0x0000000000119020       0x40 binaries/evec.o
                0x0000000000119020                inames
 .data          0x0000000000119060        0x0 binaries/f1.o
 .data          0x0000000000119060        0x0 binaries/freebuf.o
 .data          0x0000000000119060        0x0 binaries/freemem.o
 .data          0x0000000000119060        0x0 binaries/getbuf.o
 .data          0x0000000000119060        0x0 binaries/getc.o
 .data          0x0000000000119060        0x0 binaries/getdev.o
 .data          0x0000000000119060        0x0 binaries/getitem.o
 .data          0x0000000000119060        0x0 binaries/getmem.o
 .data          0x0000000000119060        0x0 binaries/getpid.o
 .data          0x0000000000119060        0x0 binaries/getppid.o
 .data          0x0000000000119060        0x0 binaries/getprio.o
 .data          0x0000000000119060        0x0 binaries/getstk.o
 .data          0x0000000000119060        0x0 binaries/gettime.o
 .data          0x0000000000119060        0x0 binaries/getutime.o
 .data          0x0000000000119060        0x0 binaries/host2netlb.o
 .data          0x0000000000119060        0x0 binaries/init.o
 .data          0x0000000000119060        0x0 binaries/initialize.o
 .data          0x0000000000119060        0x0 binaries/insert.o
 .data          0x0000000000119060        0x0 binaries/insertd.o
 .data          0x0000000000119060        0x0 binaries/iobound.o
 .data          0x0000000000119060        0x0 binaries/ioerr.o
 .data          0x0000000000119060        0x0 binaries/ionull.o
 .data          0x0000000000119060        0x0 binaries/kill.o
 .data          0x0000000000119060        0x0 binaries/kprintf.o
 .data          0x0000000000119060        0x0 binaries/lab2q3.o
 .data          0x0000000000119060        0x0 binaries/lab2q4.o
 .data          0x0000000000119060        0x0 binaries/lab2q5.o
 .data          0x0000000000119060        0x8 binaries/main.o
                0x0000000000119060                lab2q5sol
                0x0000000000119064                lab2flag
 .data          0x0000000000119068        0x0 binaries/mark.o
 *fill*         0x0000000000119068       0x18 
 .data          0x0000000000119080       0x48 binaries/meminit.o
                0x0000000000119080                gdt_copy
                0x00000000001190c0                bootinfo
                0x00000000001190c4                bootsign
 .data          0x00000000001190c8        0x0 binaries/mkbufpool.o
 .data          0x00000000001190c8        0x0 binaries/myappA.o
 .data          0x00000000001190c8        0x0 binaries/myfuncA.o
 .data          0x00000000001190c8        0x0 binaries/myhacker.o
 .data          0x00000000001190c8        0x0 binaries/myvictim.o
 .data          0x00000000001190c8        0x0 binaries/mywelcomemsg.o
 .data          0x00000000001190c8        0x2 binaries/newqueue.o
 .data          0x00000000001190ca        0x0 binaries/open.o
 .data          0x00000000001190ca        0x0 binaries/panic.o
 .data          0x00000000001190ca        0x0 binaries/pci.o
 .data          0x00000000001190ca        0x0 binaries/platinit.o
 .data          0x00000000001190ca        0x0 binaries/printprstate.o
 .data          0x00000000001190ca        0x0 binaries/prntsegaddr.o
 .data          0x00000000001190ca        0x0 binaries/ptclear.o
 .data          0x00000000001190ca        0x0 binaries/ptcount.o
 .data          0x00000000001190ca        0x0 binaries/ptcreate.o
 .data          0x00000000001190ca        0x0 binaries/ptdelete.o
 .data          0x00000000001190ca        0x0 binaries/ptinit.o
 .data          0x00000000001190ca        0x0 binaries/ptrecv.o
 .data          0x00000000001190ca        0x0 binaries/ptreset.o
 .data          0x00000000001190ca        0x0 binaries/ptsend.o
 .data          0x00000000001190ca        0x0 binaries/putc.o
 .data          0x00000000001190ca        0x0 binaries/quark_irq.o
 .data          0x00000000001190ca        0x0 binaries/quark_pdat.o
 .data          0x00000000001190ca        0x0 binaries/queue.o
 .data          0x00000000001190ca        0x0 binaries/read.o
 .data          0x00000000001190ca        0x0 binaries/ready.o
 .data          0x00000000001190ca        0x0 binaries/receive.o
 .data          0x00000000001190ca        0x0 binaries/recvclr.o
 .data          0x00000000001190ca        0x0 binaries/recvtime.o
 .data          0x00000000001190ca        0x0 binaries/resched.o
 .data          0x00000000001190ca        0x0 binaries/resume.o
 .data          0x00000000001190ca        0x0 binaries/seek.o
 .data          0x00000000001190ca        0x0 binaries/semcount.o
 .data          0x00000000001190ca        0x0 binaries/semcreate.o
 .data          0x00000000001190ca        0x0 binaries/semdelete.o
 .data          0x00000000001190ca        0x0 binaries/semreset.o
 .data          0x00000000001190ca        0x0 binaries/send.o
 .data          0x00000000001190ca        0x0 binaries/signal.o
 .data          0x00000000001190ca        0x0 binaries/signaln.o
 .data          0x00000000001190ca        0x0 binaries/sleep.o
 .data          0x00000000001190ca        0x0 binaries/stackdepth.o
 .data          0x00000000001190ca        0x0 binaries/stacktrace.o
 .data          0x00000000001190ca        0x0 binaries/suspend.o
 .data          0x00000000001190ca        0x0 binaries/unsleep.o
 .data          0x00000000001190ca        0x0 binaries/userret.o
 .data          0x00000000001190ca        0x0 binaries/wait.o
 .data          0x00000000001190ca        0x0 binaries/wakeup.o
 .data          0x00000000001190ca        0x0 binaries/write.o
 .data          0x00000000001190ca        0x0 binaries/xdone.o
 .data          0x00000000001190ca        0x0 binaries/yield.o
 .data          0x00000000001190ca        0x0 binaries/abs.o
 .data          0x00000000001190ca        0x0 binaries/atoi.o
 .data          0x00000000001190ca        0x0 binaries/atol.o
 .data          0x00000000001190ca        0x0 binaries/bzero.o
 .data          0x00000000001190ca        0x0 binaries/ctype_.o
 .data          0x00000000001190ca        0x0 binaries/doprnt.o
 *fill*         0x00000000001190ca       0x16 
 .data          0x00000000001190e0       0x80 binaries/doscan.o
                0x00000000001190e0                _sctab
 .data          0x0000000000119160        0x0 binaries/fdoprnt.o
 .data          0x0000000000119160        0x0 binaries/fgetc.o
 .data          0x0000000000119160        0x0 binaries/fgets.o
 .data          0x0000000000119160        0x0 binaries/fprintf.o
 .data          0x0000000000119160        0x0 binaries/fputc.o
 .data          0x0000000000119160        0x0 binaries/fputs.o
 .data          0x0000000000119160        0x0 binaries/fscanf.o
 .data          0x0000000000119160        0x0 binaries/getchar.o
 .data          0x0000000000119160        0x0 binaries/labs.o
 .data          0x0000000000119160        0x0 binaries/memchr.o
 .data          0x0000000000119160        0x0 binaries/memcmp.o
 .data          0x0000000000119160        0x0 binaries/memcpy.o
 .data          0x0000000000119160        0x0 binaries/memset.o
 .data          0x0000000000119160        0x0 binaries/printf.o
 .data          0x0000000000119160        0x0 binaries/putchar.o
 .data          0x0000000000119160        0x0 binaries/qsort.o
 .data          0x0000000000119160        0x4 binaries/rand.o
 .data          0x0000000000119164        0x0 binaries/sprintf.o
 .data          0x0000000000119164        0x0 binaries/sscanf.o
 .data          0x0000000000119164        0x0 binaries/strchr.o
 .data          0x0000000000119164        0x0 binaries/strcmp.o
 .data          0x0000000000119164        0x0 binaries/strcpy.o
 .data          0x0000000000119164        0x0 binaries/strlen.o
 .data          0x0000000000119164        0x0 binaries/strncat.o
 .data          0x0000000000119164        0x0 binaries/strncmp.o
 .data          0x0000000000119164        0x0 binaries/strncpy.o
 .data          0x0000000000119164        0x0 binaries/strnlen.o
 .data          0x0000000000119164        0x0 binaries/strrchr.o
 .data          0x0000000000119164        0x0 binaries/strstr.o
 .data          0x0000000000119164        0x0 binaries/ttycontrol.o
 .data          0x0000000000119164        0x0 binaries/ttygetc.o
 .data          0x0000000000119164        0x0 binaries/ttyhandle_in.o
 .data          0x0000000000119164        0x0 binaries/ttyhandle_out.o
 .data          0x0000000000119164        0x0 binaries/ttyhandler.o
 .data          0x0000000000119164        0x0 binaries/ttyinit.o
 .data          0x0000000000119164        0x0 binaries/ttykickout.o
 .data          0x0000000000119164        0x0 binaries/ttyputc.o
 .data          0x0000000000119164        0x0 binaries/ttyread.o
 .data          0x0000000000119164        0x0 binaries/ttywrite.o
 .data          0x0000000000119164        0x0 binaries/mount.o
 .data          0x0000000000119164        0x0 binaries/naminit.o
 .data          0x0000000000119164        0x0 binaries/nammap.o
 .data          0x0000000000119164        0x0 binaries/namopen.o
 .data          0x0000000000119164        0x0 binaries/colon2mac.o
 .data          0x0000000000119164        0x0 binaries/ethcontrol.o
 .data          0x0000000000119164        0x0 binaries/ethhandler.o
 .data          0x0000000000119164        0x0 binaries/ethinit.o
 .data          0x0000000000119164        0x0 binaries/ethmcast.o
 .data          0x0000000000119164        0x0 binaries/ethread.o
 .data          0x0000000000119164        0x0 binaries/ethwrite.o
 .data          0x0000000000119164        0x0 binaries/rdsbufalloc.o
 .data          0x0000000000119164        0x0 binaries/rdsclose.o
 .data          0x0000000000119164        0x0 binaries/rdscomm.o
 .data          0x0000000000119164        0x0 binaries/rdscontrol.o
 .data          0x0000000000119164        0x0 binaries/rdsinit.o
 .data          0x0000000000119164        0x0 binaries/rdsopen.o
 .data          0x0000000000119164        0x0 binaries/rdsprocess.o
 .data          0x0000000000119164        0x0 binaries/rdsread.o
 .data          0x0000000000119164        0x0 binaries/rdswrite.o
 .data          0x0000000000119164        0x0 binaries/ramclose.o
 .data          0x0000000000119164        0x0 binaries/raminit.o
 .data          0x0000000000119164        0x0 binaries/ramopen.o
 .data          0x0000000000119164        0x0 binaries/ramread.o
 .data          0x0000000000119164        0x0 binaries/ramwrite.o
 .data          0x0000000000119164        0x0 binaries/lfdballoc.o
 .data          0x0000000000119164        0x0 binaries/lfdbfree.o
 .data          0x0000000000119164        0x0 binaries/lfflush.o
 .data          0x0000000000119164        0x0 binaries/lfgetmode.o
 .data          0x0000000000119164        0x0 binaries/lfiballoc.o
 .data          0x0000000000119164        0x0 binaries/lfibclear.o
 .data          0x0000000000119164        0x0 binaries/lfibget.o
 .data          0x0000000000119164        0x0 binaries/lfibput.o
 .data          0x0000000000119164        0x0 binaries/lflclose.o
 .data          0x0000000000119164        0x0 binaries/lflcontrol.o
 .data          0x0000000000119164        0x0 binaries/lflgetc.o
 .data          0x0000000000119164        0x0 binaries/lflinit.o
 .data          0x0000000000119164        0x0 binaries/lflputc.o
 .data          0x0000000000119164        0x0 binaries/lflread.o
 .data          0x0000000000119164        0x0 binaries/lflseek.o
 .data          0x0000000000119164        0x0 binaries/lflwrite.o
 .data          0x0000000000119164        0x0 binaries/lfsckfmt.o
 .data          0x0000000000119164        0x0 binaries/lfscreate.o
 .data          0x0000000000119164        0x0 binaries/lfsetup.o
 .data          0x0000000000119164        0x0 binaries/lfsinit.o
 .data          0x0000000000119164        0x0 binaries/lfsopen.o
 .data          0x0000000000119164        0x0 binaries/lftruncate.o
 .data          0x0000000000119164        0x0 binaries/rflclose.o
 .data          0x0000000000119164        0x0 binaries/rflgetc.o
 .data          0x0000000000119164        0x0 binaries/rflinit.o
 .data          0x0000000000119164        0x0 binaries/rflputc.o
 .data          0x0000000000119164        0x0 binaries/rflread.o
 .data          0x0000000000119164        0x0 binaries/rflseek.o
 .data          0x0000000000119164        0x0 binaries/rflwrite.o
 .data          0x0000000000119164        0x0 binaries/rfscomm.o
 .data          0x0000000000119164        0x0 binaries/rfscontrol.o
 .data          0x0000000000119164        0x0 binaries/rfsgetmode.o
 .data          0x0000000000119164        0x0 binaries/rfsinit.o
 .data          0x0000000000119164        0x0 binaries/rfsndmsg.o
 .data          0x0000000000119164        0x0 binaries/rfsopen.o
 .data          0x0000000000119164        0x0 binaries/arp.o
 .data          0x0000000000119164        0x0 binaries/dhcp.o
 .data          0x0000000000119164        0x0 binaries/dot2ip.o
 .data          0x0000000000119164        0x0 binaries/hexdump.o
 .data          0x0000000000119164        0x4 binaries/icmp.o
 .data          0x0000000000119168        0x0 binaries/ip.o
 .data          0x0000000000119168        0x0 binaries/net.o
 .data          0x0000000000119168        0x0 binaries/netstart.o
 .data          0x0000000000119168        0x0 binaries/pdump.o
 .data          0x0000000000119168        0x0 binaries/tftp.o
 .data          0x0000000000119168        0x4 binaries/udp.o
 .data          0x000000000011916c        0x0 binaries/addargs.o
 .data          0x000000000011916c        0x0 binaries/lexan.o
 .data          0x000000000011916c        0x4 binaries/shell.o
                0x000000000011916c                ncmd
 .data          0x0000000000119170        0x0 binaries/xsh_argecho.o
 .data          0x0000000000119170        0x0 binaries/xsh_arp.o
 .data          0x0000000000119170        0x0 binaries/xsh_cat.o
 .data          0x0000000000119170        0x0 binaries/xsh_clear.o
 .data          0x0000000000119170        0x0 binaries/xsh_date.o
 .data          0x0000000000119170        0x0 binaries/xsh_devdump.o
 .data          0x0000000000119170        0x0 binaries/xsh_echo.o
 .data          0x0000000000119170        0x0 binaries/xsh_exit.o
 .data          0x0000000000119170        0x0 binaries/xsh_help.o
 .data          0x0000000000119170        0x0 binaries/xsh_ipaddr.o
 .data          0x0000000000119170        0x0 binaries/xsh_kill.o
 .data          0x0000000000119170        0x0 binaries/xsh_memdump.o
 .data          0x0000000000119170        0x0 binaries/xsh_memstat.o
 .data          0x0000000000119170        0x0 binaries/xsh_ping.o
 .data          0x0000000000119170        0x0 binaries/xsh_ps.o
 .data          0x0000000000119170        0x0 binaries/xsh_sleep.o
 .data          0x0000000000119170        0x0 binaries/xsh_udpdump.o
 .data          0x0000000000119170        0x0 binaries/xsh_udpecho.o
 .data          0x0000000000119170        0x0 binaries/xsh_udpeserver.o
 .data          0x0000000000119170        0x0 binaries/xsh_uptime.o
 .data          0x0000000000119170        0x0 binaries/clkdisp.o
 .data          0x0000000000119170        0x0 binaries/ctxsw.o
 .data          0x0000000000119170        0x0 binaries/host2netla.o
 .data          0x0000000000119170        0x0 binaries/host2netlc.o
 .data          0x0000000000119170        0x0 binaries/intr.o
 .data          0x0000000000119170        0x0 binaries/ttydispatch.o
 .data          0x0000000000119170        0x0 binaries/ethdispatch.o
                0x0000000000119170                edata = ABSOLUTE (.)
                0x000000000011a000                . = ALIGN (0x1000)
 *fill*         0x0000000000119170      0xe90 

.igot.plt       0x000000000011a000        0x0
 .igot.plt      0x000000000011a000        0x0 binaries/start.o

.bss            0x000000000011a000    0x20000
                0x000000000011a000                bss = ABSOLUTE (.)
 *(.bss .bss.*)
 .bss           0x000000000011a000        0x0 binaries/start.o
 .bss           0x000000000011a000        0x0 binaries/app1.o
 .bss           0x000000000011a000        0x0 binaries/app2.o
 .bss           0x000000000011a000        0x0 binaries/app3.o
 .bss           0x000000000011a000        0x0 binaries/app_lim.o
 .bss           0x000000000011a000        0x0 binaries/app_unlim.o
 .bss           0x000000000011a000        0x0 binaries/ascdate.o
 .bss           0x000000000011a000        0x0 binaries/bufinit.o
 .bss           0x000000000011a000        0x0 binaries/chprio.o
 .bss           0x000000000011a000        0x0 binaries/clkhandler.o
 .bss           0x000000000011a000        0x4 binaries/clkinit.o
                0x000000000011a000                ctr1000
 .bss           0x000000000011a004        0x0 binaries/close.o
 .bss           0x000000000011a004        0x0 binaries/conf.o
 .bss           0x000000000011a004        0x0 binaries/control.o
 .bss           0x000000000011a004        0x0 binaries/cpubound.o
 .bss           0x000000000011a004        0x0 binaries/create.o
 .bss           0x000000000011a004        0x0 binaries/early_imr.o
 .bss           0x000000000011a004        0x0 binaries/evec.o
 .bss           0x000000000011a004        0x0 binaries/f1.o
 .bss           0x000000000011a004        0x0 binaries/freebuf.o
 .bss           0x000000000011a004        0x0 binaries/freemem.o
 .bss           0x000000000011a004        0x0 binaries/getbuf.o
 .bss           0x000000000011a004        0x0 binaries/getc.o
 .bss           0x000000000011a004        0x0 binaries/getdev.o
 .bss           0x000000000011a004        0x0 binaries/getitem.o
 .bss           0x000000000011a004        0x0 binaries/getmem.o
 .bss           0x000000000011a004        0x0 binaries/getpid.o
 .bss           0x000000000011a004        0x0 binaries/getppid.o
 .bss           0x000000000011a004        0x0 binaries/getprio.o
 .bss           0x000000000011a004        0x0 binaries/getstk.o
 .bss           0x000000000011a004        0x0 binaries/gettime.o
 .bss           0x000000000011a004        0x0 binaries/getutime.o
 .bss           0x000000000011a004        0x0 binaries/host2netlb.o
 .bss           0x000000000011a004        0x0 binaries/init.o
 .bss           0x000000000011a004        0x0 binaries/initialize.o
 .bss           0x000000000011a004        0x0 binaries/insert.o
 .bss           0x000000000011a004        0x0 binaries/insertd.o
 .bss           0x000000000011a004        0x0 binaries/iobound.o
 .bss           0x000000000011a004        0x0 binaries/ioerr.o
 .bss           0x000000000011a004        0x0 binaries/ionull.o
 .bss           0x000000000011a004        0x0 binaries/kill.o
 .bss           0x000000000011a004        0x0 binaries/kprintf.o
 .bss           0x000000000011a004        0x0 binaries/lab2q3.o
 .bss           0x000000000011a004        0x0 binaries/lab2q4.o
 .bss           0x000000000011a004        0x0 binaries/lab2q5.o
 .bss           0x000000000011a004        0x4 binaries/main.o
                0x000000000011a004                victimglobal
 .bss           0x000000000011a008        0x0 binaries/mark.o
 .bss           0x000000000011a008        0x0 binaries/meminit.o
 .bss           0x000000000011a008        0x0 binaries/mkbufpool.o
 .bss           0x000000000011a008        0x4 binaries/myappA.o
 .bss           0x000000000011a00c        0x4 binaries/myfuncA.o
 .bss           0x000000000011a010        0x0 binaries/myhacker.o
 .bss           0x000000000011a010        0x0 binaries/myvictim.o
 .bss           0x000000000011a010        0x0 binaries/mywelcomemsg.o
 .bss           0x000000000011a010        0x0 binaries/newqueue.o
 .bss           0x000000000011a010        0x0 binaries/open.o
 .bss           0x000000000011a010        0x0 binaries/panic.o
 .bss           0x000000000011a010        0x0 binaries/pci.o
 .bss           0x000000000011a010        0x0 binaries/platinit.o
 .bss           0x000000000011a010        0x0 binaries/printprstate.o
 .bss           0x000000000011a010        0x0 binaries/prntsegaddr.o
 .bss           0x000000000011a010        0x0 binaries/ptclear.o
 .bss           0x000000000011a010        0x0 binaries/ptcount.o
 .bss           0x000000000011a010        0x0 binaries/ptcreate.o
 .bss           0x000000000011a010        0x0 binaries/ptdelete.o
 .bss           0x000000000011a010        0x0 binaries/ptinit.o
 .bss           0x000000000011a010        0x0 binaries/ptrecv.o
 .bss           0x000000000011a010        0x0 binaries/ptreset.o
 .bss           0x000000000011a010        0x0 binaries/ptsend.o
 .bss           0x000000000011a010        0x0 binaries/putc.o
 .bss           0x000000000011a010        0x0 binaries/quark_irq.o
 .bss           0x000000000011a010        0x0 binaries/quark_pdat.o
 .bss           0x000000000011a010        0x0 binaries/queue.o
 .bss           0x000000000011a010        0x0 binaries/read.o
 .bss           0x000000000011a010        0x0 binaries/ready.o
 .bss           0x000000000011a010        0x0 binaries/receive.o
 .bss           0x000000000011a010        0x0 binaries/recvclr.o
 .bss           0x000000000011a010        0x0 binaries/recvtime.o
 .bss           0x000000000011a010        0x0 binaries/resched.o
 .bss           0x000000000011a010        0x0 binaries/resume.o
 .bss           0x000000000011a010        0x0 binaries/seek.o
 .bss           0x000000000011a010        0x0 binaries/semcount.o
 .bss           0x000000000011a010        0x4 binaries/semcreate.o
 .bss           0x000000000011a014        0x0 binaries/semdelete.o
 .bss           0x000000000011a014        0x0 binaries/semreset.o
 .bss           0x000000000011a014        0x0 binaries/send.o
 .bss           0x000000000011a014        0x0 binaries/signal.o
 .bss           0x000000000011a014        0x0 binaries/signaln.o
 .bss           0x000000000011a014        0x0 binaries/sleep.o
 .bss           0x000000000011a014        0x8 binaries/stackdepth.o
 .bss           0x000000000011a01c        0x8 binaries/stacktrace.o
 .bss           0x000000000011a024        0x0 binaries/suspend.o
 .bss           0x000000000011a024        0x0 binaries/unsleep.o
 .bss           0x000000000011a024        0x0 binaries/userret.o
 .bss           0x000000000011a024        0x0 binaries/wait.o
 .bss           0x000000000011a024        0x0 binaries/wakeup.o
 .bss           0x000000000011a024        0x0 binaries/write.o
 .bss           0x000000000011a024        0x0 binaries/xdone.o
 .bss           0x000000000011a024        0x0 binaries/yield.o
 .bss           0x000000000011a024        0x0 binaries/abs.o
 .bss           0x000000000011a024        0x0 binaries/atoi.o
 .bss           0x000000000011a024        0x0 binaries/atol.o
 .bss           0x000000000011a024        0x0 binaries/bzero.o
 .bss           0x000000000011a024        0x0 binaries/ctype_.o
 .bss           0x000000000011a024        0x0 binaries/doprnt.o
 .bss           0x000000000011a024        0x0 binaries/doscan.o
 .bss           0x000000000011a024        0x0 binaries/fdoprnt.o
 .bss           0x000000000011a024        0x0 binaries/fgetc.o
 .bss           0x000000000011a024        0x0 binaries/fgets.o
 .bss           0x000000000011a024        0x0 binaries/fprintf.o
 .bss           0x000000000011a024        0x0 binaries/fputc.o
 .bss           0x000000000011a024        0x0 binaries/fputs.o
 .bss           0x000000000011a024        0x0 binaries/fscanf.o
 .bss           0x000000000011a024        0x0 binaries/getchar.o
 .bss           0x000000000011a024        0x0 binaries/labs.o
 .bss           0x000000000011a024        0x0 binaries/memchr.o
 .bss           0x000000000011a024        0x0 binaries/memcmp.o
 .bss           0x000000000011a024        0x0 binaries/memcpy.o
 .bss           0x000000000011a024        0x0 binaries/memset.o
 .bss           0x000000000011a024        0x0 binaries/printf.o
 .bss           0x000000000011a024        0x0 binaries/putchar.o
 .bss           0x000000000011a024        0x8 binaries/qsort.o
 .bss           0x000000000011a02c        0x0 binaries/rand.o
 .bss           0x000000000011a02c        0x0 binaries/sprintf.o
 .bss           0x000000000011a02c        0x0 binaries/sscanf.o
 .bss           0x000000000011a02c        0x0 binaries/strchr.o
 .bss           0x000000000011a02c        0x0 binaries/strcmp.o
 .bss           0x000000000011a02c        0x0 binaries/strcpy.o
 .bss           0x000000000011a02c        0x0 binaries/strlen.o
 .bss           0x000000000011a02c        0x0 binaries/strncat.o
 .bss           0x000000000011a02c        0x0 binaries/strncmp.o
 .bss           0x000000000011a02c        0x0 binaries/strncpy.o
 .bss           0x000000000011a02c        0x0 binaries/strnlen.o
 .bss           0x000000000011a02c        0x0 binaries/strrchr.o
 .bss           0x000000000011a02c        0x0 binaries/strstr.o
 .bss           0x000000000011a02c        0x0 binaries/ttycontrol.o
 .bss           0x000000000011a02c        0x0 binaries/ttygetc.o
 .bss           0x000000000011a02c        0x0 binaries/ttyhandle_in.o
 .bss           0x000000000011a02c        0x0 binaries/ttyhandle_out.o
 .bss           0x000000000011a02c        0x0 binaries/ttyhandler.o
 .bss           0x000000000011a02c        0x0 binaries/ttyinit.o
 .bss           0x000000000011a02c        0x0 binaries/ttykickout.o
 .bss           0x000000000011a02c        0x0 binaries/ttyputc.o
 .bss           0x000000000011a02c        0x0 binaries/ttyread.o
 .bss           0x000000000011a02c        0x0 binaries/ttywrite.o
 .bss           0x000000000011a02c        0x0 binaries/mount.o
 .bss           0x000000000011a02c        0x0 binaries/naminit.o
 .bss           0x000000000011a02c        0x0 binaries/nammap.o
 .bss           0x000000000011a02c        0x0 binaries/namopen.o
 .bss           0x000000000011a02c        0x0 binaries/colon2mac.o
 .bss           0x000000000011a02c        0x0 binaries/ethcontrol.o
 .bss           0x000000000011a02c        0x0 binaries/ethhandler.o
 .bss           0x000000000011a02c        0x0 binaries/ethinit.o
 .bss           0x000000000011a02c        0x0 binaries/ethmcast.o
 .bss           0x000000000011a02c        0x0 binaries/ethread.o
 .bss           0x000000000011a02c        0x0 binaries/ethwrite.o
 .bss           0x000000000011a02c        0x0 binaries/rdsbufalloc.o
 .bss           0x000000000011a02c        0x0 binaries/rdsclose.o
 .bss           0x000000000011a02c        0x0 binaries/rdscomm.o
 .bss           0x000000000011a02c        0x0 binaries/rdscontrol.o
 .bss           0x000000000011a02c        0x0 binaries/rdsinit.o
 .bss           0x000000000011a02c        0x0 binaries/rdsopen.o
 .bss           0x000000000011a02c        0x0 binaries/rdsprocess.o
 .bss           0x000000000011a02c        0x0 binaries/rdsread.o
 .bss           0x000000000011a02c        0x0 binaries/rdswrite.o
 .bss           0x000000000011a02c        0x0 binaries/ramclose.o
 .bss           0x000000000011a02c        0x0 binaries/raminit.o
 .bss           0x000000000011a02c        0x0 binaries/ramopen.o
 .bss           0x000000000011a02c        0x0 binaries/ramread.o
 .bss           0x000000000011a02c        0x0 binaries/ramwrite.o
 .bss           0x000000000011a02c        0x0 binaries/lfdballoc.o
 .bss           0x000000000011a02c        0x0 binaries/lfdbfree.o
 .bss           0x000000000011a02c        0x0 binaries/lfflush.o
 .bss           0x000000000011a02c        0x0 binaries/lfgetmode.o
 .bss           0x000000000011a02c        0x0 binaries/lfiballoc.o
 .bss           0x000000000011a02c        0x0 binaries/lfibclear.o
 .bss           0x000000000011a02c        0x0 binaries/lfibget.o
 .bss           0x000000000011a02c        0x0 binaries/lfibput.o
 .bss           0x000000000011a02c        0x0 binaries/lflclose.o
 .bss           0x000000000011a02c        0x0 binaries/lflcontrol.o
 .bss           0x000000000011a02c        0x0 binaries/lflgetc.o
 .bss           0x000000000011a02c        0x0 binaries/lflinit.o
 .bss           0x000000000011a02c        0x0 binaries/lflputc.o
 .bss           0x000000000011a02c        0x0 binaries/lflread.o
 .bss           0x000000000011a02c        0x0 binaries/lflseek.o
 .bss           0x000000000011a02c        0x0 binaries/lflwrite.o
 .bss           0x000000000011a02c        0x0 binaries/lfsckfmt.o
 .bss           0x000000000011a02c        0x0 binaries/lfscreate.o
 .bss           0x000000000011a02c        0x0 binaries/lfsetup.o
 .bss           0x000000000011a02c        0x0 binaries/lfsinit.o
 .bss           0x000000000011a02c        0x0 binaries/lfsopen.o
 .bss           0x000000000011a02c        0x0 binaries/lftruncate.o
 .bss           0x000000000011a02c        0x0 binaries/rflclose.o
 .bss           0x000000000011a02c        0x0 binaries/rflgetc.o
 .bss           0x000000000011a02c        0x0 binaries/rflinit.o
 .bss           0x000000000011a02c        0x0 binaries/rflputc.o
 .bss           0x000000000011a02c        0x0 binaries/rflread.o
 .bss           0x000000000011a02c        0x0 binaries/rflseek.o
 .bss           0x000000000011a02c        0x0 binaries/rflwrite.o
 .bss           0x000000000011a02c        0x0 binaries/rfscomm.o
 .bss           0x000000000011a02c        0x0 binaries/rfscontrol.o
 .bss           0x000000000011a02c        0x0 binaries/rfsgetmode.o
 .bss           0x000000000011a02c        0x0 binaries/rfsinit.o
 .bss           0x000000000011a02c        0x0 binaries/rfsndmsg.o
 .bss           0x000000000011a02c        0x0 binaries/rfsopen.o
 .bss           0x000000000011a02c        0x0 binaries/arp.o
 .bss           0x000000000011a02c        0x0 binaries/dhcp.o
 .bss           0x000000000011a02c        0x0 binaries/dot2ip.o
 .bss           0x000000000011a02c        0x0 binaries/hexdump.o
 .bss           0x000000000011a02c        0x0 binaries/icmp.o
 .bss           0x000000000011a02c        0x0 binaries/ip.o
 .bss           0x000000000011a02c        0x0 binaries/net.o
 .bss           0x000000000011a02c        0x0 binaries/netstart.o
 .bss           0x000000000011a02c        0x0 binaries/pdump.o
 .bss           0x000000000011a02c        0x0 binaries/tftp.o
 .bss           0x000000000011a02c        0x0 binaries/udp.o
 .bss           0x000000000011a02c        0x0 binaries/addargs.o
 .bss           0x000000000011a02c        0x0 binaries/lexan.o
 .bss           0x000000000011a02c        0x0 binaries/shell.o
 .bss           0x000000000011a02c        0x0 binaries/xsh_argecho.o
 .bss           0x000000000011a02c        0x0 binaries/xsh_arp.o
 .bss           0x000000000011a02c        0x0 binaries/xsh_cat.o
 .bss           0x000000000011a02c        0x0 binaries/xsh_clear.o
 .bss           0x000000000011a02c        0x0 binaries/xsh_date.o
 .bss           0x000000000011a02c        0x0 binaries/xsh_devdump.o
 .bss           0x000000000011a02c        0x0 binaries/xsh_echo.o
 .bss           0x000000000011a02c        0x0 binaries/xsh_exit.o
 .bss           0x000000000011a02c        0x0 binaries/xsh_help.o
 .bss           0x000000000011a02c        0x0 binaries/xsh_ipaddr.o
 .bss           0x000000000011a02c        0x0 binaries/xsh_kill.o
 .bss           0x000000000011a02c        0x0 binaries/xsh_memdump.o
 .bss           0x000000000011a02c        0x0 binaries/xsh_memstat.o
 .bss           0x000000000011a02c        0x4 binaries/xsh_ping.o
 .bss           0x000000000011a030        0x0 binaries/xsh_ps.o
 .bss           0x000000000011a030        0x0 binaries/xsh_sleep.o
 .bss           0x000000000011a030        0x0 binaries/xsh_udpdump.o
 .bss           0x000000000011a030        0x0 binaries/xsh_udpecho.o
 .bss           0x000000000011a030        0x0 binaries/xsh_udpeserver.o
 .bss           0x000000000011a030        0x0 binaries/xsh_uptime.o
 .bss           0x000000000011a030        0x0 binaries/clkdisp.o
 .bss           0x000000000011a030        0x0 binaries/ctxsw.o
 .bss           0x000000000011a030        0x0 binaries/host2netla.o
 .bss           0x000000000011a030        0x0 binaries/host2netlc.o
 .bss           0x000000000011a030        0x0 binaries/intr.o
 .bss           0x000000000011a030        0x0 binaries/ttydispatch.o
 .bss           0x000000000011a030        0x0 binaries/ethdispatch.o
 *(COMMON)
 *fill*         0x000000000011a030       0x10 
 COMMON         0x000000000011a040       0xf4 binaries/bufinit.o
                0x000000000011a040                buftab
                0x000000000011a130                nbpools
 COMMON         0x000000000011a134       0x10 binaries/clkinit.o
                0x000000000011a134                sleepq
                0x000000000011a138                preempt
                0x000000000011a13c                clktimemsec
                0x000000000011a140                clktime
 COMMON         0x000000000011a144        0x2 binaries/evec.o
                0x000000000011a144                girmask
 *fill*         0x000000000011a146       0x1a 
 COMMON         0x000000000011a160     0x2118 binaries/initialize.o
                0x000000000011a160                currpid
                0x000000000011a180                proctab
                0x000000000011bda0                prcount
                0x000000000011bdc0                semtab
                0x000000000011c270                memlist
 *fill*         0x000000000011c278        0x8 
 COMMON         0x000000000011c280       0x58 binaries/mark.o
                0x000000000011c280                marks
                0x000000000011c2d0                nmarks
                0x000000000011c2d4                mkmutex
 COMMON         0x000000000011c2d8        0x8 binaries/meminit.o
                0x000000000011c2d8                minheap
                0x000000000011c2dc                maxheap
 COMMON         0x000000000011c2e0      0x2d8 binaries/ptinit.o
                0x000000000011c2e0                porttab
                0x000000000011c5b0                ptnextid
                0x000000000011c5b4                ptfree
 *fill*         0x000000000011c5b8        0x8 
 COMMON         0x000000000011c5c0      0x980 binaries/queue.o
                0x000000000011c5c0                queuetab
 COMMON         0x000000000011cf40        0x2 binaries/ready.o
                0x000000000011cf40                readylist
 *fill*         0x000000000011cf42        0x2 
 COMMON         0x000000000011cf44        0x8 binaries/resched.o
                0x000000000011cf44                Defer
 *fill*         0x000000000011cf4c       0x14 
 COMMON         0x000000000011cf60      0x10c binaries/ttyinit.o
                0x000000000011cf60                ttytab
 *fill*         0x000000000011d06c       0x14 
 COMMON         0x000000000011d080     0x19c0 binaries/naminit.o
                0x000000000011d080                nnames
                0x000000000011d0a0                nametab
 COMMON         0x000000000011ea40      0x138 binaries/ethinit.o
                0x000000000011ea40                ethertab
 *fill*         0x000000000011eb78        0x8 
 COMMON         0x000000000011eb80       0x8c binaries/rdsinit.o
                0x000000000011eb80                rdstab
 *fill*         0x000000000011ec0c       0x14 
 COMMON         0x000000000011ec20    0x19000 binaries/raminit.o
                0x000000000011ec20                Ram
 COMMON         0x0000000000137c20      0xf00 binaries/lflinit.o
                0x0000000000137c20                lfltab
 COMMON         0x0000000000138b20      0x20c binaries/lfsinit.o
                0x0000000000138b20                Lf_data
 *fill*         0x0000000000138d2c       0x14 
 COMMON         0x0000000000138d40      0x5a0 binaries/rflinit.o
                0x0000000000138d40                rfltab
 COMMON         0x00000000001392e0       0x18 binaries/rfsinit.o
                0x00000000001392e0                Rf_data
 *fill*         0x00000000001392f8        0x8 
 COMMON         0x0000000000139300      0x140 binaries/arp.o
                0x0000000000139300                arpcache
 COMMON         0x0000000000139440      0x230 binaries/icmp.o
                0x0000000000139440                icmptab
 *fill*         0x0000000000139670       0x10 
 COMMON         0x0000000000139680       0x2c binaries/ip.o
                0x0000000000139680                ipoqueue
 *fill*         0x00000000001396ac       0x14 
 COMMON         0x00000000001396c0       0xc8 binaries/net.o
                0x00000000001396c0                netbufpool
                0x00000000001396e0                NetData
 *fill*         0x0000000000139788       0x18 
 COMMON         0x00000000001397a0      0x168 binaries/udp.o
                0x00000000001397a0                udptab
                0x0000000000139908                ebss = ABSOLUTE (.)
                0x000000000013a000                . = ALIGN (0x1000)
 *fill*         0x0000000000139908      0x6f8 
 */()
                0x000000000013a000                end = ABSOLUTE (.)
                0x000000000013a000                _end = ABSOLUTE (.)
                0x000000000013a000                . = ALIGN (0x1000)
LOAD binaries/start.o
LOAD binaries/app1.o
LOAD binaries/app2.o
LOAD binaries/app3.o
LOAD binaries/app_lim.o
LOAD binaries/app_unlim.o
LOAD binaries/ascdate.o
LOAD binaries/bufinit.o
LOAD binaries/chprio.o
LOAD binaries/clkhandler.o
LOAD binaries/clkinit.o
LOAD binaries/close.o
LOAD binaries/conf.o
LOAD binaries/control.o
LOAD binaries/cpubound.o
LOAD binaries/create.o
LOAD binaries/early_imr.o
LOAD binaries/evec.o
LOAD binaries/f1.o
LOAD binaries/freebuf.o
LOAD binaries/freemem.o
LOAD binaries/getbuf.o
LOAD binaries/getc.o
LOAD binaries/getdev.o
LOAD binaries/getitem.o
LOAD binaries/getmem.o
LOAD binaries/getpid.o
LOAD binaries/getppid.o
LOAD binaries/getprio.o
LOAD binaries/getstk.o
LOAD binaries/gettime.o
LOAD binaries/getutime.o
LOAD binaries/host2netlb.o
LOAD binaries/init.o
LOAD binaries/initialize.o
LOAD binaries/insert.o
LOAD binaries/insertd.o
LOAD binaries/iobound.o
LOAD binaries/ioerr.o
LOAD binaries/ionull.o
LOAD binaries/kill.o
LOAD binaries/kprintf.o
LOAD binaries/lab2q3.o
LOAD binaries/lab2q4.o
LOAD binaries/lab2q5.o
LOAD binaries/main.o
LOAD binaries/mark.o
LOAD binaries/meminit.o
LOAD binaries/mkbufpool.o
LOAD binaries/myappA.o
LOAD binaries/myfuncA.o
LOAD binaries/myhacker.o
LOAD binaries/myvictim.o
LOAD binaries/mywelcomemsg.o
LOAD binaries/newqueue.o
LOAD binaries/open.o
LOAD binaries/panic.o
LOAD binaries/pci.o
LOAD binaries/platinit.o
LOAD binaries/printprstate.o
LOAD binaries/prntsegaddr.o
LOAD binaries/ptclear.o
LOAD binaries/ptcount.o
LOAD binaries/ptcreate.o
LOAD binaries/ptdelete.o
LOAD binaries/ptinit.o
LOAD binaries/ptrecv.o
LOAD binaries/ptreset.o
LOAD binaries/ptsend.o
LOAD binaries/putc.o
LOAD binaries/quark_irq.o
LOAD binaries/quark_pdat.o
LOAD binaries/queue.o
LOAD binaries/read.o
LOAD binaries/ready.o
LOAD binaries/receive.o
LOAD binaries/recvclr.o
LOAD binaries/recvtime.o
LOAD binaries/resched.o
LOAD binaries/resume.o
LOAD binaries/seek.o
LOAD binaries/semcount.o
LOAD binaries/semcreate.o
LOAD binaries/semdelete.o
LOAD binaries/semreset.o
LOAD binaries/send.o
LOAD binaries/signal.o
LOAD binaries/signaln.o
LOAD binaries/sleep.o
LOAD binaries/stackdepth.o
LOAD binaries/stacktrace.o
LOAD binaries/suspend.o
LOAD binaries/unsleep.o
LOAD binaries/userret.o
LOAD binaries/wait.o
LOAD binaries/wakeup.o
LOAD binaries/write.o
LOAD binaries/xdone.o
LOAD binaries/yield.o
LOAD binaries/abs.o
LOAD binaries/atoi.o
LOAD binaries/atol.o
LOAD binaries/bzero.o
LOAD binaries/ctype_.o
LOAD binaries/doprnt.o
LOAD binaries/doscan.o
LOAD binaries/fdoprnt.o
LOAD binaries/fgetc.o
LOAD binaries/fgets.o
LOAD binaries/fprintf.o
LOAD binaries/fputc.o
LOAD binaries/fputs.o
LOAD binaries/fscanf.o
LOAD binaries/getchar.o
LOAD binaries/labs.o
LOAD binaries/memchr.o
LOAD binaries/memcmp.o
LOAD binaries/memcpy.o
LOAD binaries/memset.o
LOAD binaries/printf.o
LOAD binaries/putchar.o
LOAD binaries/qsort.o
LOAD binaries/rand.o
LOAD binaries/sprintf.o
LOAD binaries/sscanf.o
LOAD binaries/strchr.o
LOAD binaries/strcmp.o
LOAD binaries/strcpy.o
LOAD binaries/strlen.o
LOAD binaries/strncat.o
LOAD binaries/strncmp.o
LOAD binaries/strncpy.o
LOAD binaries/strnlen.o
LOAD binaries/strrchr.o
LOAD binaries/strstr.o
LOAD binaries/ttycontrol.o
LOAD binaries/ttygetc.o
LOAD binaries/ttyhandle_in.o
LOAD binaries/ttyhandle_out.o
LOAD binaries/ttyhandler.o
LOAD binaries/ttyinit.o
LOAD binaries/ttykickout.o
LOAD binaries/ttyputc.o
LOAD binaries/ttyread.o
LOAD binaries/ttywrite.o
LOAD binaries/mount.o
LOAD binaries/naminit.o
LOAD binaries/nammap.o
LOAD binaries/namopen.o
LOAD binaries/colon2mac.o
LOAD binaries/ethcontrol.o
LOAD binaries/ethhandler.o
LOAD binaries/ethinit.o
LOAD binaries/ethmcast.o
LOAD binaries/ethread.o
LOAD binaries/ethwrite.o
LOAD binaries/rdsbufalloc.o
LOAD binaries/rdsclose.o
LOAD binaries/rdscomm.o
LOAD binaries/rdscontrol.o
LOAD binaries/rdsinit.o
LOAD binaries/rdsopen.o
LOAD binaries/rdsprocess.o
LOAD binaries/rdsread.o
LOAD binaries/rdswrite.o
LOAD binaries/ramclose.o
LOAD binaries/raminit.o
LOAD binaries/ramopen.o
LOAD binaries/ramread.o
LOAD binaries/ramwrite.o
LOAD binaries/lfdballoc.o
LOAD binaries/lfdbfree.o
LOAD binaries/lfflush.o
LOAD binaries/lfgetmode.o
LOAD binaries/lfiballoc.o
LOAD binaries/lfibclear.o
LOAD binaries/lfibget.o
LOAD binaries/lfibput.o
LOAD binaries/lflclose.o
LOAD binaries/lflcontrol.o
LOAD binaries/lflgetc.o
LOAD binaries/lflinit.o
LOAD binaries/lflputc.o
LOAD binaries/lflread.o
LOAD binaries/lflseek.o
LOAD binaries/lflwrite.o
LOAD binaries/lfsckfmt.o
LOAD binaries/lfscreate.o
LOAD binaries/lfsetup.o
LOAD binaries/lfsinit.o
LOAD binaries/lfsopen.o
LOAD binaries/lftruncate.o
LOAD binaries/rflclose.o
LOAD binaries/rflgetc.o
LOAD binaries/rflinit.o
LOAD binaries/rflputc.o
LOAD binaries/rflread.o
LOAD binaries/rflseek.o
LOAD binaries/rflwrite.o
LOAD binaries/rfscomm.o
LOAD binaries/rfscontrol.o
LOAD binaries/rfsgetmode.o
LOAD binaries/rfsinit.o
LOAD binaries/rfsndmsg.o
LOAD binaries/rfsopen.o
LOAD binaries/arp.o
LOAD binaries/dhcp.o
LOAD binaries/dot2ip.o
LOAD binaries/hexdump.o
LOAD binaries/icmp.o
LOAD binaries/ip.o
LOAD binaries/net.o
LOAD binaries/netstart.o
LOAD binaries/pdump.o
LOAD binaries/tftp.o
LOAD binaries/udp.o
LOAD binaries/addargs.o
LOAD binaries/lexan.o
LOAD binaries/shell.o
LOAD binaries/xsh_argecho.o
LOAD binaries/xsh_arp.o
LOAD binaries/xsh_cat.o
LOAD binaries/xsh_clear.o
LOAD binaries/xsh_date.o
LOAD binaries/xsh_devdump.o
LOAD binaries/xsh_echo.o
LOAD binaries/xsh_exit.o
LOAD binaries/xsh_help.o
LOAD binaries/xsh_ipaddr.o
LOAD binaries/xsh_kill.o
LOAD binaries/xsh_memdump.o
LOAD binaries/xsh_memstat.o
LOAD binaries/xsh_ping.o
LOAD binaries/xsh_ps.o
LOAD binaries/xsh_sleep.o
LOAD binaries/xsh_udpdump.o
LOAD binaries/xsh_udpecho.o
LOAD binaries/xsh_udpeserver.o
LOAD binaries/xsh_uptime.o
LOAD binaries/clkdisp.o
LOAD binaries/ctxsw.o
LOAD binaries/host2netla.o
LOAD binaries/host2netlc.o
LOAD binaries/intr.o
LOAD binaries/ttydispatch.o
LOAD binaries/ethdispatch.o
OUTPUT(../compile/xinu elf32-i386)

.comment        0x0000000000000000       0x2a
 .comment       0x0000000000000000       0x2a binaries/app1.o
                                         0x2b (size before relaxing)
 .comment       0x000000000000002a       0x2b binaries/app2.o
 .comment       0x000000000000002a       0x2b binaries/app3.o
 .comment       0x000000000000002a       0x2b binaries/app_lim.o
 .comment       0x000000000000002a       0x2b binaries/app_unlim.o
 .comment       0x000000000000002a       0x2b binaries/ascdate.o
 .comment       0x000000000000002a       0x2b binaries/bufinit.o
 .comment       0x000000000000002a       0x2b binaries/chprio.o
 .comment       0x000000000000002a       0x2b binaries/clkhandler.o
 .comment       0x000000000000002a       0x2b binaries/clkinit.o
 .comment       0x000000000000002a       0x2b binaries/close.o
 .comment       0x000000000000002a       0x2b binaries/conf.o
 .comment       0x000000000000002a       0x2b binaries/control.o
 .comment       0x000000000000002a       0x2b binaries/cpubound.o
 .comment       0x000000000000002a       0x2b binaries/create.o
 .comment       0x000000000000002a       0x2b binaries/early_imr.o
 .comment       0x000000000000002a       0x2b binaries/evec.o
 .comment       0x000000000000002a       0x2b binaries/f1.o
 .comment       0x000000000000002a       0x2b binaries/freebuf.o
 .comment       0x000000000000002a       0x2b binaries/freemem.o
 .comment       0x000000000000002a       0x2b binaries/getbuf.o
 .comment       0x000000000000002a       0x2b binaries/getc.o
 .comment       0x000000000000002a       0x2b binaries/getdev.o
 .comment       0x000000000000002a       0x2b binaries/getitem.o
 .comment       0x000000000000002a       0x2b binaries/getmem.o
 .comment       0x000000000000002a       0x2b binaries/getpid.o
 .comment       0x000000000000002a       0x2b binaries/getppid.o
 .comment       0x000000000000002a       0x2b binaries/getprio.o
 .comment       0x000000000000002a       0x2b binaries/getstk.o
 .comment       0x000000000000002a       0x2b binaries/gettime.o
 .comment       0x000000000000002a       0x2b binaries/getutime.o
 .comment       0x000000000000002a       0x2b binaries/host2netlb.o
 .comment       0x000000000000002a       0x2b binaries/init.o
 .comment       0x000000000000002a       0x2b binaries/initialize.o
 .comment       0x000000000000002a       0x2b binaries/insert.o
 .comment       0x000000000000002a       0x2b binaries/insertd.o
 .comment       0x000000000000002a       0x2b binaries/iobound.o
 .comment       0x000000000000002a       0x2b binaries/ioerr.o
 .comment       0x000000000000002a       0x2b binaries/ionull.o
 .comment       0x000000000000002a       0x2b binaries/kill.o
 .comment       0x000000000000002a       0x2b binaries/kprintf.o
 .comment       0x000000000000002a       0x2b binaries/lab2q3.o
 .comment       0x000000000000002a       0x2b binaries/lab2q4.o
 .comment       0x000000000000002a       0x2b binaries/lab2q5.o
 .comment       0x000000000000002a       0x2b binaries/main.o
 .comment       0x000000000000002a       0x2b binaries/mark.o
 .comment       0x000000000000002a       0x2b binaries/meminit.o
 .comment       0x000000000000002a       0x2b binaries/mkbufpool.o
 .comment       0x000000000000002a       0x2b binaries/myappA.o
 .comment       0x000000000000002a       0x2b binaries/myfuncA.o
 .comment       0x000000000000002a       0x2b binaries/myhacker.o
 .comment       0x000000000000002a       0x2b binaries/myvictim.o
 .comment       0x000000000000002a       0x2b binaries/mywelcomemsg.o
 .comment       0x000000000000002a       0x2b binaries/newqueue.o
 .comment       0x000000000000002a       0x2b binaries/open.o
 .comment       0x000000000000002a       0x2b binaries/panic.o
 .comment       0x000000000000002a       0x2b binaries/pci.o
 .comment       0x000000000000002a       0x2b binaries/platinit.o
 .comment       0x000000000000002a       0x2b binaries/printprstate.o
 .comment       0x000000000000002a       0x2b binaries/prntsegaddr.o
 .comment       0x000000000000002a       0x2b binaries/ptclear.o
 .comment       0x000000000000002a       0x2b binaries/ptcount.o
 .comment       0x000000000000002a       0x2b binaries/ptcreate.o
 .comment       0x000000000000002a       0x2b binaries/ptdelete.o
 .comment       0x000000000000002a       0x2b binaries/ptinit.o
 .comment       0x000000000000002a       0x2b binaries/ptrecv.o
 .comment       0x000000000000002a       0x2b binaries/ptreset.o
 .comment       0x000000000000002a       0x2b binaries/ptsend.o
 .comment       0x000000000000002a       0x2b binaries/putc.o
 .comment       0x000000000000002a       0x2b binaries/quark_irq.o
 .comment       0x000000000000002a       0x2b binaries/quark_pdat.o
 .comment       0x000000000000002a       0x2b binaries/queue.o
 .comment       0x000000000000002a       0x2b binaries/read.o
 .comment       0x000000000000002a       0x2b binaries/ready.o
 .comment       0x000000000000002a       0x2b binaries/receive.o
 .comment       0x000000000000002a       0x2b binaries/recvclr.o
 .comment       0x000000000000002a       0x2b binaries/recvtime.o
 .comment       0x000000000000002a       0x2b binaries/resched.o
 .comment       0x000000000000002a       0x2b binaries/resume.o
 .comment       0x000000000000002a       0x2b binaries/seek.o
 .comment       0x000000000000002a       0x2b binaries/semcount.o
 .comment       0x000000000000002a       0x2b binaries/semcreate.o
 .comment       0x000000000000002a       0x2b binaries/semdelete.o
 .comment       0x000000000000002a       0x2b binaries/semreset.o
 .comment       0x000000000000002a       0x2b binaries/send.o
 .comment       0x000000000000002a       0x2b binaries/signal.o
 .comment       0x000000000000002a       0x2b binaries/signaln.o
 .comment       0x000000000000002a       0x2b binaries/sleep.o
 .comment       0x000000000000002a       0x2b binaries/stackdepth.o
 .comment       0x000000000000002a       0x2b binaries/stacktrace.o
 .comment       0x000000000000002a       0x2b binaries/suspend.o
 .comment       0x000000000000002a       0x2b binaries/unsleep.o
 .comment       0x000000000000002a       0x2b binaries/userret.o
 .comment       0x000000000000002a       0x2b binaries/wait.o
 .comment       0x000000000000002a       0x2b binaries/wakeup.o
 .comment       0x000000000000002a       0x2b binaries/write.o
 .comment       0x000000000000002a       0x2b binaries/xdone.o
 .comment       0x000000000000002a       0x2b binaries/yield.o
 .comment       0x000000000000002a       0x2b binaries/abs.o
 .comment       0x000000000000002a       0x2b binaries/atoi.o
 .comment       0x000000000000002a       0x2b binaries/atol.o
 .comment       0x000000000000002a       0x2b binaries/bzero.o
 .comment       0x000000000000002a       0x2b binaries/ctype_.o
 .comment       0x000000000000002a       0x2b binaries/doprnt.o
 .comment       0x000000000000002a       0x2b binaries/doscan.o
 .comment       0x000000000000002a       0x2b binaries/fdoprnt.o
 .comment       0x000000000000002a       0x2b binaries/fgetc.o
 .comment       0x000000000000002a       0x2b binaries/fgets.o
 .comment       0x000000000000002a       0x2b binaries/fprintf.o
 .comment       0x000000000000002a       0x2b binaries/fputc.o
 .comment       0x000000000000002a       0x2b binaries/fputs.o
 .comment       0x000000000000002a       0x2b binaries/fscanf.o
 .comment       0x000000000000002a       0x2b binaries/getchar.o
 .comment       0x000000000000002a       0x2b binaries/labs.o
 .comment       0x000000000000002a       0x2b binaries/memchr.o
 .comment       0x000000000000002a       0x2b binaries/memcmp.o
 .comment       0x000000000000002a       0x2b binaries/memcpy.o
 .comment       0x000000000000002a       0x2b binaries/memset.o
 .comment       0x000000000000002a       0x2b binaries/printf.o
 .comment       0x000000000000002a       0x2b binaries/putchar.o
 .comment       0x000000000000002a       0x2b binaries/qsort.o
 .comment       0x000000000000002a       0x2b binaries/rand.o
 .comment       0x000000000000002a       0x2b binaries/sprintf.o
 .comment       0x000000000000002a       0x2b binaries/sscanf.o
 .comment       0x000000000000002a       0x2b binaries/strchr.o
 .comment       0x000000000000002a       0x2b binaries/strcmp.o
 .comment       0x000000000000002a       0x2b binaries/strcpy.o
 .comment       0x000000000000002a       0x2b binaries/strlen.o
 .comment       0x000000000000002a       0x2b binaries/strncat.o
 .comment       0x000000000000002a       0x2b binaries/strncmp.o
 .comment       0x000000000000002a       0x2b binaries/strncpy.o
 .comment       0x000000000000002a       0x2b binaries/strnlen.o
 .comment       0x000000000000002a       0x2b binaries/strrchr.o
 .comment       0x000000000000002a       0x2b binaries/strstr.o
 .comment       0x000000000000002a       0x2b binaries/ttycontrol.o
 .comment       0x000000000000002a       0x2b binaries/ttygetc.o
 .comment       0x000000000000002a       0x2b binaries/ttyhandle_in.o
 .comment       0x000000000000002a       0x2b binaries/ttyhandle_out.o
 .comment       0x000000000000002a       0x2b binaries/ttyhandler.o
 .comment       0x000000000000002a       0x2b binaries/ttyinit.o
 .comment       0x000000000000002a       0x2b binaries/ttykickout.o
 .comment       0x000000000000002a       0x2b binaries/ttyputc.o
 .comment       0x000000000000002a       0x2b binaries/ttyread.o
 .comment       0x000000000000002a       0x2b binaries/ttywrite.o
 .comment       0x000000000000002a       0x2b binaries/mount.o
 .comment       0x000000000000002a       0x2b binaries/naminit.o
 .comment       0x000000000000002a       0x2b binaries/nammap.o
 .comment       0x000000000000002a       0x2b binaries/namopen.o
 .comment       0x000000000000002a       0x2b binaries/colon2mac.o
 .comment       0x000000000000002a       0x2b binaries/ethcontrol.o
 .comment       0x000000000000002a       0x2b binaries/ethhandler.o
 .comment       0x000000000000002a       0x2b binaries/ethinit.o
 .comment       0x000000000000002a       0x2b binaries/ethmcast.o
 .comment       0x000000000000002a       0x2b binaries/ethread.o
 .comment       0x000000000000002a       0x2b binaries/ethwrite.o
 .comment       0x000000000000002a       0x2b binaries/rdsbufalloc.o
 .comment       0x000000000000002a       0x2b binaries/rdsclose.o
 .comment       0x000000000000002a       0x2b binaries/rdscomm.o
 .comment       0x000000000000002a       0x2b binaries/rdscontrol.o
 .comment       0x000000000000002a       0x2b binaries/rdsinit.o
 .comment       0x000000000000002a       0x2b binaries/rdsopen.o
 .comment       0x000000000000002a       0x2b binaries/rdsprocess.o
 .comment       0x000000000000002a       0x2b binaries/rdsread.o
 .comment       0x000000000000002a       0x2b binaries/rdswrite.o
 .comment       0x000000000000002a       0x2b binaries/ramclose.o
 .comment       0x000000000000002a       0x2b binaries/raminit.o
 .comment       0x000000000000002a       0x2b binaries/ramopen.o
 .comment       0x000000000000002a       0x2b binaries/ramread.o
 .comment       0x000000000000002a       0x2b binaries/ramwrite.o
 .comment       0x000000000000002a       0x2b binaries/lfdballoc.o
 .comment       0x000000000000002a       0x2b binaries/lfdbfree.o
 .comment       0x000000000000002a       0x2b binaries/lfflush.o
 .comment       0x000000000000002a       0x2b binaries/lfgetmode.o
 .comment       0x000000000000002a       0x2b binaries/lfiballoc.o
 .comment       0x000000000000002a       0x2b binaries/lfibclear.o
 .comment       0x000000000000002a       0x2b binaries/lfibget.o
 .comment       0x000000000000002a       0x2b binaries/lfibput.o
 .comment       0x000000000000002a       0x2b binaries/lflclose.o
 .comment       0x000000000000002a       0x2b binaries/lflcontrol.o
 .comment       0x000000000000002a       0x2b binaries/lflgetc.o
 .comment       0x000000000000002a       0x2b binaries/lflinit.o
 .comment       0x000000000000002a       0x2b binaries/lflputc.o
 .comment       0x000000000000002a       0x2b binaries/lflread.o
 .comment       0x000000000000002a       0x2b binaries/lflseek.o
 .comment       0x000000000000002a       0x2b binaries/lflwrite.o
 .comment       0x000000000000002a       0x2b binaries/lfsckfmt.o
 .comment       0x000000000000002a       0x2b binaries/lfscreate.o
 .comment       0x000000000000002a       0x2b binaries/lfsetup.o
 .comment       0x000000000000002a       0x2b binaries/lfsinit.o
 .comment       0x000000000000002a       0x2b binaries/lfsopen.o
 .comment       0x000000000000002a       0x2b binaries/lftruncate.o
 .comment       0x000000000000002a       0x2b binaries/rflclose.o
 .comment       0x000000000000002a       0x2b binaries/rflgetc.o
 .comment       0x000000000000002a       0x2b binaries/rflinit.o
 .comment       0x000000000000002a       0x2b binaries/rflputc.o
 .comment       0x000000000000002a       0x2b binaries/rflread.o
 .comment       0x000000000000002a       0x2b binaries/rflseek.o
 .comment       0x000000000000002a       0x2b binaries/rflwrite.o
 .comment       0x000000000000002a       0x2b binaries/rfscomm.o
 .comment       0x000000000000002a       0x2b binaries/rfscontrol.o
 .comment       0x000000000000002a       0x2b binaries/rfsgetmode.o
 .comment       0x000000000000002a       0x2b binaries/rfsinit.o
 .comment       0x000000000000002a       0x2b binaries/rfsndmsg.o
 .comment       0x000000000000002a       0x2b binaries/rfsopen.o
 .comment       0x000000000000002a       0x2b binaries/arp.o
 .comment       0x000000000000002a       0x2b binaries/dhcp.o
 .comment       0x000000000000002a       0x2b binaries/dot2ip.o
 .comment       0x000000000000002a       0x2b binaries/hexdump.o
 .comment       0x000000000000002a       0x2b binaries/icmp.o
 .comment       0x000000000000002a       0x2b binaries/ip.o
 .comment       0x000000000000002a       0x2b binaries/net.o
 .comment       0x000000000000002a       0x2b binaries/netstart.o
 .comment       0x000000000000002a       0x2b binaries/pdump.o
 .comment       0x000000000000002a       0x2b binaries/tftp.o
 .comment       0x000000000000002a       0x2b binaries/udp.o
 .comment       0x000000000000002a       0x2b binaries/addargs.o
 .comment       0x000000000000002a       0x2b binaries/lexan.o
 .comment       0x000000000000002a       0x2b binaries/shell.o
 .comment       0x000000000000002a       0x2b binaries/xsh_argecho.o
 .comment       0x000000000000002a       0x2b binaries/xsh_arp.o
 .comment       0x000000000000002a       0x2b binaries/xsh_cat.o
 .comment       0x000000000000002a       0x2b binaries/xsh_clear.o
 .comment       0x000000000000002a       0x2b binaries/xsh_date.o
 .comment       0x000000000000002a       0x2b binaries/xsh_devdump.o
 .comment       0x000000000000002a       0x2b binaries/xsh_echo.o
 .comment       0x000000000000002a       0x2b binaries/xsh_exit.o
 .comment       0x000000000000002a       0x2b binaries/xsh_help.o
 .comment       0x000000000000002a       0x2b binaries/xsh_ipaddr.o
 .comment       0x000000000000002a       0x2b binaries/xsh_kill.o
 .comment       0x000000000000002a       0x2b binaries/xsh_memdump.o
 .comment       0x000000000000002a       0x2b binaries/xsh_memstat.o
 .comment       0x000000000000002a       0x2b binaries/xsh_ping.o
 .comment       0x000000000000002a       0x2b binaries/xsh_ps.o
 .comment       0x000000000000002a       0x2b binaries/xsh_sleep.o
 .comment       0x000000000000002a       0x2b binaries/xsh_udpdump.o
 .comment       0x000000000000002a       0x2b binaries/xsh_udpecho.o
 .comment       0x000000000000002a       0x2b binaries/xsh_udpeserver.o
 .comment       0x000000000000002a       0x2b binaries/xsh_uptime.o
 .comment       0x000000000000002a       0x2b binaries/host2netlc.o

.note.GNU-stack
                0x0000000000000000        0x0
 .note.GNU-stack
                0x0000000000000000        0x0 binaries/app1.o
 .note.GNU-stack
                0x0000000000000000        0x0 binaries/app2.o
 .note.GNU-stack
                0x0000000000000000        0x0 binaries/app3.o
 .note.GNU-stack
                0x0000000000000000        0x0 binaries/app_lim.o
 .note.GNU-stack
                0x0000000000000000        0x0 binaries/app_unlim.o
 .note.GNU-stack
                0x0000000000000000        0x0 binaries/ascdate.o
 .note.GNU-stack
                0x0000000000000000        0x0 binaries/bufinit.o
 .note.GNU-stack
                0x0000000000000000        0x0 binaries/chprio.o
 .note.GNU-stack
                0x0000000000000000        0x0 binaries/clkhandler.o
 .note.GNU-stack
                0x0000000000000000        0x0 binaries/clkinit.o
 .note.GNU-stack
                0x0000000000000000        0x0 binaries/close.o
 .note.GNU-stack
                0x0000000000000000        0x0 binaries/conf.o
 .note.GNU-stack
                0x0000000000000000        0x0 binaries/control.o
 .note.GNU-stack
                0x0000000000000000        0x0 binaries/cpubound.o
 .note.GNU-stack
                0x0000000000000000        0x0 binaries/create.o
 .note.GNU-stack
                0x0000000000000000        0x0 binaries/early_imr.o
 .note.GNU-stack
                0x0000000000000000        0x0 binaries/evec.o
 .note.GNU-stack
                0x0000000000000000        0x0 binaries/f1.o
 .note.GNU-stack
                0x0000000000000000        0x0 binaries/freebuf.o
 .note.GNU-stack
                0x0000000000000000        0x0 binaries/freemem.o
 .note.GNU-stack
                0x0000000000000000        0x0 binaries/getbuf.o
 .note.GNU-stack
                0x0000000000000000        0x0 binaries/getc.o
 .note.GNU-stack
                0x0000000000000000        0x0 binaries/getdev.o
 .note.GNU-stack
                0x0000000000000000        0x0 binaries/getitem.o
 .note.GNU-stack
                0x0000000000000000        0x0 binaries/getmem.o
 .note.GNU-stack
                0x0000000000000000        0x0 binaries/getpid.o
 .note.GNU-stack
                0x0000000000000000        0x0 binaries/getppid.o
 .note.GNU-stack
                0x0000000000000000        0x0 binaries/getprio.o
 .note.GNU-stack
                0x0000000000000000        0x0 binaries/getstk.o
 .note.GNU-stack
                0x0000000000000000        0x0 binaries/gettime.o
 .note.GNU-stack
                0x0000000000000000        0x0 binaries/getutime.o
 .note.GNU-stack
                0x0000000000000000        0x0 binaries/host2netlb.o
 .note.GNU-stack
                0x0000000000000000        0x0 binaries/init.o
 .note.GNU-stack
                0x0000000000000000        0x0 binaries/initialize.o
 .note.GNU-stack
                0x0000000000000000        0x0 binaries/insert.o
 .note.GNU-stack
                0x0000000000000000        0x0 binaries/insertd.o
 .note.GNU-stack
                0x0000000000000000        0x0 binaries/iobound.o
 .note.GNU-stack
                0x0000000000000000        0x0 binaries/ioerr.o
 .note.GNU-stack
                0x0000000000000000        0x0 binaries/ionull.o
 .note.GNU-stack
                0x0000000000000000        0x0 binaries/kill.o
 .note.GNU-stack
                0x0000000000000000        0x0 binaries/kprintf.o
 .note.GNU-stack
                0x0000000000000000        0x0 binaries/lab2q3.o
 .note.GNU-stack
                0x0000000000000000        0x0 binaries/lab2q4.o
 .note.GNU-stack
                0x0000000000000000        0x0 binaries/lab2q5.o
 .note.GNU-stack
                0x0000000000000000        0x0 binaries/main.o
 .note.GNU-stack
                0x0000000000000000        0x0 binaries/mark.o
 .note.GNU-stack
                0x0000000000000000        0x0 binaries/meminit.o
 .note.GNU-stack
                0x0000000000000000        0x0 binaries/mkbufpool.o
 .note.GNU-stack
                0x0000000000000000        0x0 binaries/myappA.o
 .note.GNU-stack
                0x0000000000000000        0x0 binaries/myfuncA.o
 .note.GNU-stack
                0x0000000000000000        0x0 binaries/myhacker.o
 .note.GNU-stack
                0x0000000000000000        0x0 binaries/myvictim.o
 .note.GNU-stack
                0x0000000000000000        0x0 binaries/mywelcomemsg.o
 .note.GNU-stack
                0x0000000000000000        0x0 binaries/newqueue.o
 .note.GNU-stack
                0x0000000000000000        0x0 binaries/open.o
 .note.GNU-stack
                0x0000000000000000        0x0 binaries/panic.o
 .note.GNU-stack
                0x0000000000000000        0x0 binaries/pci.o
 .note.GNU-stack
                0x0000000000000000        0x0 binaries/platinit.o
 .note.GNU-stack
                0x0000000000000000        0x0 binaries/printprstate.o
 .note.GNU-stack
                0x0000000000000000        0x0 binaries/prntsegaddr.o
 .note.GNU-stack
                0x0000000000000000        0x0 binaries/ptclear.o
 .note.GNU-stack
                0x0000000000000000        0x0 binaries/ptcount.o
 .note.GNU-stack
                0x0000000000000000        0x0 binaries/ptcreate.o
 .note.GNU-stack
                0x0000000000000000        0x0 binaries/ptdelete.o
 .note.GNU-stack
                0x0000000000000000        0x0 binaries/ptinit.o
 .note.GNU-stack
                0x0000000000000000        0x0 binaries/ptrecv.o
 .note.GNU-stack
                0x0000000000000000        0x0 binaries/ptreset.o
 .note.GNU-stack
                0x0000000000000000        0x0 binaries/ptsend.o
 .note.GNU-stack
                0x0000000000000000        0x0 binaries/putc.o
 .note.GNU-stack
                0x0000000000000000        0x0 binaries/quark_irq.o
 .note.GNU-stack
                0x0000000000000000        0x0 binaries/quark_pdat.o
 .note.GNU-stack
                0x0000000000000000        0x0 binaries/queue.o
 .note.GNU-stack
                0x0000000000000000        0x0 binaries/read.o
 .note.GNU-stack
                0x0000000000000000        0x0 binaries/ready.o
 .note.GNU-stack
                0x0000000000000000        0x0 binaries/receive.o
 .note.GNU-stack
                0x0000000000000000        0x0 binaries/recvclr.o
 .note.GNU-stack
                0x0000000000000000        0x0 binaries/recvtime.o
 .note.GNU-stack
                0x0000000000000000        0x0 binaries/resched.o
 .note.GNU-stack
                0x0000000000000000        0x0 binaries/resume.o
 .note.GNU-stack
                0x0000000000000000        0x0 binaries/seek.o
 .note.GNU-stack
                0x0000000000000000        0x0 binaries/semcount.o
 .note.GNU-stack
                0x0000000000000000        0x0 binaries/semcreate.o
 .note.GNU-stack
                0x0000000000000000        0x0 binaries/semdelete.o
 .note.GNU-stack
                0x0000000000000000        0x0 binaries/semreset.o
 .note.GNU-stack
                0x0000000000000000        0x0 binaries/send.o
 .note.GNU-stack
                0x0000000000000000        0x0 binaries/signal.o
 .note.GNU-stack
                0x0000000000000000        0x0 binaries/signaln.o
 .note.GNU-stack
                0x0000000000000000        0x0 binaries/sleep.o
 .note.GNU-stack
                0x0000000000000000        0x0 binaries/stackdepth.o
 .note.GNU-stack
                0x0000000000000000        0x0 binaries/stacktrace.o
 .note.GNU-stack
                0x0000000000000000        0x0 binaries/suspend.o
 .note.GNU-stack
                0x0000000000000000        0x0 binaries/unsleep.o
 .note.GNU-stack
                0x0000000000000000        0x0 binaries/userret.o
 .note.GNU-stack
                0x0000000000000000        0x0 binaries/wait.o
 .note.GNU-stack
                0x0000000000000000        0x0 binaries/wakeup.o
 .note.GNU-stack
                0x0000000000000000        0x0 binaries/write.o
 .note.GNU-stack
                0x0000000000000000        0x0 binaries/xdone.o
 .note.GNU-stack
                0x0000000000000000        0x0 binaries/yield.o
 .note.GNU-stack
                0x0000000000000000        0x0 binaries/abs.o
 .note.GNU-stack
                0x0000000000000000        0x0 binaries/atoi.o
 .note.GNU-stack
                0x0000000000000000        0x0 binaries/atol.o
 .note.GNU-stack
                0x0000000000000000        0x0 binaries/bzero.o
 .note.GNU-stack
                0x0000000000000000        0x0 binaries/ctype_.o
 .note.GNU-stack
                0x0000000000000000        0x0 binaries/doprnt.o
 .note.GNU-stack
                0x0000000000000000        0x0 binaries/doscan.o
 .note.GNU-stack
                0x0000000000000000        0x0 binaries/fdoprnt.o
 .note.GNU-stack
                0x0000000000000000        0x0 binaries/fgetc.o
 .note.GNU-stack
                0x0000000000000000        0x0 binaries/fgets.o
 .note.GNU-stack
                0x0000000000000000        0x0 binaries/fprintf.o
 .note.GNU-stack
                0x0000000000000000        0x0 binaries/fputc.o
 .note.GNU-stack
                0x0000000000000000        0x0 binaries/fputs.o
 .note.GNU-stack
                0x0000000000000000        0x0 binaries/fscanf.o
 .note.GNU-stack
                0x0000000000000000        0x0 binaries/getchar.o
 .note.GNU-stack
                0x0000000000000000        0x0 binaries/labs.o
 .note.GNU-stack
                0x0000000000000000        0x0 binaries/memchr.o
 .note.GNU-stack
                0x0000000000000000        0x0 binaries/memcmp.o
 .note.GNU-stack
                0x0000000000000000        0x0 binaries/memcpy.o
 .note.GNU-stack
                0x0000000000000000        0x0 binaries/memset.o
 .note.GNU-stack
                0x0000000000000000        0x0 binaries/printf.o
 .note.GNU-stack
                0x0000000000000000        0x0 binaries/putchar.o
 .note.GNU-stack
                0x0000000000000000        0x0 binaries/qsort.o
 .note.GNU-stack
                0x0000000000000000        0x0 binaries/rand.o
 .note.GNU-stack
                0x0000000000000000        0x0 binaries/sprintf.o
 .note.GNU-stack
                0x0000000000000000        0x0 binaries/sscanf.o
 .note.GNU-stack
                0x0000000000000000        0x0 binaries/strchr.o
 .note.GNU-stack
                0x0000000000000000        0x0 binaries/strcmp.o
 .note.GNU-stack
                0x0000000000000000        0x0 binaries/strcpy.o
 .note.GNU-stack
                0x0000000000000000        0x0 binaries/strlen.o
 .note.GNU-stack
                0x0000000000000000        0x0 binaries/strncat.o
 .note.GNU-stack
                0x0000000000000000        0x0 binaries/strncmp.o
 .note.GNU-stack
                0x0000000000000000        0x0 binaries/strncpy.o
 .note.GNU-stack
                0x0000000000000000        0x0 binaries/strnlen.o
 .note.GNU-stack
                0x0000000000000000        0x0 binaries/strrchr.o
 .note.GNU-stack
                0x0000000000000000        0x0 binaries/strstr.o
 .note.GNU-stack
                0x0000000000000000        0x0 binaries/ttycontrol.o
 .note.GNU-stack
                0x0000000000000000        0x0 binaries/ttygetc.o
 .note.GNU-stack
                0x0000000000000000        0x0 binaries/ttyhandle_in.o
 .note.GNU-stack
                0x0000000000000000        0x0 binaries/ttyhandle_out.o
 .note.GNU-stack
                0x0000000000000000        0x0 binaries/ttyhandler.o
 .note.GNU-stack
                0x0000000000000000        0x0 binaries/ttyinit.o
 .note.GNU-stack
                0x0000000000000000        0x0 binaries/ttykickout.o
 .note.GNU-stack
                0x0000000000000000        0x0 binaries/ttyputc.o
 .note.GNU-stack
                0x0000000000000000        0x0 binaries/ttyread.o
 .note.GNU-stack
                0x0000000000000000        0x0 binaries/ttywrite.o
 .note.GNU-stack
                0x0000000000000000        0x0 binaries/mount.o
 .note.GNU-stack
                0x0000000000000000        0x0 binaries/naminit.o
 .note.GNU-stack
                0x0000000000000000        0x0 binaries/nammap.o
 .note.GNU-stack
                0x0000000000000000        0x0 binaries/namopen.o
 .note.GNU-stack
                0x0000000000000000        0x0 binaries/colon2mac.o
 .note.GNU-stack
                0x0000000000000000        0x0 binaries/ethcontrol.o
 .note.GNU-stack
                0x0000000000000000        0x0 binaries/ethhandler.o
 .note.GNU-stack
                0x0000000000000000        0x0 binaries/ethinit.o
 .note.GNU-stack
                0x0000000000000000        0x0 binaries/ethmcast.o
 .note.GNU-stack
                0x0000000000000000        0x0 binaries/ethread.o
 .note.GNU-stack
                0x0000000000000000        0x0 binaries/ethwrite.o
 .note.GNU-stack
                0x0000000000000000        0x0 binaries/rdsbufalloc.o
 .note.GNU-stack
                0x0000000000000000        0x0 binaries/rdsclose.o
 .note.GNU-stack
                0x0000000000000000        0x0 binaries/rdscomm.o
 .note.GNU-stack
                0x0000000000000000        0x0 binaries/rdscontrol.o
 .note.GNU-stack
                0x0000000000000000        0x0 binaries/rdsinit.o
 .note.GNU-stack
                0x0000000000000000        0x0 binaries/rdsopen.o
 .note.GNU-stack
                0x0000000000000000        0x0 binaries/rdsprocess.o
 .note.GNU-stack
                0x0000000000000000        0x0 binaries/rdsread.o
 .note.GNU-stack
                0x0000000000000000        0x0 binaries/rdswrite.o
 .note.GNU-stack
                0x0000000000000000        0x0 binaries/ramclose.o
 .note.GNU-stack
                0x0000000000000000        0x0 binaries/raminit.o
 .note.GNU-stack
                0x0000000000000000        0x0 binaries/ramopen.o
 .note.GNU-stack
                0x0000000000000000        0x0 binaries/ramread.o
 .note.GNU-stack
                0x0000000000000000        0x0 binaries/ramwrite.o
 .note.GNU-stack
                0x0000000000000000        0x0 binaries/lfdballoc.o
 .note.GNU-stack
                0x0000000000000000        0x0 binaries/lfdbfree.o
 .note.GNU-stack
                0x0000000000000000        0x0 binaries/lfflush.o
 .note.GNU-stack
                0x0000000000000000        0x0 binaries/lfgetmode.o
 .note.GNU-stack
                0x0000000000000000        0x0 binaries/lfiballoc.o
 .note.GNU-stack
                0x0000000000000000        0x0 binaries/lfibclear.o
 .note.GNU-stack
                0x0000000000000000        0x0 binaries/lfibget.o
 .note.GNU-stack
                0x0000000000000000        0x0 binaries/lfibput.o
 .note.GNU-stack
                0x0000000000000000        0x0 binaries/lflclose.o
 .note.GNU-stack
                0x0000000000000000        0x0 binaries/lflcontrol.o
 .note.GNU-stack
                0x0000000000000000        0x0 binaries/lflgetc.o
 .note.GNU-stack
                0x0000000000000000        0x0 binaries/lflinit.o
 .note.GNU-stack
                0x0000000000000000        0x0 binaries/lflputc.o
 .note.GNU-stack
                0x0000000000000000        0x0 binaries/lflread.o
 .note.GNU-stack
                0x0000000000000000        0x0 binaries/lflseek.o
 .note.GNU-stack
                0x0000000000000000        0x0 binaries/lflwrite.o
 .note.GNU-stack
                0x0000000000000000        0x0 binaries/lfsckfmt.o
 .note.GNU-stack
                0x0000000000000000        0x0 binaries/lfscreate.o
 .note.GNU-stack
                0x0000000000000000        0x0 binaries/lfsetup.o
 .note.GNU-stack
                0x0000000000000000        0x0 binaries/lfsinit.o
 .note.GNU-stack
                0x0000000000000000        0x0 binaries/lfsopen.o
 .note.GNU-stack
                0x0000000000000000        0x0 binaries/lftruncate.o
 .note.GNU-stack
                0x0000000000000000        0x0 binaries/rflclose.o
 .note.GNU-stack
                0x0000000000000000        0x0 binaries/rflgetc.o
 .note.GNU-stack
                0x0000000000000000        0x0 binaries/rflinit.o
 .note.GNU-stack
                0x0000000000000000        0x0 binaries/rflputc.o
 .note.GNU-stack
                0x0000000000000000        0x0 binaries/rflread.o
 .note.GNU-stack
                0x0000000000000000        0x0 binaries/rflseek.o
 .note.GNU-stack
                0x0000000000000000        0x0 binaries/rflwrite.o
 .note.GNU-stack
                0x0000000000000000        0x0 binaries/rfscomm.o
 .note.GNU-stack
                0x0000000000000000        0x0 binaries/rfscontrol.o
 .note.GNU-stack
                0x0000000000000000        0x0 binaries/rfsgetmode.o
 .note.GNU-stack
                0x0000000000000000        0x0 binaries/rfsinit.o
 .note.GNU-stack
                0x0000000000000000        0x0 binaries/rfsndmsg.o
 .note.GNU-stack
                0x0000000000000000        0x0 binaries/rfsopen.o
 .note.GNU-stack
                0x0000000000000000        0x0 binaries/arp.o
 .note.GNU-stack
                0x0000000000000000        0x0 binaries/dhcp.o
 .note.GNU-stack
                0x0000000000000000        0x0 binaries/dot2ip.o
 .note.GNU-stack
                0x0000000000000000        0x0 binaries/hexdump.o
 .note.GNU-stack
                0x0000000000000000        0x0 binaries/icmp.o
 .note.GNU-stack
                0x0000000000000000        0x0 binaries/ip.o
 .note.GNU-stack
                0x0000000000000000        0x0 binaries/net.o
 .note.GNU-stack
                0x0000000000000000        0x0 binaries/netstart.o
 .note.GNU-stack
                0x0000000000000000        0x0 binaries/pdump.o
 .note.GNU-stack
                0x0000000000000000        0x0 binaries/tftp.o
 .note.GNU-stack
                0x0000000000000000        0x0 binaries/udp.o
 .note.GNU-stack
                0x0000000000000000        0x0 binaries/addargs.o
 .note.GNU-stack
                0x0000000000000000        0x0 binaries/lexan.o
 .note.GNU-stack
                0x0000000000000000        0x0 binaries/shell.o
 .note.GNU-stack
                0x0000000000000000        0x0 binaries/xsh_argecho.o
 .note.GNU-stack
                0x0000000000000000        0x0 binaries/xsh_arp.o
 .note.GNU-stack
                0x0000000000000000        0x0 binaries/xsh_cat.o
 .note.GNU-stack
                0x0000000000000000        0x0 binaries/xsh_clear.o
 .note.GNU-stack
                0x0000000000000000        0x0 binaries/xsh_date.o
 .note.GNU-stack
                0x0000000000000000        0x0 binaries/xsh_devdump.o
 .note.GNU-stack
                0x0000000000000000        0x0 binaries/xsh_echo.o
 .note.GNU-stack
                0x0000000000000000        0x0 binaries/xsh_exit.o
 .note.GNU-stack
                0x0000000000000000        0x0 binaries/xsh_help.o
 .note.GNU-stack
                0x0000000000000000        0x0 binaries/xsh_ipaddr.o
 .note.GNU-stack
                0x0000000000000000        0x0 binaries/xsh_kill.o
 .note.GNU-stack
                0x0000000000000000        0x0 binaries/xsh_memdump.o
 .note.GNU-stack
                0x0000000000000000        0x0 binaries/xsh_memstat.o
 .note.GNU-stack
                0x0000000000000000        0x0 binaries/xsh_ping.o
 .note.GNU-stack
                0x0000000000000000        0x0 binaries/xsh_ps.o
 .note.GNU-stack
                0x0000000000000000        0x0 binaries/xsh_sleep.o
 .note.GNU-stack
                0x0000000000000000        0x0 binaries/xsh_udpdump.o
 .note.GNU-stack
                0x0000000000000000        0x0 binaries/xsh_udpecho.o
 .note.GNU-stack
                0x0000000000000000        0x0 binaries/xsh_udpeserver.o
 .note.GNU-stack
                0x0000000000000000        0x0 binaries/xsh_uptime.o
 .note.GNU-stack
                0x0000000000000000        0x0 binaries/host2netlc.o
